

Microchip Technology PIC18 LITE Macro Assembler V1.34 build -361300703 
                                                                                               Wed Dec 16 18:28:00 2015

Microchip Technology Omniscient Code Generator (Lite mode) build 201502162209
     1                           	processor	18F26J50
     2                           	fnconf	rparam,??,?,0
     3                           	opt	pw 120
     4                           	opt	lm
     5                           	psect	idataCOMRAM,global,class=CODE,delta=1
     6                           	psect	smallconst,global,reloc=2,class=SMALLCONST,delta=1
     7                           	psect	cinit,global,reloc=2,class=CODE,delta=1
     8                           	psect	bssCOMRAM,global,class=COMRAM,space=1,delta=1
     9                           	psect	dataCOMRAM,global,class=COMRAM,space=1,delta=1
    10                           	psect	bssBANK0,global,class=BANK0,space=1,delta=1
    11                           	psect	cstackBANK1,global,class=BANK1,space=1,delta=1
    12                           	psect	cstackCOMRAM,global,class=COMRAM,space=1,delta=1
    13                           	psect	text0,global,reloc=2,class=CODE,delta=1
    14                           	psect	text1,global,reloc=2,class=CODE,delta=1
    15                           	psect	text2,global,reloc=2,class=CODE,delta=1
    16                           	psect	text3,global,reloc=2,class=CODE,delta=1
    17                           	psect	text4,global,reloc=2,class=CODE,delta=1
    18                           	psect	text5,global,reloc=2,class=CODE,delta=1
    19                           	psect	text6,global,reloc=2,class=CODE,delta=1
    20                           	psect	text7,global,reloc=2,class=CODE,delta=1
    21                           	psect	text8,global,reloc=2,class=CODE,delta=1
    22                           	psect	text9,global,reloc=2,class=CODE,delta=1
    23                           	psect	text10,global,reloc=2,class=CODE,delta=1
    24                           	psect	text11,global,reloc=2,class=CODE,delta=1
    25                           	psect	text12,global,reloc=2,class=CODE,delta=1
    26                           	psect	text13,global,reloc=2,class=CODE,delta=1
    27                           	psect	text14,global,reloc=2,class=CODE,delta=1
    28                           	psect	text15,global,reloc=2,class=CODE,delta=1
    29                           	psect	text16,global,reloc=2,class=CODE,delta=1
    30                           	psect	text17,global,reloc=2,class=CODE,delta=1
    31                           	psect	text18,global,reloc=2,class=CODE,delta=1
    32                           	psect	text19,global,reloc=2,class=CODE,delta=1
    33                           	psect	text20,global,reloc=2,class=CODE,delta=1
    34                           	psect	text21,global,reloc=2,class=CODE,delta=1
    35                           	psect	text22,global,reloc=2,class=CODE,delta=1
    36                           	psect	text23,global,reloc=2,class=CODE,delta=1
    37                           	psect	text24,global,reloc=2,class=CODE,delta=1
    38                           	psect	text25,global,reloc=2,class=CODE,delta=1
    39                           	psect	text26,global,reloc=2,class=CODE,delta=1
    40                           	psect	text27,global,reloc=2,class=CODE,delta=1
    41                           	psect	text28,global,reloc=2,class=CODE,delta=1
    42                           	psect	text29,global,reloc=2,class=CODE,delta=1
    43                           	psect	text30,global,reloc=2,class=CODE,delta=1
    44                           	psect	text31,global,reloc=2,class=CODE,delta=1
    45                           	psect	text32,global,reloc=2,class=CODE,delta=1
    46                           	psect	text33,global,reloc=2,class=CODE,delta=1
    47                           	psect	text34,global,reloc=2,class=CODE,delta=1
    48                           	psect	text35,global,reloc=2,class=CODE,delta=1
    49                           	psect	text36,global,reloc=2,class=CODE,delta=1
    50                           	psect	text37,global,reloc=2,class=CODE,delta=1
    51                           	psect	text38,global,reloc=2,class=CODE,delta=1
    52                           	psect	text39,global,reloc=2,class=CODE,delta=1
    53                           	psect	text40,global,reloc=2,class=CODE,delta=1
    54                           	psect	text41,global,reloc=2,class=CODE,delta=1
    55                           	psect	text42,global,reloc=2,class=CODE,delta=1
    56                           	psect	text43,global,reloc=2,class=CODE,delta=1
    57                           	psect	text44,global,reloc=2,class=CODE,delta=1
    58                           	psect	text45,global,reloc=2,class=CODE,delta=1
    59                           	psect	text46,global,reloc=2,class=CODE,delta=1
    60                           	psect	text47,global,reloc=2,class=CODE,delta=1
    61                           	psect	text48,global,reloc=2,class=CODE,delta=1
    62                           	psect	text49,global,reloc=2,class=CODE,delta=1
    63                           	psect	text50,global,reloc=2,class=CODE,delta=1
    64                           	psect	text51,global,reloc=2,class=CODE,delta=1
    65                           	psect	text52,global,reloc=2,class=CODE,delta=1
    66                           	psect	text53,global,reloc=2,class=CODE,delta=1
    67                           	psect	text54,global,reloc=2,class=CODE,delta=1
    68                           	psect	text55,global,reloc=2,class=CODE,delta=1
    69                           	psect	intsave_regs,global,class=BIGRAM,space=1,delta=1
    70                           	psect	rparam,global,class=COMRAM,space=1,delta=1
    71  0000                     
    72                           	psect	idataCOMRAM
    73  0000'                    __pidataCOMRAM:
    74                           	opt stack 0
    75                           
    76                           ;initializer for _EUSART_9600
    77  0000' CF                 	db	207
    78                           
    79                           ;initializer for XBeeCommissioning@command
    80  0001' 43                 	db	67
    81  0002' 42                 	db	66
    82  0003' 00                 	db	0
    83                           
    84                           ;initializer for XBeeReset@command
    85  0004' 46                 	db	70
    86  0005' 52                 	db	82
    87  0006' 00                 	db	0
    88                           
    89                           ;initializer for XBeeSetSleepMode@command
    90  0007' 53                 	db	83
    91  0008' 4D                 	db	77
    92  0009' 00                 	db	0
    93                           
    94                           	psect	smallconst
    95  0000'                    __psmallconst:
    96                           	opt stack 0
    97  0000' 00                 	db	0
    98  0001'                    _CO2OFFSET:
    99                           	opt stack 0
   100  0001' 0034               	dw	52
   101  0003'                    __end_of_CO2OFFSET:
   102                           	opt stack 0
   103  0003'                    _BROADCAST_RADIUS:
   104                           	opt stack 0
   105  0003' 00                 	db	0
   106  0004'                    __end_of_BROADCAST_RADIUS:
   107                           	opt stack 0
   108  0004'                    _TRANSMIT_OPTIONS:
   109                           	opt stack 0
   110  0004' 00                 	db	0
   111  0005'                    __end_of_TRANSMIT_OPTIONS:
   112                           	opt stack 0
   113  0005'                    _COORDINATOR_ADDRESS:
   114                           	opt stack 0
   115  0005' 00                 	db	0
   116  0006' 13                 	db	19
   117  0007' A2                 	db	162
   118  0008' 00                 	db	0
   119  0009' 40                 	db	64
   120  000A' 48                 	db	72
   121  000B' 94                 	db	148
   122  000C' 94                 	db	148
   123  000D'                    __end_of_COORDINATOR_ADDRESS:
   124                           	opt stack 0
   125  000D'                    _SENSORS:
   126                           	opt stack 0
   127  000D' 53                 	db	83
   128  000E' 49                 	db	73
   129  000F'                    __end_of_SENSORS:
   130                           	opt stack 0
   131  0000                     _ANCON0	set	3912
   132  0000                     _ANCON0bits	set	3912
   133  0000                     _ANCON1	set	3913
   134  0000                     _ANCON1bits	set	3913
   135  0000                     _DSCONHbits	set	3917
   136  0000                     _DSCONLbits	set	3916
   137  0000                     _DSWAKEH	set	3915
   138  0000                     _DSWAKEHbits	set	3915
   139  0000                     _DSWAKEL	set	3914
   140  0000                     _DSWAKELbits	set	3914
   141  0000                     _RTCCFGbits	set	3903
   142  0000                     _ADRES	set	4035
   143  0000                     _ADCON0bits	set	4034
   144  0000                     _ADCON1bits	set	4033
   145  0000                     _BAUDCON1bits	set	3966
   146  0000                     _INTCON	set	4082
   147  0000                     _INTCON2bits	set	4081
   148  0000                     _INTCONbits	set	4082
   149  0000                     _IPR1	set	3999
   150  0000                     _IPR2	set	4002
   151  0000                     _IPR3	set	4005
   152  0000                     _LATAbits	set	3977
   153  0000                     _LATCbits	set	3979
   154  0000                     _OSCCONbits	set	4051
   155  0000                     _OSCTUNEbits	set	3995
   156  0000                     _PIE1	set	3997
   157  0000                     _PIR1	set	3998
   158  0000                     _PIR1bits	set	3998
   159  0000                     _PIR2	set	4001
   160  0000                     _PIR3	set	4004
   161  0000                     _PORTAbits	set	3968
   162  0000                     _PORTBbits	set	3969
   163  0000                     _RCONbits	set	4048
   164  0000                     _RCREG1	set	4015
   165  0000                     _RCSTA1	set	4012
   166  0000                     _RCSTA1bits	set	4012
   167  0000                     _SPBRG1	set	4016
   168  0000                     _T1CONbits	set	4045
   169  0000                     _TRISAbits	set	3986
   170  0000                     _TRISBbits	set	3987
   171  0000                     _TRISCbits	set	3988
   172  0000                     _TXREG1	set	4014
   173  0000                     _TXSTA1bits	set	4013
   174  0000                     _UCONbits	set	3941
   175  0000                     _WDTCONbits	set	4032
   176                           
   177                           ; #config settings
   178  000F' 00                 	db	0	; dummy byte at the end
   179  0000                     
   180                           	psect	cinit
   181  0000'                    __pcinit:
   182                           	opt stack 0
   183  0000'                    start_initialization:
   184                           	opt stack 0
   185  0000'                    __initialization:
   186                           	opt stack 0
   187                           
   188                           ; Clear objects allocated to BANK0 (125 bytes)
   189  0000' EE00' F000'        	lfsr	0,__pbssBANK0
   190  0004' 0E7D               	movlw	125
   191  0006'                    clear_0:
   192  0006' 6AEE               	clrf	postinc0,c
   193  0008' 06E8               	decf	wreg,f,c
   194  000A' E1FD               	bnz	clear_0
   195                           
   196                           ; Clear objects allocated to COMRAM (13 bytes)
   197  000C' EE00' F000'        	lfsr	0,__pbssCOMRAM
   198  0010' 0E0D               	movlw	13
   199  0012'                    clear_1:
   200  0012' 6AEE               	clrf	postinc0,c
   201  0014' 06E8               	decf	wreg,f,c
   202  0016' E1FD               	bnz	clear_1
   203                           
   204                           ; Initialize objects allocated to COMRAM (10 bytes)
   205                           ; load TBLPTR registers with __pidataCOMRAM
   206  0018' 0E00'              	movlw	low __pidataCOMRAM
   207  001A' 6EF6               	movwf	tblptrl,c
   208  001C' 0E00'              	movlw	high __pidataCOMRAM
   209  001E' 6EF7               	movwf	tblptrh,c
   210  0020' 0E00'              	movlw	low (__pidataCOMRAM shr (0+16))
   211  0022' 6EF8               	movwf	tblptru,c
   212  0024' EE00' F000'        	lfsr	0,__pdataCOMRAM
   213  0028' EE10 F00A          	lfsr	1,10
   214  002C'                    copy_data0:
   215  002C' 0009               	tblrd		*+
   216  002E' CFF5 FFEE          	movff	tablat,postinc0
   217  0032' 50E5               	movf	postdec1,w,c
   218  0034' 50E1               	movf	fsr1l,w,c
   219  0036' E1FA               	bnz	copy_data0
   220  0038'                    end_of_initialization:
   221                           	opt stack 0
   222  0038'                    __end_of__initialization:
   223                           	opt stack 0
   224  0038' 0E00'              	movlw	low (__Lmediumconst shr (0+16))
   225  003A' 6EF8               	movwf	tblptru,c
   226  003C' 0100               	movlb	0
   227  003E' EF00' F000'        	goto	_main	;jump to C main() function
   228                           tblptru	equ	0xFF8
   229                           tblptrh	equ	0xFF7
   230                           tblptrl	equ	0xFF6
   231                           tablat	equ	0xFF5
   232                           postinc0	equ	0xFEE
   233                           wreg	equ	0xFE8
   234                           postdec1	equ	0xFE5
   235                           fsr1l	equ	0xFE1
   236                           
   237                           	psect	bssCOMRAM
   238  0000'                    __pbssCOMRAM:
   239                           	opt stack 0
   240  0000'                    _count:
   241                           	opt stack 0
   242  0000'                    	ds	1
   243  0001'                    _ircaData:
   244                           	opt stack 0
   245  0001'                    	ds	6
   246  0007'                    _shtData:
   247                           	opt stack 0
   248  0007'                    	ds	6
   249                           tblptru	equ	0xFF8
   250                           tblptrh	equ	0xFF7
   251                           tblptrl	equ	0xFF6
   252                           tablat	equ	0xFF5
   253                           postinc0	equ	0xFEE
   254                           wreg	equ	0xFE8
   255                           postdec1	equ	0xFE5
   256                           fsr1l	equ	0xFE1
   257                           
   258                           	psect	dataCOMRAM
   259  0000'                    __pdataCOMRAM:
   260                           	opt stack 0
   261  0000'                    _EUSART_9600:
   262                           	opt stack 0
   263  0000'                    	ds	1
   264  0001'                    XBeeCommissioning@command:
   265                           	opt stack 0
   266  0001'                    	ds	3
   267  0004'                    XBeeReset@command:
   268                           	opt stack 0
   269  0004'                    	ds	3
   270  0007'                    XBeeSetSleepMode@command:
   271                           	opt stack 0
   272  0007'                    	ds	3
   273                           tblptru	equ	0xFF8
   274                           tblptrh	equ	0xFF7
   275                           tblptrl	equ	0xFF6
   276                           tablat	equ	0xFF5
   277                           postinc0	equ	0xFEE
   278                           wreg	equ	0xFE8
   279                           postdec1	equ	0xFE5
   280                           fsr1l	equ	0xFE1
   281                           
   282                           	psect	bssBANK0
   283  0000'                    __pbssBANK0:
   284                           	opt stack 0
   285  0000'                    _joinPacket:
   286                           	opt stack 0
   287  0000'                    	ds	125
   288                           tblptru	equ	0xFF8
   289                           tblptrh	equ	0xFF7
   290                           tblptrl	equ	0xFF6
   291                           tablat	equ	0xFF5
   292                           postinc0	equ	0xFEE
   293                           wreg	equ	0xFE8
   294                           postdec1	equ	0xFE5
   295                           fsr1l	equ	0xFE1
   296                           
   297                           	psect	cstackBANK1
   298  0000'                    __pcstackBANK1:
   299                           	opt stack 0
   300  0000'                    SendMeasures@packet:
   301                           	opt stack 0
   302                           
   303                           ; 125 bytes @ 0x0
   304  0000'                    	ds	125
   305  007D'                    SendMeasures@payload:
   306                           	opt stack 0
   307                           
   308                           ; 101 bytes @ 0x7D
   309  007D'                    	ds	101
   310                           tblptru	equ	0xFF8
   311                           tblptrh	equ	0xFF7
   312                           tblptrl	equ	0xFF6
   313                           tablat	equ	0xFF5
   314                           postinc0	equ	0xFEE
   315                           wreg	equ	0xFE8
   316                           postdec1	equ	0xFE5
   317                           fsr1l	equ	0xFE1
   318                           
   319                           	psect	cstackCOMRAM
   320  0000'                    __pcstackCOMRAM:
   321                           	opt stack 0
   322  0000'                    ??_Delay10KTCYx:
   323  0000'                    ?_AdcReadValue:
   324                           	opt stack 0
   325  0000'                    ?_sprintf:
   326                           	opt stack 0
   327  0000'                    ?_strlen:
   328                           	opt stack 0
   329  0000'                    XBeeSerialInit@baudrate:
   330                           	opt stack 0
   331  0000'                    XBeeSerialSend@value:
   332                           	opt stack 0
   333  0000'                    Delay100TCYx@unit:
   334                           	opt stack 0
   335  0000'                    Delay10TCYx@unit:
   336                           	opt stack 0
   337  0000'                    XBeeCreateTransmitRequestPacket@packet:
   338                           	opt stack 0
   339  0000'                    PayloadInit@payload:
   340                           	opt stack 0
   341  0000'                    PayloadPutByte@payload:
   342                           	opt stack 0
   343  0000'                    PayloadPutWord@payload:
   344                           	opt stack 0
   345  0000'                    XBeeCreateCompleteATCommandPacket@packet:
   346                           	opt stack 0
   347  0000'                    XBeeCreateATCommandPacket@packet:
   348                           	opt stack 0
   349  0000'                    sprintf@sp:
   350                           	opt stack 0
   351  0000'                    memset@p1:
   352                           	opt stack 0
   353  0000'                    strlen@s:
   354                           	opt stack 0
   355                           
   356                           ; 2 bytes @ 0x0
   357  0000'                    	ds	1
   358  0001'                    Sht11Write@value:
   359                           	opt stack 0
   360  0001'                    Sht11Read@ack:
   361                           	opt stack 0
   362  0001'                    Delay10KTCYx@unit:
   363                           	opt stack 0
   364  0001'                    XBeeSendPacket@packet:
   365                           	opt stack 0
   366                           
   367                           ; 2 bytes @ 0x1
   368  0001'                    	ds	1
   369  0002'                    ??_strlen:
   370  0002'                    Sht11Write@error:
   371                           	opt stack 0
   372  0002'                    Sht11Read@val:
   373                           	opt stack 0
   374  0002'                    XBeeCreateTransmitRequestPacket@frameId:
   375                           	opt stack 0
   376  0002'                    PayloadInit@i:
   377                           	opt stack 0
   378  0002'                    PayloadPutByte@element:
   379                           	opt stack 0
   380  0002'                    XBeeCreateCompleteATCommandPacket@frameId:
   381                           	opt stack 0
   382  0002'                    XBeeCreateATCommandPacket@frameId:
   383                           	opt stack 0
   384  0002'                    AdcConvert@result:
   385                           	opt stack 0
   386  0002'                    PayloadPutWord@element:
   387                           	opt stack 0
   388  0002'                    sprintf@f:
   389                           	opt stack 0
   390  0002'                    memset@c:
   391                           	opt stack 0
   392                           
   393                           ; 2 bytes @ 0x2
   394  0002'                    	ds	1
   395  0003'                    ??_XBeeSendPacket:
   396  0003'                    ??_PayloadPutByte:
   397  0003'                    Sht11Write@i:
   398                           	opt stack 0
   399  0003'                    Sht11Read@i:
   400                           	opt stack 0
   401  0003'                    XBeeCreateTransmitRequestPacket@destinationAddress:
   402                           	opt stack 0
   403  0003'                    XBeeCreateCompleteATCommandPacket@command:
   404                           	opt stack 0
   405  0003'                    XBeeCreateATCommandPacket@command:
   406                           	opt stack 0
   407                           
   408                           ; 2 bytes @ 0x3
   409  0003'                    	ds	1
   410  0004'                    ??_AdcConvert:
   411  0004'                    ??_PayloadPutWord:
   412  0004'                    Sht11MeasureParam@p_value:
   413                           	opt stack 0
   414  0004'                    sprintf@ap:
   415                           	opt stack 0
   416  0004'                    memset@n:
   417                           	opt stack 0
   418  0004'                    strlen@cp:
   419                           	opt stack 0
   420                           
   421                           ; 2 bytes @ 0x4
   422  0004'                    	ds	1
   423  0005'                    XBeeCreateTransmitRequestPacket@radius:
   424                           	opt stack 0
   425  0005'                    PayloadPutWord@lsb:
   426                           	opt stack 0
   427  0005'                    XBeeSendPacket@p:
   428                           	opt stack 0
   429  0005'                    XBeeCreateCompleteATCommandPacket@params:
   430                           	opt stack 0
   431  0005'                    XBeeCreateATCommandPacket@p:
   432                           	opt stack 0
   433                           
   434                           ; 2 bytes @ 0x5
   435  0005'                    	ds	1
   436  0006'                    XBeeCreateTransmitRequestPacket@options:
   437                           	opt stack 0
   438  0006'                    PayloadPutWord@msb:
   439                           	opt stack 0
   440  0006'                    sprintf@flag:
   441                           	opt stack 0
   442  0006'                    Sht11MeasureParam@p_checksum:
   443                           	opt stack 0
   444  0006'                    memset@p:
   445                           	opt stack 0
   446                           
   447                           ; 2 bytes @ 0x6
   448  0006'                    	ds	1
   449  0007'                    AdcConvert@channel:
   450                           	opt stack 0
   451  0007'                    XBeeCreateCompleteATCommandPacket@paramsLength:
   452                           	opt stack 0
   453  0007'                    sprintf@c:
   454                           	opt stack 0
   455  0007'                    XBeeCreateTransmitRequestPacket@payload:
   456                           	opt stack 0
   457                           
   458                           ; 2 bytes @ 0x7
   459  0007'                    	ds	1
   460  0008'                    ??_XBeeCreateCompleteATCommandPacket:
   461  0008'                    Sht11MeasureParam@mode:
   462                           	opt stack 0
   463  0008'                    XBeeCreatePacket@packet:
   464                           	opt stack 0
   465  0008'                    PayloadPutString@payload:
   466                           	opt stack 0
   467  0008'                    AdcConvert@tmp:
   468                           	opt stack 0
   469                           
   470                           ; 4 bytes @ 0x8
   471  0008'                    	ds	1
   472  0009'                    ??_Sht11MeasureParam:
   473  0009'                    XBeeCreateTransmitRequestPacket@dataLength:
   474                           	opt stack 0
   475                           
   476                           ; 1 bytes @ 0x9
   477  0009'                    	ds	1
   478  000A'                    ??_XBeeCreateTransmitRequestPacket:
   479  000A'                    XBeeCreateCompleteATCommandPacket@i:
   480                           	opt stack 0
   481  000A'                    PayloadPutString@string:
   482                           	opt stack 0
   483                           
   484                           ; 2 bytes @ 0xA
   485  000A'                    	ds	1
   486  000B'                    Sht11MeasureParam@error:
   487                           	opt stack 0
   488  000B'                    XBeeCreateCompleteATCommandPacket@p:
   489                           	opt stack 0
   490                           
   491                           ; 2 bytes @ 0xB
   492  000B'                    	ds	1
   493  000C'                    ??_PayloadPutString:
   494  000C'                    AdcConvert@i:
   495                           	opt stack 0
   496  000C'                    XBeeCreateTransmitRequestPacket@i:
   497                           	opt stack 0
   498  000C'                    Sht11Measure@data:
   499                           	opt stack 0
   500                           
   501                           ; 2 bytes @ 0xC
   502  000C'                    	ds	1
   503  000D'                    XBeeCommissioning@timesButtonPress:
   504                           	opt stack 0
   505  000D'                    XBeeSetSleepMode@mode:
   506                           	opt stack 0
   507  000D'                    IrcaMeasure@data:
   508                           	opt stack 0
   509  000D'                    XBeeCreateTransmitRequestPacket@p:
   510                           	opt stack 0
   511  000D'                    PayloadPutString@buffer:
   512                           	opt stack 0
   513                           
   514                           ; 2 bytes @ 0xD
   515  000D'                    	ds	1
   516  000E'                    Sht11Measure@error:
   517                           	opt stack 0
   518  000E'                    XBeeCommissioning@params:
   519                           	opt stack 0
   520  000E'                    XBeeSetSleepMode@params:
   521                           	opt stack 0
   522                           
   523                           ; 2 bytes @ 0xE
   524  000E'                    	ds	1
   525  000F'                    
   526                           ; 0 bytes @ 0xF
   527  000F'                    	ds	1
   528  0010'                    tblptru	equ	0xFF8
   529                           tblptrh	equ	0xFF7
   530                           tblptrl	equ	0xFF6
   531                           tablat	equ	0xFF5
   532                           postinc0	equ	0xFEE
   533                           wreg	equ	0xFE8
   534                           postdec1	equ	0xFE5
   535                           fsr1l	equ	0xFE1
   536                           
   537                           ; 0 bytes @ 0x10
   538 ;;
   539 ;;Main: autosize = 0, tempsize = 0, incstack = 0, save=0
   540 ;;
   541 ;; *************** function _main *****************
   542 ;; Defined at:
   543 ;;		line 10 in file "main.c"
   544 ;; Parameters:    Size  Location     Type
   545 ;;		None
   546 ;; Auto vars:     Size  Location     Type
   547 ;;		None
   548 ;; Return value:  Size  Location     Type
   549 ;;                  2  360[None  ] int 
   550 ;; Registers used:
   551 ;;		wreg, fsr0l, fsr0h, fsr1l, fsr1h, fsr1l, fsr1h, fsr2l, fsr2h, status,2, status,0, pclat, btemp, btemp+1, btemp+2, bt
      +emp+3, btemp+4, btemp+5, btemp+6, btemp+7, btemp+8, btemp+9, btemp+10, btemp+11, tosl, structret, tblptrl, tblptrh, tblp
      +tru, prodl, prodh, bsr, cstack
   552 ;; Tracked objects:
   553 ;;		On entry : 0/0
   554 ;;		On exit  : 0/0
   555 ;;		Unchanged: 0/0
   556 ;; Data sizes:     COMRAM   BANK0   BANK1   BANK2   BANK3   BANK4   BANK5   BANK6   BANK7   BANK8   BANK9  BANK10  BANK1
      +1  BANK12  BANK13  BANK14
   557 ;;      Params:         0       0       0       0       0       0       0       0       0       0       0       0       
      +0       0       0       0
   558 ;;      Locals:         0       0       0       0       0       0       0       0       0       0       0       0       
      +0       0       0       0
   559 ;;      Temps:          0       0       0       0       0       0       0       0       0       0       0       0       
      +0       0       0       0
   560 ;;      Totals:         0       0       0       0       0       0       0       0       0       0       0       0       
      +0       0       0       0
   561 ;;Total ram usage:        0 bytes
   562 ;; Hardware stack levels required when called:    6
   563 ;; This function calls:
   564 ;;		_BspInit
   565 ;;		_ClearInterrupts
   566 ;;		_DisableInterrupts
   567 ;;		_EnableDeelSleepInterrupt
   568 ;;		_OnDsWdtWakeUp
   569 ;;		_OnMclr
   570 ;;		_OnPowerUp
   571 ;;		_OnWakeUp
   572 ;;		_PowerDeepSleep
   573 ;;		_SensorProxyInit
   574 ;;		_XBeeInit
   575 ;; This function is called by:
   576 ;;		Startup code after reset
   577 ;; This function uses a non-reentrant model
   578 ;;
   579                           
   580                           	psect	text0
   581  0000'                    __ptext0:
   582                           	opt stack 0
   583  0000'                    _main:
   584                           	opt stack 25
   585                           
   586                           ;main.c: 16: BspInit();
   587                           
   588                           ; BSR set to: 15
   589                           ;incstack = 0
   590  0000' EC00' F000'        	call	_BspInit	;wreg free
   591                           
   592                           ;main.c: 17: ClearInterrupts();
   593  0004' EC00' F000'        	call	_ClearInterrupts	;wreg free
   594                           
   595                           ;main.c: 18: DisableInterrupts();
   596  0008' EC00' F000'        	call	_DisableInterrupts	;wreg free
   597                           
   598                           ;main.c: 19: EnableDeelSleepInterrupt();
   599  000C' EC00' F000'        	call	_EnableDeelSleepInterrupt	;wreg free
   600                           
   601                           ;main.c: 21: XBeeInit();
   602  0010' EC00' F000'        	call	_XBeeInit	;wreg free
   603                           
   604                           ;main.c: 23: SensorProxyInit();
   605  0014' EC00' F000'        	call	_SensorProxyInit	;wreg free
   606  0018' D000               	goto	l2459
   607  001A'                    l2459:
   608                           
   609                           ;main.c: 29: if (WDTCONbits.DS && DSWAKEHbits.DSINT0) {
   610  001A' A6C0               	btfss	4032,3,c	;volatile
   611  001C' D006               	goto	l362
   612  001E' 010F               	movlb	15	; () banked
   613  0020' A14B               	btfss	75,0,b	;volatile
   614  0022' D003               	goto	l362
   615                           
   616                           ; BSR set to: 15
   617                           ;main.c: 30: OnWakeUp();
   618  0024' EC00' F000'        	call	_OnWakeUp	;wreg free
   619                           
   620                           ;main.c: 31: } else if (WDTCONbits.DS && DSWAKELbits.DSMCLR) {
   621  0028' D029               	goto	l2485
   622  002A'                    l362:
   623  002A' A6C0               	btfss	4032,3,c	;volatile
   624  002C' D006               	goto	l364
   625  002E' 010F               	movlb	15	; () banked
   626  0030' A54A               	btfss	74,2,b	;volatile
   627  0032' D003               	goto	l364
   628                           
   629                           ; BSR set to: 15
   630                           ;main.c: 32: OnMclr();
   631  0034' EC00' F000'        	call	_OnMclr	;wreg free
   632                           
   633                           ;main.c: 33: } else if (WDTCONbits.DS && DSWAKELbits.DSWDT) {
   634  0038' D021               	goto	l2485
   635  003A'                    l364:
   636  003A' A6C0               	btfss	4032,3,c	;volatile
   637  003C' D006               	goto	l366
   638  003E' 010F               	movlb	15	; () banked
   639  0040' A94A               	btfss	74,4,b	;volatile
   640  0042' D003               	goto	l366
   641                           
   642                           ; BSR set to: 15
   643                           ;main.c: 34: OnDsWdtWakeUp();
   644  0044' EC00' F000'        	call	_OnDsWdtWakeUp	;wreg free
   645                           
   646                           ;main.c: 35: } else if (WDTCONbits.DS && DSWAKELbits.DSULP){
   647  0048' D019               	goto	l2485
   648  004A'                    l366:
   649  004A' A6C0               	btfss	4032,3,c	;volatile
   650  004C' D003               	goto	l368
   651  004E' 010F               	movlb	15	; () banked
   652  0050' BB4A               	btfsc	74,5,b	;volatile
   653  0052' D005               	goto	l2479
   654  0054'                    l368:
   655  0054' A6C0               	btfss	4032,3,c	;volatile
   656  0056' D005               	goto	l370
   657  0058' 010F               	movlb	15	; () banked
   658  005A' A74A               	btfss	74,3,b	;volatile
   659  005C' D002               	goto	l370
   660  005E'                    l2479:
   661                           
   662                           ; BSR set to: 15
   663                           ;main.c: 39: WDTCONbits.DS = 0;
   664  005E' 96C0               	bcf	4032,3,c	;volatile
   665                           
   666                           ;main.c: 40: } else if (!WDTCONbits.DS){
   667  0060' D00D               	goto	l2485
   668  0062'                    l370:
   669  0062' B6C0               	btfsc	4032,3,c	;volatile
   670  0064' D003               	goto	l372
   671                           
   672                           ;main.c: 41: OnPowerUp();
   673  0066' EC00' F000'        	call	_OnPowerUp	;wreg free
   674                           
   675                           ;main.c: 42: } else if (DSWAKELbits.DSFLT){
   676  006A' D008               	goto	l2485
   677  006C'                    l372:
   678  006C' 010F               	movlb	15	; () banked
   679  006E' AF4A               	btfss	74,7,b	;volatile
   680  0070' D005               	goto	l2485
   681                           
   682                           ; BSR set to: 15
   683                           ;main.c: 43: WDTCONbits.DS = 0;
   684  0072' 96C0               	bcf	4032,3,c	;volatile
   685                           
   686                           ;main.c: 44: DSWAKELbits.DSFLT=0;
   687  0074' 010F               	movlb	15	; () banked
   688  0076' 9F4A               	bcf	74,7,b	;volatile
   689  0078' D7FF               	goto	l376
   690  007A' D000               	goto	l2485
   691  007C'                    l2485:
   692                           
   693                           ;main.c: 46: }
   694                           ;main.c: 47: PowerDeepSleep();
   695  007C' EC00' F000'        	call	_PowerDeepSleep	;wreg free
   696  0080' D7CC               	goto	l2459
   697                           
   698                           ;main.c: 52: }
   699                           ;main.c: 53: return 0;
   700                           ;	Return value of _main is never used
   701  0082' EF00' F000'        	goto	start
   702  0086'                    __end_of_main:
   703                           	opt stack 0
   704                           tblptru	equ	0xFF8
   705                           tblptrh	equ	0xFF7
   706                           tblptrl	equ	0xFF6
   707                           tablat	equ	0xFF5
   708                           postinc0	equ	0xFEE
   709                           wreg	equ	0xFE8
   710                           postdec1	equ	0xFE5
   711                           fsr1l	equ	0xFE1
   712                           
   713 ;; *************** function _XBeeInit *****************
   714 ;; Defined at:
   715 ;;		line 25 in file "xbee/digi_hw.c"
   716 ;; Parameters:    Size  Location     Type
   717 ;;		None
   718 ;; Auto vars:     Size  Location     Type
   719 ;;		None
   720 ;; Return value:  Size  Location     Type
   721 ;;		None               void
   722 ;; Registers used:
   723 ;;		wreg, status,2, cstack
   724 ;; Tracked objects:
   725 ;;		On entry : 0/0
   726 ;;		On exit  : 0/0
   727 ;;		Unchanged: 0/0
   728 ;; Data sizes:     COMRAM   BANK0   BANK1   BANK2   BANK3   BANK4   BANK5   BANK6   BANK7   BANK8   BANK9  BANK10  BANK1
      +1  BANK12  BANK13  BANK14
   729 ;;      Params:         0       0       0       0       0       0       0       0       0       0       0       0       
      +0       0       0       0
   730 ;;      Locals:         0       0       0       0       0       0       0       0       0       0       0       0       
      +0       0       0       0
   731 ;;      Temps:          0       0       0       0       0       0       0       0       0       0       0       0       
      +0       0       0       0
   732 ;;      Totals:         0       0       0       0       0       0       0       0       0       0       0       0       
      +0       0       0       0
   733 ;;Total ram usage:        0 bytes
   734 ;; Hardware stack levels used:    1
   735 ;; Hardware stack levels required when called:    1
   736 ;; This function calls:
   737 ;;		_XBeeInterruptInit
   738 ;;		_XBeeSerialInit
   739 ;; This function is called by:
   740 ;;		_main
   741 ;; This function uses a non-reentrant model
   742 ;;
   743                           
   744                           	psect	text1
   745  0000'                    __ptext1:
   746                           	opt stack 0
   747  0000'                    _XBeeInit:
   748                           	opt stack 29
   749                           
   750                           ;digi_hw.c: 26: XBeeSerialInit(EUSART_9600);
   751                           
   752                           ;incstack = 0
   753  0000' 5000'              	movf	_EUSART_9600,w,c
   754  0002' EC00' F000'        	call	_XBeeSerialInit
   755                           
   756                           ;digi_hw.c: 27: XBeeInterruptInit();
   757  0006' EC00' F000'        	call	_XBeeInterruptInit	;wreg free
   758  000A' 0012               	return		;funcret
   759  000C'                    __end_of_XBeeInit:
   760                           	opt stack 0
   761                           tblptru	equ	0xFF8
   762                           tblptrh	equ	0xFF7
   763                           tblptrl	equ	0xFF6
   764                           tablat	equ	0xFF5
   765                           postinc0	equ	0xFEE
   766                           wreg	equ	0xFE8
   767                           postdec1	equ	0xFE5
   768                           fsr1l	equ	0xFE1
   769                           
   770 ;; *************** function _XBeeSerialInit *****************
   771 ;; Defined at:
   772 ;;		line 20 in file "xbee/digi_serial.c"
   773 ;; Parameters:    Size  Location     Type
   774 ;;  baudrate        1    wreg     unsigned char 
   775 ;; Auto vars:     Size  Location     Type
   776 ;;  baudrate        1    0[COMRAM] unsigned char 
   777 ;; Return value:  Size  Location     Type
   778 ;;		None               void
   779 ;; Registers used:
   780 ;;		wreg
   781 ;; Tracked objects:
   782 ;;		On entry : 0/0
   783 ;;		On exit  : 0/0
   784 ;;		Unchanged: 0/0
   785 ;; Data sizes:     COMRAM   BANK0   BANK1   BANK2   BANK3   BANK4   BANK5   BANK6   BANK7   BANK8   BANK9  BANK10  BANK1
      +1  BANK12  BANK13  BANK14
   786 ;;      Params:         0       0       0       0       0       0       0       0       0       0       0       0       
      +0       0       0       0
   787 ;;      Locals:         1       0       0       0       0       0       0       0       0       0       0       0       
      +0       0       0       0
   788 ;;      Temps:          0       0       0       0       0       0       0       0       0       0       0       0       
      +0       0       0       0
   789 ;;      Totals:         1       0       0       0       0       0       0       0       0       0       0       0       
      +0       0       0       0
   790 ;;Total ram usage:        1 bytes
   791 ;; Hardware stack levels used:    1
   792 ;; This function calls:
   793 ;;		Nothing
   794 ;; This function is called by:
   795 ;;		_XBeeInit
   796 ;; This function uses a non-reentrant model
   797 ;;
   798                           
   799                           	psect	text2
   800  0000'                    __ptext2:
   801                           	opt stack 0
   802  0000'                    _XBeeSerialInit:
   803                           	opt stack 29
   804                           
   805                           ;incstack = 0
   806                           ;XBeeSerialInit@baudrate stored from wreg
   807  0000' 6E00'              	movwf	XBeeSerialInit@baudrate,c
   808                           
   809                           ;digi_serial.c: 21: TRISCbits.TRISC7 = 1;
   810  0002' 8E94               	bsf	3988,7,c	;volatile
   811                           
   812                           ;digi_serial.c: 22: TRISCbits.TRISC6 = 0;
   813  0004' 9C94               	bcf	3988,6,c	;volatile
   814                           
   815                           ;digi_serial.c: 24: RCSTA1bits.CREN = 1;
   816  0006' 88AC               	bsf	4012,4,c	;volatile
   817                           
   818                           ;digi_serial.c: 25: TXSTA1bits.BRGH = 1;
   819  0008' 84AD               	bsf	4013,2,c	;volatile
   820                           
   821                           ;digi_serial.c: 27: TXSTA1bits.TXEN = 1;
   822  000A' 8AAD               	bsf	4013,5,c	;volatile
   823                           
   824                           ;digi_serial.c: 28: RCSTA1bits.SPEN = 1;
   825  000C' 8EAC               	bsf	4012,7,c	;volatile
   826                           
   827                           ;digi_serial.c: 30: SPBRG1 = baudrate;
   828  000E' C000' FFB0         	movff	XBeeSerialInit@baudrate,4016	;volatile
   829                           
   830                           ;digi_serial.c: 32: BAUDCON1bits.BRG16 = 1;
   831  0012' 867E               	bsf	3966,3,c	;volatile
   832  0014' 0012               	return		;funcret
   833  0016'                    __end_of_XBeeSerialInit:
   834                           	opt stack 0
   835                           tblptru	equ	0xFF8
   836                           tblptrh	equ	0xFF7
   837                           tblptrl	equ	0xFF6
   838                           tablat	equ	0xFF5
   839                           postinc0	equ	0xFEE
   840                           wreg	equ	0xFE8
   841                           postdec1	equ	0xFE5
   842                           fsr1l	equ	0xFE1
   843                           
   844 ;; *************** function _XBeeInterruptInit *****************
   845 ;; Defined at:
   846 ;;		line 30 in file "xbee/digi_hw.c"
   847 ;; Parameters:    Size  Location     Type
   848 ;;		None
   849 ;; Auto vars:     Size  Location     Type
   850 ;;		None
   851 ;; Return value:  Size  Location     Type
   852 ;;		None               void
   853 ;; Registers used:
   854 ;;		None
   855 ;; Tracked objects:
   856 ;;		On entry : 0/0
   857 ;;		On exit  : 0/0
   858 ;;		Unchanged: 0/0
   859 ;; Data sizes:     COMRAM   BANK0   BANK1   BANK2   BANK3   BANK4   BANK5   BANK6   BANK7   BANK8   BANK9  BANK10  BANK1
      +1  BANK12  BANK13  BANK14
   860 ;;      Params:         0       0       0       0       0       0       0       0       0       0       0       0       
      +0       0       0       0
   861 ;;      Locals:         0       0       0       0       0       0       0       0       0       0       0       0       
      +0       0       0       0
   862 ;;      Temps:          0       0       0       0       0       0       0       0       0       0       0       0       
      +0       0       0       0
   863 ;;      Totals:         0       0       0       0       0       0       0       0       0       0       0       0       
      +0       0       0       0
   864 ;;Total ram usage:        0 bytes
   865 ;; Hardware stack levels used:    1
   866 ;; This function calls:
   867 ;;		Nothing
   868 ;; This function is called by:
   869 ;;		_XBeeInit
   870 ;; This function uses a non-reentrant model
   871 ;;
   872                           
   873                           	psect	text3
   874  0000'                    __ptext3:
   875                           	opt stack 0
   876  0000'                    _XBeeInterruptInit:
   877                           	opt stack 29
   878                           
   879                           ;digi_hw.c: 31: TRISBbits.TRISB0 = 1;
   880                           
   881                           ;incstack = 0
   882  0000' 8093               	bsf	3987,0,c	;volatile
   883                           
   884                           ;digi_hw.c: 32: INTCON2bits.INTEDG0 = 1;
   885  0002' 8CF1               	bsf	intcon2,6,c	;volatile
   886                           
   887                           ;digi_hw.c: 33: INTCONbits.INT0IF = 0;
   888  0004' 92F2               	bcf	intcon,1,c	;volatile
   889                           
   890                           ;digi_hw.c: 34: INTCONbits.INT0IE = 1;
   891  0006' 88F2               	bsf	intcon,4,c	;volatile
   892  0008' 0012               	return		;funcret
   893  000A'                    __end_of_XBeeInterruptInit:
   894                           	opt stack 0
   895                           tblptru	equ	0xFF8
   896                           tblptrh	equ	0xFF7
   897                           tblptrl	equ	0xFF6
   898                           tablat	equ	0xFF5
   899                           intcon	equ	0xFF2
   900                           intcon2	equ	0xFF1
   901                           postinc0	equ	0xFEE
   902                           wreg	equ	0xFE8
   903                           postdec1	equ	0xFE5
   904                           fsr1l	equ	0xFE1
   905                           
   906 ;; *************** function _SensorProxyInit *****************
   907 ;; Defined at:
   908 ;;		line 16 in file "sensor_proxy.c"
   909 ;; Parameters:    Size  Location     Type
   910 ;;		None
   911 ;; Auto vars:     Size  Location     Type
   912 ;;		None
   913 ;; Return value:  Size  Location     Type
   914 ;;		None               void
   915 ;; Registers used:
   916 ;;		wreg, status,2, cstack
   917 ;; Tracked objects:
   918 ;;		On entry : 0/0
   919 ;;		On exit  : 0/0
   920 ;;		Unchanged: 0/0
   921 ;; Data sizes:     COMRAM   BANK0   BANK1   BANK2   BANK3   BANK4   BANK5   BANK6   BANK7   BANK8   BANK9  BANK10  BANK1
      +1  BANK12  BANK13  BANK14
   922 ;;      Params:         0       0       0       0       0       0       0       0       0       0       0       0       
      +0       0       0       0
   923 ;;      Locals:         0       0       0       0       0       0       0       0       0       0       0       0       
      +0       0       0       0
   924 ;;      Temps:          0       0       0       0       0       0       0       0       0       0       0       0       
      +0       0       0       0
   925 ;;      Totals:         0       0       0       0       0       0       0       0       0       0       0       0       
      +0       0       0       0
   926 ;;Total ram usage:        0 bytes
   927 ;; Hardware stack levels used:    1
   928 ;; Hardware stack levels required when called:    2
   929 ;; This function calls:
   930 ;;		_IrcaInit
   931 ;;		_Sht11Init
   932 ;; This function is called by:
   933 ;;		_main
   934 ;; This function uses a non-reentrant model
   935 ;;
   936                           
   937                           	psect	text4
   938  0000'                    __ptext4:
   939                           	opt stack 0
   940  0000'                    _SensorProxyInit:
   941                           	opt stack 28
   942                           
   943                           ;sensor_proxy.c: 17: Sht11Init();
   944                           
   945                           ;incstack = 0
   946  0000' EC00' F000'        	call	_Sht11Init	;wreg free
   947                           
   948                           ;sensor_proxy.c: 18: IrcaInit();
   949  0004' EC00' F000'        	call	_IrcaInit	;wreg free
   950  0008' 0012               	return		;funcret
   951  000A'                    __end_of_SensorProxyInit:
   952                           	opt stack 0
   953                           tblptru	equ	0xFF8
   954                           tblptrh	equ	0xFF7
   955                           tblptrl	equ	0xFF6
   956                           tablat	equ	0xFF5
   957                           intcon	equ	0xFF2
   958                           intcon2	equ	0xFF1
   959                           postinc0	equ	0xFEE
   960                           wreg	equ	0xFE8
   961                           postdec1	equ	0xFE5
   962                           fsr1l	equ	0xFE1
   963                           
   964 ;; *************** function _Sht11Init *****************
   965 ;; Defined at:
   966 ;;		line 32 in file "sht/sht.c"
   967 ;; Parameters:    Size  Location     Type
   968 ;;		None
   969 ;; Auto vars:     Size  Location     Type
   970 ;;		None
   971 ;; Return value:  Size  Location     Type
   972 ;;		None               void
   973 ;; Registers used:
   974 ;;		None
   975 ;; Tracked objects:
   976 ;;		On entry : 0/0
   977 ;;		On exit  : 0/0
   978 ;;		Unchanged: 0/0
   979 ;; Data sizes:     COMRAM   BANK0   BANK1   BANK2   BANK3   BANK4   BANK5   BANK6   BANK7   BANK8   BANK9  BANK10  BANK1
      +1  BANK12  BANK13  BANK14
   980 ;;      Params:         0       0       0       0       0       0       0       0       0       0       0       0       
      +0       0       0       0
   981 ;;      Locals:         0       0       0       0       0       0       0       0       0       0       0       0       
      +0       0       0       0
   982 ;;      Temps:          0       0       0       0       0       0       0       0       0       0       0       0       
      +0       0       0       0
   983 ;;      Totals:         0       0       0       0       0       0       0       0       0       0       0       0       
      +0       0       0       0
   984 ;;Total ram usage:        0 bytes
   985 ;; Hardware stack levels used:    1
   986 ;; This function calls:
   987 ;;		Nothing
   988 ;; This function is called by:
   989 ;;		_SensorProxyInit
   990 ;; This function uses a non-reentrant model
   991 ;;
   992                           
   993                           	psect	text5
   994  0000'                    __ptext5:
   995                           	opt stack 0
   996  0000'                    _Sht11Init:
   997                           	opt stack 29
   998                           
   999                           ;sht.c: 33: ANCON0bits.PCFG0 = 1;
  1000                           
  1001                           ;incstack = 0
  1002  0000' 010F               	movlb	15	; () banked
  1003  0002' 8148               	bsf	72,0,b	;volatile
  1004                           
  1005                           ;sht.c: 34: ANCON0bits.PCFG1 = 1;
  1006  0004' 010F               	movlb	15	; () banked
  1007  0006' 8348               	bsf	72,1,b	;volatile
  1008                           
  1009                           ;sht.c: 35: LATAbits.LATA0 = 1;
  1010  0008' 8089               	bsf	3977,0,c	;volatile
  1011                           
  1012                           ;sht.c: 36: TRISAbits.TRISA1 = 0;
  1013  000A' 9292               	bcf	3986,1,c	;volatile
  1014                           
  1015                           ;sht.c: 37: TRISAbits.TRISA0 = 0;
  1016  000C' 9092               	bcf	3986,0,c	;volatile
  1017                           
  1018                           ;sht.c: 38: LATAbits.LATA1 = 0;
  1019  000E' 9289               	bcf	3977,1,c	;volatile
  1020                           
  1021                           ; BSR set to: 15
  1022  0010' 0012               	return		;funcret
  1023  0012'                    __end_of_Sht11Init:
  1024                           	opt stack 0
  1025                           tblptru	equ	0xFF8
  1026                           tblptrh	equ	0xFF7
  1027                           tblptrl	equ	0xFF6
  1028                           tablat	equ	0xFF5
  1029                           intcon	equ	0xFF2
  1030                           intcon2	equ	0xFF1
  1031                           postinc0	equ	0xFEE
  1032                           wreg	equ	0xFE8
  1033                           postdec1	equ	0xFE5
  1034                           fsr1l	equ	0xFE1
  1035                           
  1036 ;; *************** function _IrcaInit *****************
  1037 ;; Defined at:
  1038 ;;		line 9 in file "irca/irca.c"
  1039 ;; Parameters:    Size  Location     Type
  1040 ;;		None
  1041 ;; Auto vars:     Size  Location     Type
  1042 ;;		None
  1043 ;; Return value:  Size  Location     Type
  1044 ;;		None               void
  1045 ;; Registers used:
  1046 ;;		wreg, status,2, cstack
  1047 ;; Tracked objects:
  1048 ;;		On entry : 0/0
  1049 ;;		On exit  : 0/0
  1050 ;;		Unchanged: 0/0
  1051 ;; Data sizes:     COMRAM   BANK0   BANK1   BANK2   BANK3   BANK4   BANK5   BANK6   BANK7   BANK8   BANK9  BANK10  BANK1
      +1  BANK12  BANK13  BANK14
  1052 ;;      Params:         0       0       0       0       0       0       0       0       0       0       0       0       
      +0       0       0       0
  1053 ;;      Locals:         0       0       0       0       0       0       0       0       0       0       0       0       
      +0       0       0       0
  1054 ;;      Temps:          0       0       0       0       0       0       0       0       0       0       0       0       
      +0       0       0       0
  1055 ;;      Totals:         0       0       0       0       0       0       0       0       0       0       0       0       
      +0       0       0       0
  1056 ;;Total ram usage:        0 bytes
  1057 ;; Hardware stack levels used:    1
  1058 ;; Hardware stack levels required when called:    1
  1059 ;; This function calls:
  1060 ;;		_AdcInit
  1061 ;;		_Irca1InitIO
  1062 ;; This function is called by:
  1063 ;;		_SensorProxyInit
  1064 ;; This function uses a non-reentrant model
  1065 ;;
  1066                           
  1067                           	psect	text6
  1068  0000'                    __ptext6:
  1069                           	opt stack 0
  1070  0000'                    _IrcaInit:
  1071                           	opt stack 28
  1072                           
  1073                           ;irca.c: 10: AdcInit();
  1074                           
  1075                           ; BSR set to: 15
  1076                           ;incstack = 0
  1077  0000' EC00' F000'        	call	_AdcInit	;wreg free
  1078                           
  1079                           ;irca.c: 11: Irca1InitIO();
  1080  0004' EC00' F000'        	call	_Irca1InitIO	;wreg free
  1081  0008' 0012               	return		;funcret
  1082  000A'                    __end_of_IrcaInit:
  1083                           	opt stack 0
  1084                           tblptru	equ	0xFF8
  1085                           tblptrh	equ	0xFF7
  1086                           tblptrl	equ	0xFF6
  1087                           tablat	equ	0xFF5
  1088                           intcon	equ	0xFF2
  1089                           intcon2	equ	0xFF1
  1090                           postinc0	equ	0xFEE
  1091                           wreg	equ	0xFE8
  1092                           postdec1	equ	0xFE5
  1093                           fsr1l	equ	0xFE1
  1094                           
  1095 ;; *************** function _Irca1InitIO *****************
  1096 ;; Defined at:
  1097 ;;		line 21 in file "irca/irca.c"
  1098 ;; Parameters:    Size  Location     Type
  1099 ;;		None
  1100 ;; Auto vars:     Size  Location     Type
  1101 ;;		None
  1102 ;; Return value:  Size  Location     Type
  1103 ;;		None               void
  1104 ;; Registers used:
  1105 ;;		None
  1106 ;; Tracked objects:
  1107 ;;		On entry : 0/0
  1108 ;;		On exit  : 0/0
  1109 ;;		Unchanged: 0/0
  1110 ;; Data sizes:     COMRAM   BANK0   BANK1   BANK2   BANK3   BANK4   BANK5   BANK6   BANK7   BANK8   BANK9  BANK10  BANK1
      +1  BANK12  BANK13  BANK14
  1111 ;;      Params:         0       0       0       0       0       0       0       0       0       0       0       0       
      +0       0       0       0
  1112 ;;      Locals:         0       0       0       0       0       0       0       0       0       0       0       0       
      +0       0       0       0
  1113 ;;      Temps:          0       0       0       0       0       0       0       0       0       0       0       0       
      +0       0       0       0
  1114 ;;      Totals:         0       0       0       0       0       0       0       0       0       0       0       0       
      +0       0       0       0
  1115 ;;Total ram usage:        0 bytes
  1116 ;; Hardware stack levels used:    1
  1117 ;; This function calls:
  1118 ;;		Nothing
  1119 ;; This function is called by:
  1120 ;;		_IrcaInit
  1121 ;; This function uses a non-reentrant model
  1122 ;;
  1123                           
  1124                           	psect	text7
  1125  0000'                    __ptext7:
  1126                           	opt stack 0
  1127  0000'                    _Irca1InitIO:
  1128                           	opt stack 28
  1129                           
  1130                           ;irca.c: 22: ANCON1bits.PCFG10 = 0;
  1131                           
  1132                           ;incstack = 0
  1133  0000' 010F               	movlb	15	; () banked
  1134  0002' 9549               	bcf	73,2,b	;volatile
  1135                           
  1136                           ;irca.c: 23: TRISBbits.TRISB1 = 1;
  1137  0004' 8293               	bsf	3987,1,c	;volatile
  1138                           
  1139                           ;irca.c: 24: ANCON1bits.PCFG11 = 0;
  1140  0006' 010F               	movlb	15	; () banked
  1141  0008' 9749               	bcf	73,3,b	;volatile
  1142                           
  1143                           ;irca.c: 25: TRISBbits.TRISB1 = 1;
  1144  000A' 8293               	bsf	3987,1,c	;volatile
  1145                           
  1146                           ;irca.c: 26: ANCON1bits.PCFG9 = 0;
  1147  000C' 010F               	movlb	15	; () banked
  1148  000E' 9349               	bcf	73,1,b	;volatile
  1149                           
  1150                           ;irca.c: 27: TRISBbits.TRISB3 = 1;
  1151  0010' 8693               	bsf	3987,3,c	;volatile
  1152                           
  1153                           ;irca.c: 28: TRISCbits.TRISC0 = 0;
  1154  0012' 9094               	bcf	3988,0,c	;volatile
  1155                           
  1156                           ;irca.c: 29: LATCbits.LATC0 = 0;
  1157  0014' 908B               	bcf	3979,0,c	;volatile
  1158                           
  1159                           ; BSR set to: 15
  1160  0016' 0012               	return		;funcret
  1161  0018'                    __end_of_Irca1InitIO:
  1162                           	opt stack 0
  1163                           tblptru	equ	0xFF8
  1164                           tblptrh	equ	0xFF7
  1165                           tblptrl	equ	0xFF6
  1166                           tablat	equ	0xFF5
  1167                           intcon	equ	0xFF2
  1168                           intcon2	equ	0xFF1
  1169                           postinc0	equ	0xFEE
  1170                           wreg	equ	0xFE8
  1171                           postdec1	equ	0xFE5
  1172                           fsr1l	equ	0xFE1
  1173                           
  1174 ;; *************** function _AdcInit *****************
  1175 ;; Defined at:
  1176 ;;		line 14 in file "adc/averaged_adc.c"
  1177 ;; Parameters:    Size  Location     Type
  1178 ;;		None
  1179 ;; Auto vars:     Size  Location     Type
  1180 ;;		None
  1181 ;; Return value:  Size  Location     Type
  1182 ;;		None               void
  1183 ;; Registers used:
  1184 ;;		wreg, status,2
  1185 ;; Tracked objects:
  1186 ;;		On entry : 0/0
  1187 ;;		On exit  : 0/0
  1188 ;;		Unchanged: 0/0
  1189 ;; Data sizes:     COMRAM   BANK0   BANK1   BANK2   BANK3   BANK4   BANK5   BANK6   BANK7   BANK8   BANK9  BANK10  BANK1
      +1  BANK12  BANK13  BANK14
  1190 ;;      Params:         0       0       0       0       0       0       0       0       0       0       0       0       
      +0       0       0       0
  1191 ;;      Locals:         0       0       0       0       0       0       0       0       0       0       0       0       
      +0       0       0       0
  1192 ;;      Temps:          0       0       0       0       0       0       0       0       0       0       0       0       
      +0       0       0       0
  1193 ;;      Totals:         0       0       0       0       0       0       0       0       0       0       0       0       
      +0       0       0       0
  1194 ;;Total ram usage:        0 bytes
  1195 ;; Hardware stack levels used:    1
  1196 ;; This function calls:
  1197 ;;		Nothing
  1198 ;; This function is called by:
  1199 ;;		_IrcaInit
  1200 ;;		_Co2D1Init
  1201 ;; This function uses a non-reentrant model
  1202 ;;
  1203                           
  1204                           	psect	text8
  1205  0000'                    __ptext8:
  1206                           	opt stack 0
  1207  0000'                    _AdcInit:
  1208                           	opt stack 28
  1209                           
  1210                           ;averaged_adc.c: 15: ADCON0bits.VCFG = 0;
  1211                           
  1212                           ; BSR set to: 15
  1213                           ;incstack = 0
  1214  0000' 0E3F               	movlw	-193
  1215  0002' 16C2               	andwf	4034,f,c	;volatile
  1216                           
  1217                           ;averaged_adc.c: 16: ADCON1bits.ADFM = 1;
  1218  0004' 8EC1               	bsf	4033,7,c	;volatile
  1219                           
  1220                           ;averaged_adc.c: 17: ADCON1bits.ACQT = 0;
  1221  0006' 96C1               	bcf	4033,3,c	;volatile
  1222  0008' 98C1               	bcf	4033,4,c	;volatile
  1223  000A' 9AC1               	bcf	4033,5,c	;volatile
  1224                           
  1225                           ;averaged_adc.c: 18: ADCON1bits.ADCS = 0;
  1226  000C' 90C1               	bcf	4033,0,c	;volatile
  1227  000E' 92C1               	bcf	4033,1,c	;volatile
  1228  0010' 94C1               	bcf	4033,2,c	;volatile
  1229                           
  1230                           ;averaged_adc.c: 19: ANCON1bits.VBGEN = 0;
  1231  0012' 010F               	movlb	15	; () banked
  1232  0014' 9F49               	bcf	73,7,b	;volatile
  1233                           
  1234                           ; BSR set to: 15
  1235                           ;averaged_adc.c: 20: ANCON1bits.VBG2EN = 0;
  1236  0016' 010F               	movlb	15	; () banked
  1237  0018' 9D49               	bcf	73,6,b	;volatile
  1238                           
  1239                           ; BSR set to: 15
  1240                           ;averaged_adc.c: 21: ADCON0bits.ADON = 0;
  1241  001A' 90C2               	bcf	4034,0,c	;volatile
  1242                           
  1243                           ; BSR set to: 15
  1244  001C' 0012               	return		;funcret
  1245  001E'                    __end_of_AdcInit:
  1246                           	opt stack 0
  1247                           tblptru	equ	0xFF8
  1248                           tblptrh	equ	0xFF7
  1249                           tblptrl	equ	0xFF6
  1250                           tablat	equ	0xFF5
  1251                           intcon	equ	0xFF2
  1252                           intcon2	equ	0xFF1
  1253                           postinc0	equ	0xFEE
  1254                           wreg	equ	0xFE8
  1255                           postdec1	equ	0xFE5
  1256                           fsr1l	equ	0xFE1
  1257                           
  1258 ;; *************** function _PowerDeepSleep *****************
  1259 ;; Defined at:
  1260 ;;		line 255 in file "power.c"
  1261 ;; Parameters:    Size  Location     Type
  1262 ;;		None
  1263 ;; Auto vars:     Size  Location     Type
  1264 ;;		None
  1265 ;; Return value:  Size  Location     Type
  1266 ;;		None               void
  1267 ;; Registers used:
  1268 ;;		wreg, status,2
  1269 ;; Tracked objects:
  1270 ;;		On entry : 0/0
  1271 ;;		On exit  : 0/0
  1272 ;;		Unchanged: 0/0
  1273 ;; Data sizes:     COMRAM   BANK0   BANK1   BANK2   BANK3   BANK4   BANK5   BANK6   BANK7   BANK8   BANK9  BANK10  BANK1
      +1  BANK12  BANK13  BANK14
  1274 ;;      Params:         0       0       0       0       0       0       0       0       0       0       0       0       
      +0       0       0       0
  1275 ;;      Locals:         0       0       0       0       0       0       0       0       0       0       0       0       
      +0       0       0       0
  1276 ;;      Temps:          0       0       0       0       0       0       0       0       0       0       0       0       
      +0       0       0       0
  1277 ;;      Totals:         0       0       0       0       0       0       0       0       0       0       0       0       
      +0       0       0       0
  1278 ;;Total ram usage:        0 bytes
  1279 ;; Hardware stack levels used:    1
  1280 ;; This function calls:
  1281 ;;		Nothing
  1282 ;; This function is called by:
  1283 ;;		_main
  1284 ;; This function uses a non-reentrant model
  1285 ;;
  1286                           
  1287                           	psect	text9
  1288  0000'                    __ptext9:
  1289                           	opt stack 0
  1290  0000'                    _PowerDeepSleep:
  1291                           	opt stack 30
  1292                           
  1293                           ;power.c: 256: DSWAKEL = 0;
  1294                           
  1295                           ; BSR set to: 15
  1296                           ;incstack = 0
  1297  0000' 0E00               	movlw	0
  1298  0002' 010F               	movlb	15	; () banked
  1299  0004' 6F4A               	movwf	74,b	;volatile
  1300                           
  1301                           ;power.c: 257: DSWAKEH = 0;
  1302  0006' 0E00               	movlw	0
  1303  0008' 010F               	movlb	15	; () banked
  1304  000A' 6F4B               	movwf	75,b	;volatile
  1305                           
  1306                           ; BSR set to: 15
  1307                           ;power.c: 259: RCONbits.PD = 0;
  1308  000C' 94D0               	bcf	4048,2,c	;volatile
  1309                           
  1310                           ; BSR set to: 15
  1311                           ;power.c: 260: DSCONLbits.ULPWDIS = 0;
  1312  000E' 010F               	movlb	15	; () banked
  1313  0010' 954C               	bcf	76,2,b	;volatile
  1314                           
  1315                           ; BSR set to: 15
  1316                           ;power.c: 261: DSCONLbits.DSBOR = 0;
  1317  0012' 010F               	movlb	15	; () banked
  1318  0014' 934C               	bcf	76,1,b	;volatile
  1319                           
  1320                           ; BSR set to: 15
  1321                           ;power.c: 262: DSCONHbits.DSULPEN = 0;
  1322  0016' 010F               	movlb	15	; () banked
  1323  0018' 934D               	bcf	77,1,b	;volatile
  1324                           
  1325                           ; BSR set to: 15
  1326                           ;power.c: 263: DSCONHbits.RTCWDIS = 1;
  1327  001A' 010F               	movlb	15	; () banked
  1328  001C' 814D               	bsf	77,0,b	;volatile
  1329                           
  1330                           ; BSR set to: 15
  1331                           ;power.c: 264: WDTCONbits.DS = 0;
  1332  001E' 96C0               	bcf	4032,3,c	;volatile
  1333                           
  1334                           ; BSR set to: 15
  1335                           ;power.c: 265: INTCONbits.GIE = 0;
  1336  0020' 9EF2               	bcf	intcon,7,c	;volatile
  1337                           
  1338                           ; BSR set to: 15
  1339                           ;power.c: 266: WDTCONbits.SWDTEN = 0;
  1340  0022' 90C0               	bcf	4032,0,c	;volatile
  1341                           
  1342                           ; BSR set to: 15
  1343                           ;power.c: 267: WDTCONbits.REGSLP = 1;
  1344  0024' 8EC0               	bsf	4032,7,c	;volatile
  1345                           
  1346                           ; BSR set to: 15
  1347                           ;power.c: 268: OSCCONbits.IDLEN = 0;
  1348  0026' 9ED3               	bcf	4051,7,c	;volatile
  1349                           
  1350                           ; BSR set to: 15
  1351                           ;power.c: 269: DSCONHbits.DSEN = 1;
  1352  0028' 010F               	movlb	15	; () banked
  1353  002A' 8F4D               	bsf	77,7,b	;volatile
  1354  002C' 0003               	sleep		;# 
  1355  002E' 0012               	return		;funcret
  1356  0030'                    __end_of_PowerDeepSleep:
  1357                           	opt stack 0
  1358                           tblptru	equ	0xFF8
  1359                           tblptrh	equ	0xFF7
  1360                           tblptrl	equ	0xFF6
  1361                           tablat	equ	0xFF5
  1362                           intcon	equ	0xFF2
  1363                           intcon2	equ	0xFF1
  1364                           postinc0	equ	0xFEE
  1365                           wreg	equ	0xFE8
  1366                           postdec1	equ	0xFE5
  1367                           fsr1l	equ	0xFE1
  1368                           
  1369 ;; *************** function _OnWakeUp *****************
  1370 ;; Defined at:
  1371 ;;		line 28 in file "opController.c"
  1372 ;; Parameters:    Size  Location     Type
  1373 ;;		None
  1374 ;; Auto vars:     Size  Location     Type
  1375 ;;		None
  1376 ;; Return value:  Size  Location     Type
  1377 ;;		None               void
  1378 ;; Registers used:
  1379 ;;		wreg, fsr1l, fsr1h, fsr2l, fsr2h, status,2, status,0, tblptrl, tblptrh, tblptru, prodl, prodh, cstack
  1380 ;; Tracked objects:
  1381 ;;		On entry : 0/0
  1382 ;;		On exit  : 0/0
  1383 ;;		Unchanged: 0/0
  1384 ;; Data sizes:     COMRAM   BANK0   BANK1   BANK2   BANK3   BANK4   BANK5   BANK6   BANK7   BANK8   BANK9  BANK10  BANK1
      +1  BANK12  BANK13  BANK14
  1385 ;;      Params:         0       0       0       0       0       0       0       0       0       0       0       0       
      +0       0       0       0
  1386 ;;      Locals:         0       0       0       0       0       0       0       0       0       0       0       0       
      +0       0       0       0
  1387 ;;      Temps:          0       0       0       0       0       0       0       0       0       0       0       0       
      +0       0       0       0
  1388 ;;      Totals:         0       0       0       0       0       0       0       0       0       0       0       0       
      +0       0       0       0
  1389 ;;Total ram usage:        0 bytes
  1390 ;; Hardware stack levels used:    1
  1391 ;; Hardware stack levels required when called:    5
  1392 ;; This function calls:
  1393 ;;		_ClearDSWakeUpFlags
  1394 ;;		_ClearNetworkInterrupt
  1395 ;;		_MeasureSensors
  1396 ;;		_SendMeasures
  1397 ;; This function is called by:
  1398 ;;		_main
  1399 ;; This function uses a non-reentrant model
  1400 ;;
  1401                           
  1402                           	psect	text10
  1403  0000'                    __ptext10:
  1404                           	opt stack 0
  1405  0000'                    _OnWakeUp:
  1406                           	opt stack 25
  1407                           
  1408                           ;opController.c: 30: ClearDSWakeUpFlags();
  1409                           
  1410                           ;incstack = 0
  1411  0000' EC00' F000'        	call	_ClearDSWakeUpFlags	;wreg free
  1412                           
  1413                           ;opController.c: 32: ClearNetworkInterrupt();
  1414  0004' EC00' F000'        	call	_ClearNetworkInterrupt	;wreg free
  1415                           
  1416                           ;opController.c: 34: MeasureSensors();
  1417  0008' EC00' F000'        	call	_MeasureSensors	;wreg free
  1418                           
  1419                           ;opController.c: 36: SendMeasures();
  1420  000C' EC00' F000'        	call	_SendMeasures	;wreg free
  1421  0010' 0012               	return		;funcret
  1422  0012'                    __end_of_OnWakeUp:
  1423                           	opt stack 0
  1424                           tblptru	equ	0xFF8
  1425                           tblptrh	equ	0xFF7
  1426                           tblptrl	equ	0xFF6
  1427                           tablat	equ	0xFF5
  1428                           intcon	equ	0xFF2
  1429                           intcon2	equ	0xFF1
  1430                           postinc0	equ	0xFEE
  1431                           wreg	equ	0xFE8
  1432                           postdec1	equ	0xFE5
  1433                           fsr1l	equ	0xFE1
  1434                           
  1435 ;; *************** function _SendMeasures *****************
  1436 ;; Defined at:
  1437 ;;		line 24 in file "network_proxy.c"
  1438 ;; Parameters:    Size  Location     Type
  1439 ;;		None
  1440 ;; Auto vars:     Size  Location     Type
  1441 ;;  packet        125    0[BANK1 ] struct XBeePacket
  1442 ;;  payload       101  125[BANK1 ] struct Payload
  1443 ;; Return value:  Size  Location     Type
  1444 ;;		None               void
  1445 ;; Registers used:
  1446 ;;		wreg, fsr1l, fsr1h, fsr2l, fsr2h, status,2, status,0, tblptrl, tblptrh, tblptru, prodl, prodh, cstack
  1447 ;; Tracked objects:
  1448 ;;		On entry : 0/0
  1449 ;;		On exit  : 0/0
  1450 ;;		Unchanged: 0/0
  1451 ;; Data sizes:     COMRAM   BANK0   BANK1   BANK2   BANK3   BANK4   BANK5   BANK6   BANK7   BANK8   BANK9  BANK10  BANK1
      +1  BANK12  BANK13  BANK14
  1452 ;;      Params:         0       0       0       0       0       0       0       0       0       0       0       0       
      +0       0       0       0
  1453 ;;      Locals:         0       0     226       0       0       0       0       0       0       0       0       0       
      +0       0       0       0
  1454 ;;      Temps:          0       0       0       0       0       0       0       0       0       0       0       0       
      +0       0       0       0
  1455 ;;      Totals:         0       0     226       0       0       0       0       0       0       0       0       0       
      +0       0       0       0
  1456 ;;Total ram usage:      226 bytes
  1457 ;; Hardware stack levels used:    1
  1458 ;; Hardware stack levels required when called:    2
  1459 ;; This function calls:
  1460 ;;		_PayloadInit
  1461 ;;		_PayloadPutByte
  1462 ;;		_PayloadPutString
  1463 ;;		_PayloadPutWord
  1464 ;;		_XBeeCreatePacket
  1465 ;;		_XBeeCreateTransmitRequestPacket
  1466 ;;		_XBeeSendPacket
  1467 ;; This function is called by:
  1468 ;;		_OnWakeUp
  1469 ;; This function uses a non-reentrant model
  1470 ;;
  1471                           
  1472                           	psect	text11
  1473  0000'                    __ptext11:
  1474                           	opt stack 0
  1475  0000'                    _SendMeasures:
  1476                           	opt stack 27
  1477                           
  1478                           ;network_proxy.c: 25: XBeePacket packet;
  1479                           ;network_proxy.c: 26: Payload payload;
  1480                           ;network_proxy.c: 27: XBeeCreatePacket(&packet);
  1481                           
  1482                           ;incstack = 0
  1483  0000' 0E00'              	movlw	low SendMeasures@packet
  1484  0002' 6E08'              	movwf	XBeeCreatePacket@packet,c
  1485  0004' 0E00'              	movlw	high SendMeasures@packet
  1486  0006' 6E09'              	movwf	XBeeCreatePacket@packet+1,c
  1487  0008' EC00' F000'        	call	_XBeeCreatePacket	;wreg free
  1488                           
  1489                           ;network_proxy.c: 28: PayloadInit(&payload);
  1490  000C' 0E00'              	movlw	low SendMeasures@payload
  1491  000E' 6E00'              	movwf	PayloadInit@payload,c
  1492  0010' 0E00'              	movlw	high SendMeasures@payload
  1493  0012' 6E01'              	movwf	PayloadInit@payload+1,c
  1494  0014' EC00' F000'        	call	_PayloadInit	;wreg free
  1495                           
  1496                           ;network_proxy.c: 29: PayloadPutByte(&payload, 1);
  1497  0018' 0E00'              	movlw	low SendMeasures@payload
  1498  001A' 6E00'              	movwf	PayloadPutByte@payload,c
  1499  001C' 0E00'              	movlw	high SendMeasures@payload
  1500  001E' 6E01'              	movwf	PayloadPutByte@payload+1,c
  1501  0020' 0E01               	movlw	1
  1502  0022' 6E02'              	movwf	PayloadPutByte@element,c
  1503  0024' EC00' F000'        	call	_PayloadPutByte	;wreg free
  1504                           
  1505                           ;network_proxy.c: 30: PayloadPutByte(&payload, sizeof(SENSORS));
  1506  0028' 0E00'              	movlw	low SendMeasures@payload
  1507  002A' 6E00'              	movwf	PayloadPutByte@payload,c
  1508  002C' 0E00'              	movlw	high SendMeasures@payload
  1509  002E' 6E01'              	movwf	PayloadPutByte@payload+1,c
  1510  0030' 0E02               	movlw	2
  1511  0032' 6E02'              	movwf	PayloadPutByte@element,c
  1512  0034' EC00' F000'        	call	_PayloadPutByte	;wreg free
  1513                           
  1514                           ;network_proxy.c: 31: PayloadPutString(&payload, SENSORS);
  1515  0038' 0E00'              	movlw	low SendMeasures@payload
  1516  003A' 6E08'              	movwf	PayloadPutString@payload,c
  1517  003C' 0E00'              	movlw	high SendMeasures@payload
  1518  003E' 6E09'              	movwf	PayloadPutString@payload+1,c
  1519  0040' 0E00'              	movlw	low _SENSORS
  1520  0042' 6E0A'              	movwf	PayloadPutString@string,c
  1521  0044' 0E00'              	movlw	high _SENSORS
  1522  0046' 6E0B'              	movwf	PayloadPutString@string+1,c
  1523  0048' EC00' F000'        	call	_PayloadPutString	;wreg free
  1524                           
  1525                           ;network_proxy.c: 32: PayloadPutWord(&payload, shtData.temperature.i);
  1526  004C' 0E00'              	movlw	low SendMeasures@payload
  1527  004E' 6E00'              	movwf	PayloadPutWord@payload,c
  1528  0050' 0E00'              	movlw	high SendMeasures@payload
  1529  0052' 6E01'              	movwf	PayloadPutWord@payload+1,c
  1530  0054' C007' F002'        	movff	_shtData,PayloadPutWord@element
  1531  0058' C008' F003'        	movff	_shtData+1,PayloadPutWord@element+1
  1532  005C' EC00' F000'        	call	_PayloadPutWord	;wreg free
  1533                           
  1534                           ;network_proxy.c: 33: PayloadPutWord(&payload, shtData.humidity.i);
  1535  0060' 0E00'              	movlw	low SendMeasures@payload
  1536  0062' 6E00'              	movwf	PayloadPutWord@payload,c
  1537  0064' 0E00'              	movlw	high SendMeasures@payload
  1538  0066' 6E01'              	movwf	PayloadPutWord@payload+1,c
  1539  0068' C009' F002'        	movff	_shtData+2,PayloadPutWord@element
  1540  006C' C00A' F003'        	movff	_shtData+3,PayloadPutWord@element+1
  1541  0070' EC00' F000'        	call	_PayloadPutWord	;wreg free
  1542                           
  1543                           ;network_proxy.c: 34: PayloadPutWord(&payload, ircAData.out);
  1544  0074' 0E00'              	movlw	low SendMeasures@payload
  1545  0076' 6E00'              	movwf	PayloadPutWord@payload,c
  1546  0078' 0E00'              	movlw	high SendMeasures@payload
  1547  007A' 6E01'              	movwf	PayloadPutWord@payload+1,c
  1548  007C' C000' F002'        	movff	_ircAData,PayloadPutWord@element
  1549  0080' C001' F003'        	movff	_ircAData+1,PayloadPutWord@element+1
  1550  0084' EC00' F000'        	call	_PayloadPutWord	;wreg free
  1551                           
  1552                           ;network_proxy.c: 35: PayloadPutWord(&payload, ircAData.ref);
  1553  0088' 0E00'              	movlw	low SendMeasures@payload
  1554  008A' 6E00'              	movwf	PayloadPutWord@payload,c
  1555  008C' 0E00'              	movlw	high SendMeasures@payload
  1556  008E' 6E01'              	movwf	PayloadPutWord@payload+1,c
  1557  0090' C004' F002'        	movff	_ircAData+4,PayloadPutWord@element
  1558  0094' C005' F003'        	movff	_ircAData+5,PayloadPutWord@element+1
  1559  0098' EC00' F000'        	call	_PayloadPutWord	;wreg free
  1560                           
  1561                           ;network_proxy.c: 36: PayloadPutWord(&payload, ircAData.tmp);
  1562  009C' 0E00'              	movlw	low SendMeasures@payload
  1563  009E' 6E00'              	movwf	PayloadPutWord@payload,c
  1564  00A0' 0E00'              	movlw	high SendMeasures@payload
  1565  00A2' 6E01'              	movwf	PayloadPutWord@payload+1,c
  1566  00A4' C002' F002'        	movff	_ircAData+2,PayloadPutWord@element
  1567  00A8' C003' F003'        	movff	_ircAData+3,PayloadPutWord@element+1
  1568  00AC' EC00' F000'        	call	_PayloadPutWord	;wreg free
  1569                           
  1570                           ;network_proxy.c: 37: XBeeCreateTransmitRequestPacket(&packet, 0x06, (uint8_t*) COORDINA
      +                          TOR_ADDRESS,
  1571                           ;network_proxy.c: 38: BROADCAST_RADIUS, TRANSMIT_OPTIONS, payload.data, payload.size);
  1572  00B0' 0E00'              	movlw	low SendMeasures@packet
  1573  00B2' 6E00'              	movwf	XBeeCreateTransmitRequestPacket@packet,c
  1574  00B4' 0E00'              	movlw	high SendMeasures@packet
  1575  00B6' 6E01'              	movwf	XBeeCreateTransmitRequestPacket@packet+1,c
  1576  00B8' 0E06               	movlw	6
  1577  00BA' 6E02'              	movwf	XBeeCreateTransmitRequestPacket@frameId,c
  1578  00BC' 0E00'              	movlw	low _COORDINATOR_ADDRESS
  1579  00BE' 6E03'              	movwf	XBeeCreateTransmitRequestPacket@destinationAddress,c
  1580  00C0' 0E00'              	movlw	high _COORDINATOR_ADDRESS
  1581  00C2' 6E04'              	movwf	XBeeCreateTransmitRequestPacket@destinationAddress+1,c
  1582  00C4' 0E00'              	movlw	low _BROADCAST_RADIUS
  1583  00C6' 6EF6               	movwf	tblptrl,c
  1584  00C8'                    	if	1	;There is more than 1 active tblptr byte
  1585  00C8' 0E00'              	movlw	high _BROADCAST_RADIUS
  1586  00CA' 6EF7               	movwf	tblptrh,c
  1587  00CC'                    	endif
  1588  00CC'                    	if	0	;There are less than 3 active tblptr bytes
  1589  00CC'                    	endif
  1590  00CC' 0008               	tblrd		*
  1591  00CE' CFF5 F005'         	movff	tablat,XBeeCreateTransmitRequestPacket@radius
  1592  00D2' 0E00'              	movlw	low _TRANSMIT_OPTIONS
  1593  00D4' 6EF6               	movwf	tblptrl,c
  1594  00D6'                    	if	1	;There is more than 1 active tblptr byte
  1595  00D6' 0E00'              	movlw	high _TRANSMIT_OPTIONS
  1596  00D8' 6EF7               	movwf	tblptrh,c
  1597  00DA'                    	endif
  1598  00DA'                    	if	0	;There are less than 3 active tblptr bytes
  1599  00DA'                    	endif
  1600  00DA' 0008               	tblrd		*
  1601  00DC' CFF5 F006'         	movff	tablat,XBeeCreateTransmitRequestPacket@options
  1602  00E0' 0E00'              	movlw	low SendMeasures@payload
  1603  00E2' 6E07'              	movwf	XBeeCreateTransmitRequestPacket@payload,c
  1604  00E4' 0E00'              	movlw	high SendMeasures@payload
  1605  00E6' 6E08'              	movwf	XBeeCreateTransmitRequestPacket@payload+1,c
  1606  00E8' C0E1' F009'        	movff	SendMeasures@payload+100,XBeeCreateTransmitRequestPacket@dataLength
  1607  00EC' EC00' F000'        	call	_XBeeCreateTransmitRequestPacket	;wreg free
  1608                           
  1609                           ;network_proxy.c: 39: XBeeSendPacket(&packet);
  1610  00F0' 0E00'              	movlw	low SendMeasures@packet
  1611  00F2' 6E01'              	movwf	XBeeSendPacket@packet,c
  1612  00F4' 0E00'              	movlw	high SendMeasures@packet
  1613  00F6' 6E02'              	movwf	XBeeSendPacket@packet+1,c
  1614  00F8' EC00' F000'        	call	_XBeeSendPacket	;wreg free
  1615  00FC' 0012               	return		;funcret
  1616  00FE'                    __end_of_SendMeasures:
  1617                           	opt stack 0
  1618                           tblptru	equ	0xFF8
  1619                           tblptrh	equ	0xFF7
  1620                           tblptrl	equ	0xFF6
  1621                           tablat	equ	0xFF5
  1622                           intcon	equ	0xFF2
  1623                           intcon2	equ	0xFF1
  1624                           postinc0	equ	0xFEE
  1625                           wreg	equ	0xFE8
  1626                           postdec1	equ	0xFE5
  1627                           fsr1l	equ	0xFE1
  1628                           
  1629 ;; *************** function _XBeeCreateTransmitRequestPacket *****************
  1630 ;; Defined at:
  1631 ;;		line 22 in file "xbee/digi_transmit_request.c"
  1632 ;; Parameters:    Size  Location     Type
  1633 ;;  packet          2    0[COMRAM] PTR struct XBeePacket
  1634 ;;		 -> SendMeasures@packet(125), 
  1635 ;;  frameId         1    2[COMRAM] unsigned char 
  1636 ;;  destinationA    2    3[COMRAM] PTR unsigned char 
  1637 ;;		 -> COORDINATOR_ADDRESS(8), 
  1638 ;;  radius          1    5[COMRAM] unsigned char 
  1639 ;;  options         1    6[COMRAM] unsigned char 
  1640 ;;  payload         2    7[COMRAM] PTR unsigned char 
  1641 ;;		 -> SendMeasures@payload(101), 
  1642 ;;  dataLength      1    9[COMRAM] unsigned char 
  1643 ;; Auto vars:     Size  Location     Type
  1644 ;;  p               2   13[COMRAM] PTR unsigned char 
  1645 ;;		 -> packet.frame.reserved(2), packet.frame.payload(97), packet.frame.destinationAddress(8), XBeeCreateTransmitReques
      +tPacket@packet.frame(116), 
  1646 ;;  i               1   12[COMRAM] unsigned char 
  1647 ;; Return value:  Size  Location     Type
  1648 ;;		None               void
  1649 ;; Registers used:
  1650 ;;		wreg, fsr1l, fsr1h, fsr2l, fsr2h, status,2, status,0, tblptrl, tblptrh, tblptru
  1651 ;; Tracked objects:
  1652 ;;		On entry : 0/0
  1653 ;;		On exit  : 0/0
  1654 ;;		Unchanged: 0/0
  1655 ;; Data sizes:     COMRAM   BANK0   BANK1   BANK2   BANK3   BANK4   BANK5   BANK6   BANK7   BANK8   BANK9  BANK10  BANK1
      +1  BANK12  BANK13  BANK14
  1656 ;;      Params:        10       0       0       0       0       0       0       0       0       0       0       0       
      +0       0       0       0
  1657 ;;      Locals:         3       0       0       0       0       0       0       0       0       0       0       0       
      +0       0       0       0
  1658 ;;      Temps:          2       0       0       0       0       0       0       0       0       0       0       0       
      +0       0       0       0
  1659 ;;      Totals:        15       0       0       0       0       0       0       0       0       0       0       0       
      +0       0       0       0
  1660 ;;Total ram usage:       15 bytes
  1661 ;; Hardware stack levels used:    1
  1662 ;; This function calls:
  1663 ;;		Nothing
  1664 ;; This function is called by:
  1665 ;;		_SendMeasures
  1666 ;; This function uses a non-reentrant model
  1667 ;;
  1668                           
  1669                           	psect	text12
  1670  0000'                    __ptext12:
  1671                           	opt stack 0
  1672  0000'                    _XBeeCreateTransmitRequestPacket:
  1673                           	opt stack 28
  1674                           
  1675                           ;digi_transmit_request.c: 25: uint8_t* p = packet->frame.transmitRequest.destinationAddr
      +                          ess;
  1676                           
  1677                           ;incstack = 0
  1678  0000' 0E02               	movlw	2
  1679  0002' 2400'              	addwf	XBeeCreateTransmitRequestPacket@packet,w,c
  1680  0004' 6E0D'              	movwf	XBeeCreateTransmitRequestPacket@p,c
  1681  0006' 0E00               	movlw	0
  1682  0008' 2001'              	addwfc	XBeeCreateTransmitRequestPacket@packet+1,w,c
  1683  000A' 6E0E'              	movwf	XBeeCreateTransmitRequestPacket@p+1,c
  1684                           
  1685                           ;digi_transmit_request.c: 26: uint8_t i = 0x08;
  1686  000C' 0E08               	movlw	8
  1687  000E' 6E0C'              	movwf	XBeeCreateTransmitRequestPacket@i,c
  1688                           
  1689                           ;digi_transmit_request.c: 27: while (i--) {
  1690  0010' D010               	goto	l2263
  1691  0012'                    l2257:
  1692                           
  1693                           ;digi_transmit_request.c: 28: *p++ = *destinationAddress++;
  1694  0012' C003' FFF6         	movff	XBeeCreateTransmitRequestPacket@destinationAddress,tblptrl
  1695  0016' C004' FFF7         	movff	XBeeCreateTransmitRequestPacket@destinationAddress+1,tblptrh
  1696  001A'                    	if	0	;tblptru may be non-zero
  1697  001A'                    	endif
  1698  001A'                    	if	0	;tblptru may be non-zero
  1699  001A'                    	endif
  1700  001A' C00D' FFD9         	movff	XBeeCreateTransmitRequestPacket@p,fsr2l
  1701  001E' C00E' FFDA         	movff	XBeeCreateTransmitRequestPacket@p+1,fsr2h
  1702  0022' 0008               	tblrd		*
  1703  0024' CFF5 FFDF          	movff	tablat,indf2
  1704  0028' 4A03'              	infsnz	XBeeCreateTransmitRequestPacket@destinationAddress,f,c
  1705  002A' 2A04'              	incf	XBeeCreateTransmitRequestPacket@destinationAddress+1,f,c
  1706  002C' 4A0D'              	infsnz	XBeeCreateTransmitRequestPacket@p,f,c
  1707  002E' 2A0E'              	incf	XBeeCreateTransmitRequestPacket@p+1,f,c
  1708  0030' D000               	goto	l2263
  1709  0032'                    l2263:
  1710  0032' 060C'              	decf	XBeeCreateTransmitRequestPacket@i,f,c
  1711  0034' 280C'              	incf	XBeeCreateTransmitRequestPacket@i,w,c
  1712  0036' A4D8               	btfss	status,2,c
  1713  0038' D7EC               	goto	l2257
  1714                           
  1715                           ;digi_transmit_request.c: 29: }
  1716                           ;digi_transmit_request.c: 30: p = packet->frame.transmitRequest.payload;
  1717  003A' 0E0E               	movlw	14
  1718  003C' 2400'              	addwf	XBeeCreateTransmitRequestPacket@packet,w,c
  1719  003E' 6E0D'              	movwf	XBeeCreateTransmitRequestPacket@p,c
  1720  0040' 0E00               	movlw	0
  1721  0042' 2001'              	addwfc	XBeeCreateTransmitRequestPacket@packet+1,w,c
  1722  0044' 6E0E'              	movwf	XBeeCreateTransmitRequestPacket@p+1,c
  1723                           
  1724                           ;digi_transmit_request.c: 31: i = dataLength;
  1725  0046' C009' F00C'        	movff	XBeeCreateTransmitRequestPacket@dataLength,XBeeCreateTransmitRequestPacket@i
  1726                           
  1727                           ;digi_transmit_request.c: 32: while (i--) {
  1728  004A' D00F               	goto	l2275
  1729  004C'                    l2269:
  1730                           
  1731                           ;digi_transmit_request.c: 33: *p++ = *payload++;
  1732  004C' C007' FFD9         	movff	XBeeCreateTransmitRequestPacket@payload,fsr2l
  1733  0050' C008' FFDA         	movff	XBeeCreateTransmitRequestPacket@payload+1,fsr2h
  1734  0054' C00D' FFE1         	movff	XBeeCreateTransmitRequestPacket@p,fsr1l
  1735  0058' C00E' FFE2         	movff	XBeeCreateTransmitRequestPacket@p+1,fsr1h
  1736  005C' CFDF FFE7          	movff	indf2,indf1
  1737  0060' 4A07'              	infsnz	XBeeCreateTransmitRequestPacket@payload,f,c
  1738  0062' 2A08'              	incf	XBeeCreateTransmitRequestPacket@payload+1,f,c
  1739  0064' 4A0D'              	infsnz	XBeeCreateTransmitRequestPacket@p,f,c
  1740  0066' 2A0E'              	incf	XBeeCreateTransmitRequestPacket@p+1,f,c
  1741  0068' D000               	goto	l2275
  1742  006A'                    l2275:
  1743  006A' 060C'              	decf	XBeeCreateTransmitRequestPacket@i,f,c
  1744  006C' 280C'              	incf	XBeeCreateTransmitRequestPacket@i,w,c
  1745  006E' A4D8               	btfss	status,2,c
  1746  0070' D7ED               	goto	l2269
  1747                           
  1748                           ;digi_transmit_request.c: 34: }
  1749                           ;digi_transmit_request.c: 35: p = packet->frame.transmitRequest.reserved;
  1750  0072' 0E0A               	movlw	10
  1751  0074' 2400'              	addwf	XBeeCreateTransmitRequestPacket@packet,w,c
  1752  0076' 6E0D'              	movwf	XBeeCreateTransmitRequestPacket@p,c
  1753  0078' 0E00               	movlw	0
  1754  007A' 2001'              	addwfc	XBeeCreateTransmitRequestPacket@packet+1,w,c
  1755  007C' 6E0E'              	movwf	XBeeCreateTransmitRequestPacket@p+1,c
  1756                           
  1757                           ;digi_transmit_request.c: 36: *p++ = 0xFF;
  1758  007E' C00D' FFD9         	movff	XBeeCreateTransmitRequestPacket@p,fsr2l
  1759  0082' C00E' FFDA         	movff	XBeeCreateTransmitRequestPacket@p+1,fsr2h
  1760  0086' 0EFF               	movlw	255
  1761  0088' 6EDF               	movwf	indf2,c
  1762  008A' 4A0D'              	infsnz	XBeeCreateTransmitRequestPacket@p,f,c
  1763  008C' 2A0E'              	incf	XBeeCreateTransmitRequestPacket@p+1,f,c
  1764                           
  1765                           ;digi_transmit_request.c: 37: *p++ = 0xFE;
  1766  008E' C00D' FFD9         	movff	XBeeCreateTransmitRequestPacket@p,fsr2l
  1767  0092' C00E' FFDA         	movff	XBeeCreateTransmitRequestPacket@p+1,fsr2h
  1768  0096' 0EFE               	movlw	254
  1769  0098' 6EDF               	movwf	indf2,c
  1770  009A' 4A0D'              	infsnz	XBeeCreateTransmitRequestPacket@p,f,c
  1771  009C' 2A0E'              	incf	XBeeCreateTransmitRequestPacket@p+1,f,c
  1772                           
  1773                           ;digi_transmit_request.c: 38: packet->frame.transmitRequest.bcastRadius = radius;
  1774  009E' EE20 F00C          	lfsr	2,12
  1775  00A2' 5000'              	movf	XBeeCreateTransmitRequestPacket@packet,w,c
  1776  00A4' 26D9               	addwf	fsr2l,f,c
  1777  00A6' 5001'              	movf	XBeeCreateTransmitRequestPacket@packet+1,w,c
  1778  00A8' 22DA               	addwfc	fsr2h,f,c
  1779  00AA' C005' FFDF         	movff	XBeeCreateTransmitRequestPacket@radius,indf2
  1780                           
  1781                           ;digi_transmit_request.c: 39: packet->frame.transmitRequest.options = options;
  1782  00AE' EE20 F00D          	lfsr	2,13
  1783  00B2' 5000'              	movf	XBeeCreateTransmitRequestPacket@packet,w,c
  1784  00B4' 26D9               	addwf	fsr2l,f,c
  1785  00B6' 5001'              	movf	XBeeCreateTransmitRequestPacket@packet+1,w,c
  1786  00B8' 22DA               	addwfc	fsr2h,f,c
  1787  00BA' C006' FFDF         	movff	XBeeCreateTransmitRequestPacket@options,indf2
  1788                           
  1789                           ;digi_transmit_request.c: 40: packet->apiId = TRANSMIT_REQUEST;
  1790  00BE' C000' FFD9         	movff	XBeeCreateTransmitRequestPacket@packet,fsr2l
  1791  00C2' C001' FFDA         	movff	XBeeCreateTransmitRequestPacket@packet+1,fsr2h
  1792  00C6' 0E10               	movlw	16
  1793  00C8' 6EDF               	movwf	indf2,c
  1794                           
  1795                           ;digi_transmit_request.c: 41: packet->frame.transmitRequest.frameId = frameId;
  1796  00CA' EE20 F001          	lfsr	2,1
  1797  00CE' 5000'              	movf	XBeeCreateTransmitRequestPacket@packet,w,c
  1798  00D0' 26D9               	addwf	fsr2l,f,c
  1799  00D2' 5001'              	movf	XBeeCreateTransmitRequestPacket@packet+1,w,c
  1800  00D4' 22DA               	addwfc	fsr2h,f,c
  1801  00D6' C002' FFDF         	movff	XBeeCreateTransmitRequestPacket@frameId,indf2
  1802                           
  1803                           ;digi_transmit_request.c: 42: packet->length = 0x0E + dataLength;
  1804  00DA' 5009'              	movf	XBeeCreateTransmitRequestPacket@dataLength,w,c
  1805  00DC' 6E00'              	movwf	??_XBeeCreateTransmitRequestPacket& (0+255),c
  1806  00DE' 6A00'              	clrf	(??_XBeeCreateTransmitRequestPacket+1)& (0+255),c
  1807  00E0' 0E0E               	movlw	14
  1808  00E2' 260A'              	addwf	??_XBeeCreateTransmitRequestPacket,f,c
  1809  00E4' 0E00               	movlw	0
  1810  00E6' 220B'              	addwfc	??_XBeeCreateTransmitRequestPacket+1,f,c
  1811  00E8' EE20 F075          	lfsr	2,117
  1812  00EC' 5000'              	movf	XBeeCreateTransmitRequestPacket@packet,w,c
  1813  00EE' 26D9               	addwf	fsr2l,f,c
  1814  00F0' 5001'              	movf	XBeeCreateTransmitRequestPacket@packet+1,w,c
  1815  00F2' 22DA               	addwfc	fsr2h,f,c
  1816  00F4' C00A' FFDE         	movff	??_XBeeCreateTransmitRequestPacket,postinc2
  1817  00F8' C00B' FFDD         	movff	??_XBeeCreateTransmitRequestPacket+1,postdec2
  1818  00FC' 0012               	return		;funcret
  1819  00FE'                    __end_of_XBeeCreateTransmitRequestPacket:
  1820                           	opt stack 0
  1821                           tblptru	equ	0xFF8
  1822                           tblptrh	equ	0xFF7
  1823                           tblptrl	equ	0xFF6
  1824                           tablat	equ	0xFF5
  1825                           intcon	equ	0xFF2
  1826                           intcon2	equ	0xFF1
  1827                           postinc0	equ	0xFEE
  1828                           wreg	equ	0xFE8
  1829                           indf1	equ	0xFE7
  1830                           postdec1	equ	0xFE5
  1831                           fsr1h	equ	0xFE2
  1832                           fsr1l	equ	0xFE1
  1833                           indf2	equ	0xFDF
  1834                           postinc2	equ	0xFDE
  1835                           postdec2	equ	0xFDD
  1836                           fsr2h	equ	0xFDA
  1837                           fsr2l	equ	0xFD9
  1838                           status	equ	0xFD8
  1839                           
  1840 ;; *************** function _PayloadPutWord *****************
  1841 ;; Defined at:
  1842 ;;		line 46 in file "xbee/payload.c"
  1843 ;; Parameters:    Size  Location     Type
  1844 ;;  payload         2    0[COMRAM] PTR struct Payload
  1845 ;;		 -> SendMeasures@payload(101), 
  1846 ;;  element         2    2[COMRAM] const unsigned int 
  1847 ;; Auto vars:     Size  Location     Type
  1848 ;;  msb             1    6[COMRAM] unsigned char 
  1849 ;;  lsb             1    5[COMRAM] unsigned char 
  1850 ;; Return value:  Size  Location     Type
  1851 ;;		None               void
  1852 ;; Registers used:
  1853 ;;		wreg, fsr2l, fsr2h, status,2, status,0, prodl, prodh
  1854 ;; Tracked objects:
  1855 ;;		On entry : 0/0
  1856 ;;		On exit  : 0/0
  1857 ;;		Unchanged: 0/0
  1858 ;; Data sizes:     COMRAM   BANK0   BANK1   BANK2   BANK3   BANK4   BANK5   BANK6   BANK7   BANK8   BANK9  BANK10  BANK1
      +1  BANK12  BANK13  BANK14
  1859 ;;      Params:         4       0       0       0       0       0       0       0       0       0       0       0       
      +0       0       0       0
  1860 ;;      Locals:         2       0       0       0       0       0       0       0       0       0       0       0       
      +0       0       0       0
  1861 ;;      Temps:          1       0       0       0       0       0       0       0       0       0       0       0       
      +0       0       0       0
  1862 ;;      Totals:         7       0       0       0       0       0       0       0       0       0       0       0       
      +0       0       0       0
  1863 ;;Total ram usage:        7 bytes
  1864 ;; Hardware stack levels used:    1
  1865 ;; This function calls:
  1866 ;;		Nothing
  1867 ;; This function is called by:
  1868 ;;		_SendMeasures
  1869 ;; This function uses a non-reentrant model
  1870 ;;
  1871                           
  1872                           	psect	text13
  1873  0000'                    __ptext13:
  1874                           	opt stack 0
  1875  0000'                    _PayloadPutWord:
  1876                           	opt stack 28
  1877                           
  1878                           ;payload.c: 47: uint8_t lsb = (uint8_t)element;
  1879                           
  1880                           ;incstack = 0
  1881  0000' C002' F005'        	movff	PayloadPutWord@element,PayloadPutWord@lsb
  1882                           
  1883                           ;payload.c: 48: uint8_t msb = (uint8_t)(element >> 8);
  1884  0004' 5003'              	movf	PayloadPutWord@element+1,w,c
  1885  0006' 6E06'              	movwf	PayloadPutWord@msb,c
  1886                           
  1887                           ;payload.c: 49: if (payload->size < 100 - 2) {
  1888  0008' EE20 F064          	lfsr	2,100
  1889  000C' 5000'              	movf	PayloadPutWord@payload,w,c
  1890  000E' 26D9               	addwf	fsr2l,f,c
  1891  0010' 5001'              	movf	PayloadPutWord@payload+1,w,c
  1892  0012' 22DA               	addwfc	fsr2h,f,c
  1893  0014' 0E62               	movlw	98
  1894  0016' 60DF               	cpfslt	indf2,c
  1895  0018' 0012               	return	
  1896                           
  1897                           ;payload.c: 50: payload->data[payload->size++] = msb;
  1898  001A' EE20 F064          	lfsr	2,100
  1899  001E' 5000'              	movf	PayloadPutWord@payload,w,c
  1900  0020' 26D9               	addwf	fsr2l,f,c
  1901  0022' 5001'              	movf	PayloadPutWord@payload+1,w,c
  1902  0024' 22DA               	addwfc	fsr2h,f,c
  1903  0026' 50DF               	movf	indf2,w,c
  1904  0028' 6E00'              	movwf	??_PayloadPutWord& (0+255),c
  1905  002A' 5004'              	movf	??_PayloadPutWord,w,c
  1906  002C' 0D01               	mullw	1
  1907  002E' 50F3               	movf	prodl,w,c
  1908  0030' 2400'              	addwf	PayloadPutWord@payload,w,c
  1909  0032' 6ED9               	movwf	fsr2l,c
  1910  0034' 50F4               	movf	prodh,w,c
  1911  0036' 2001'              	addwfc	PayloadPutWord@payload+1,w,c
  1912  0038' 6EDA               	movwf	fsr2h,c
  1913  003A' C006' FFDF         	movff	PayloadPutWord@msb,indf2
  1914  003E' EE20 F064          	lfsr	2,100
  1915  0042' 5000'              	movf	PayloadPutWord@payload,w,c
  1916  0044' 26D9               	addwf	fsr2l,f,c
  1917  0046' 5001'              	movf	PayloadPutWord@payload+1,w,c
  1918  0048' 22DA               	addwfc	fsr2h,f,c
  1919  004A' 2ADF               	incf	indf2,f,c
  1920                           
  1921                           ;payload.c: 51: payload->data[payload->size++] = lsb;
  1922  004C' EE20 F064          	lfsr	2,100
  1923  0050' 5000'              	movf	PayloadPutWord@payload,w,c
  1924  0052' 26D9               	addwf	fsr2l,f,c
  1925  0054' 5001'              	movf	PayloadPutWord@payload+1,w,c
  1926  0056' 22DA               	addwfc	fsr2h,f,c
  1927  0058' 50DF               	movf	indf2,w,c
  1928  005A' 6E00'              	movwf	??_PayloadPutWord& (0+255),c
  1929  005C' 5004'              	movf	??_PayloadPutWord,w,c
  1930  005E' 0D01               	mullw	1
  1931  0060' 50F3               	movf	prodl,w,c
  1932  0062' 2400'              	addwf	PayloadPutWord@payload,w,c
  1933  0064' 6ED9               	movwf	fsr2l,c
  1934  0066' 50F4               	movf	prodh,w,c
  1935  0068' 2001'              	addwfc	PayloadPutWord@payload+1,w,c
  1936  006A' 6EDA               	movwf	fsr2h,c
  1937  006C' C005' FFDF         	movff	PayloadPutWord@lsb,indf2
  1938  0070' EE20 F064          	lfsr	2,100
  1939  0074' 5000'              	movf	PayloadPutWord@payload,w,c
  1940  0076' 26D9               	addwf	fsr2l,f,c
  1941  0078' 5001'              	movf	PayloadPutWord@payload+1,w,c
  1942  007A' 22DA               	addwfc	fsr2h,f,c
  1943  007C' 2ADF               	incf	indf2,f,c
  1944  007E' 0012               	return	
  1945  0080' 0012               	return		;funcret
  1946  0082'                    __end_of_PayloadPutWord:
  1947                           	opt stack 0
  1948                           tblptru	equ	0xFF8
  1949                           tblptrh	equ	0xFF7
  1950                           tblptrl	equ	0xFF6
  1951                           tablat	equ	0xFF5
  1952                           prodh	equ	0xFF4
  1953                           prodl	equ	0xFF3
  1954                           intcon	equ	0xFF2
  1955                           intcon2	equ	0xFF1
  1956                           postinc0	equ	0xFEE
  1957                           wreg	equ	0xFE8
  1958                           indf1	equ	0xFE7
  1959                           postdec1	equ	0xFE5
  1960                           fsr1h	equ	0xFE2
  1961                           fsr1l	equ	0xFE1
  1962                           indf2	equ	0xFDF
  1963                           postinc2	equ	0xFDE
  1964                           postdec2	equ	0xFDD
  1965                           fsr2h	equ	0xFDA
  1966                           fsr2l	equ	0xFD9
  1967                           status	equ	0xFD8
  1968                           
  1969 ;; *************** function _PayloadPutString *****************
  1970 ;; Defined at:
  1971 ;;		line 69 in file "xbee/payload.c"
  1972 ;; Parameters:    Size  Location     Type
  1973 ;;  payload         2    8[COMRAM] PTR struct Payload
  1974 ;;		 -> SendMeasures@payload(101), 
  1975 ;;  string          2   10[COMRAM] PTR const unsigned char 
  1976 ;;		 -> SENSORS(2), 
  1977 ;; Auto vars:     Size  Location     Type
  1978 ;;  buffer          2   13[COMRAM] PTR unsigned char 
  1979 ;;		 -> payload.data(100), SendMeasures@payload(101), 
  1980 ;; Return value:  Size  Location     Type
  1981 ;;		None               void
  1982 ;; Registers used:
  1983 ;;		wreg, fsr2l, fsr2h, status,2, status,0, tblptrl, tblptrh, tblptru, prodl, prodh, cstack
  1984 ;; Tracked objects:
  1985 ;;		On entry : 0/0
  1986 ;;		On exit  : 0/0
  1987 ;;		Unchanged: 0/0
  1988 ;; Data sizes:     COMRAM   BANK0   BANK1   BANK2   BANK3   BANK4   BANK5   BANK6   BANK7   BANK8   BANK9  BANK10  BANK1
      +1  BANK12  BANK13  BANK14
  1989 ;;      Params:         4       0       0       0       0       0       0       0       0       0       0       0       
      +0       0       0       0
  1990 ;;      Locals:         2       0       0       0       0       0       0       0       0       0       0       0       
      +0       0       0       0
  1991 ;;      Temps:          1       0       0       0       0       0       0       0       0       0       0       0       
      +0       0       0       0
  1992 ;;      Totals:         7       0       0       0       0       0       0       0       0       0       0       0       
      +0       0       0       0
  1993 ;;Total ram usage:        7 bytes
  1994 ;; Hardware stack levels used:    1
  1995 ;; Hardware stack levels required when called:    1
  1996 ;; This function calls:
  1997 ;;		_sprintf
  1998 ;;		_strlen
  1999 ;; This function is called by:
  2000 ;;		_SendMeasures
  2001 ;; This function uses a non-reentrant model
  2002 ;;
  2003                           
  2004                           	psect	text14
  2005  0000'                    __ptext14:
  2006                           	opt stack 0
  2007  0000'                    _PayloadPutString:
  2008                           	opt stack 27
  2009                           
  2010                           ;payload.c: 70: char* buffer = (char*) &payload->data[payload->size];
  2011                           
  2012                           ;incstack = 0
  2013  0000' EE20 F064          	lfsr	2,100
  2014  0004' 5008'              	movf	PayloadPutString@payload,w,c
  2015  0006' 26D9               	addwf	fsr2l,f,c
  2016  0008' 5009'              	movf	PayloadPutString@payload+1,w,c
  2017  000A' 22DA               	addwfc	fsr2h,f,c
  2018  000C' 50DF               	movf	indf2,w,c
  2019  000E' 6E00'              	movwf	??_PayloadPutString& (0+255),c
  2020  0010' 500C'              	movf	??_PayloadPutString,w,c
  2021  0012' 0D01               	mullw	1
  2022  0014' 50F3               	movf	prodl,w,c
  2023  0016' 2408'              	addwf	PayloadPutString@payload,w,c
  2024  0018' 6E0D'              	movwf	PayloadPutString@buffer,c
  2025  001A' 50F4               	movf	prodh,w,c
  2026  001C' 2009'              	addwfc	PayloadPutString@payload+1,w,c
  2027  001E' 6E0E'              	movwf	PayloadPutString@buffer+1,c
  2028                           
  2029                           ;payload.c: 71: sprintf(buffer, (const char*) string);
  2030  0020' C00D' F000'        	movff	PayloadPutString@buffer,sprintf@sp
  2031  0024' C00E' F001'        	movff	PayloadPutString@buffer+1,sprintf@sp+1
  2032  0028' C00A' F002'        	movff	PayloadPutString@string,sprintf@f
  2033  002C' C00B' F003'        	movff	PayloadPutString@string+1,sprintf@f+1
  2034  0030' EC00' F000'        	call	_sprintf	;wreg free
  2035                           
  2036                           ;payload.c: 72: payload->size += strlen((char*)string);
  2037  0034' C00A' F000'        	movff	PayloadPutString@string,strlen@s
  2038  0038' C00B' F001'        	movff	PayloadPutString@string+1,strlen@s+1
  2039  003C' EC00' F000'        	call	_strlen	;wreg free
  2040  0040' EE20 F064          	lfsr	2,100
  2041  0044' 5008'              	movf	PayloadPutString@payload,w,c
  2042  0046' 26D9               	addwf	fsr2l,f,c
  2043  0048' 5009'              	movf	PayloadPutString@payload+1,w,c
  2044  004A' 22DA               	addwfc	fsr2h,f,c
  2045  004C' 5000'              	movf	?_strlen,w,c
  2046  004E' 26DF               	addwf	indf2,f,c
  2047  0050' 0012               	return		;funcret
  2048  0052'                    __end_of_PayloadPutString:
  2049                           	opt stack 0
  2050                           tblptru	equ	0xFF8
  2051                           tblptrh	equ	0xFF7
  2052                           tblptrl	equ	0xFF6
  2053                           tablat	equ	0xFF5
  2054                           prodh	equ	0xFF4
  2055                           prodl	equ	0xFF3
  2056                           intcon	equ	0xFF2
  2057                           intcon2	equ	0xFF1
  2058                           postinc0	equ	0xFEE
  2059                           wreg	equ	0xFE8
  2060                           indf1	equ	0xFE7
  2061                           postdec1	equ	0xFE5
  2062                           fsr1h	equ	0xFE2
  2063                           fsr1l	equ	0xFE1
  2064                           indf2	equ	0xFDF
  2065                           postinc2	equ	0xFDE
  2066                           postdec2	equ	0xFDD
  2067                           fsr2h	equ	0xFDA
  2068                           fsr2l	equ	0xFD9
  2069                           status	equ	0xFD8
  2070                           
  2071 ;; *************** function _strlen *****************
  2072 ;; Defined at:
  2073 ;;		line 4 in file "C:\Program Files (x86)\Microchip\xc8\v1.34\sources\common\strlen.c"
  2074 ;; Parameters:    Size  Location     Type
  2075 ;;  s               2    0[COMRAM] PTR const unsigned char 
  2076 ;;		 -> SENSORS(2), 
  2077 ;; Auto vars:     Size  Location     Type
  2078 ;;  cp              2    4[COMRAM] PTR const unsigned char 
  2079 ;;		 -> SENSORS(2), 
  2080 ;; Return value:  Size  Location     Type
  2081 ;;                  2    0[COMRAM] unsigned int 
  2082 ;; Registers used:
  2083 ;;		wreg, status,2, status,0, tblptrl, tblptrh, tblptru
  2084 ;; Tracked objects:
  2085 ;;		On entry : 0/0
  2086 ;;		On exit  : 0/0
  2087 ;;		Unchanged: 0/0
  2088 ;; Data sizes:     COMRAM   BANK0   BANK1   BANK2   BANK3   BANK4   BANK5   BANK6   BANK7   BANK8   BANK9  BANK10  BANK1
      +1  BANK12  BANK13  BANK14
  2089 ;;      Params:         2       0       0       0       0       0       0       0       0       0       0       0       
      +0       0       0       0
  2090 ;;      Locals:         2       0       0       0       0       0       0       0       0       0       0       0       
      +0       0       0       0
  2091 ;;      Temps:          2       0       0       0       0       0       0       0       0       0       0       0       
      +0       0       0       0
  2092 ;;      Totals:         6       0       0       0       0       0       0       0       0       0       0       0       
      +0       0       0       0
  2093 ;;Total ram usage:        6 bytes
  2094 ;; Hardware stack levels used:    1
  2095 ;; This function calls:
  2096 ;;		Nothing
  2097 ;; This function is called by:
  2098 ;;		_PayloadPutString
  2099 ;;		_PayloadPutRAMString
  2100 ;; This function uses a non-reentrant model
  2101 ;;
  2102                           
  2103                           	psect	text15
  2104  0000'                    __ptext15:
  2105                           	opt stack 0
  2106  0000'                    _strlen:
  2107                           	opt stack 27
  2108                           
  2109                           ;incstack = 0
  2110  0000' C000' F004'        	movff	strlen@s,strlen@cp
  2111  0004' C001' F005'        	movff	strlen@s+1,strlen@cp+1
  2112  0008' D003               	goto	l2183
  2113  000A'                    l2181:
  2114  000A' 4A04'              	infsnz	strlen@cp,f,c
  2115  000C' 2A05'              	incf	strlen@cp+1,f,c
  2116  000E' D000               	goto	l2183
  2117  0010'                    l2183:
  2118  0010' C004' FFF6         	movff	strlen@cp,tblptrl
  2119  0014' C005' FFF7         	movff	strlen@cp+1,tblptrh
  2120  0018'                    	if	0	;tblptru may be non-zero
  2121  0018'                    	endif
  2122  0018'                    	if	0	;tblptru may be non-zero
  2123  0018'                    	endif
  2124  0018' 0008               	tblrd		*
  2125  001A' 50F5               	movf	tablat,w,c
  2126  001C' 0900               	iorlw	0
  2127  001E' A4D8               	btfss	status,2,c
  2128  0020' D7F4               	goto	l2181
  2129  0022' C000' F002'        	movff	strlen@s,??_strlen
  2130  0026' C001' F003'        	movff	strlen@s+1,??_strlen+1
  2131  002A' 1E02'              	comf	??_strlen,f,c
  2132  002C' 1E03'              	comf	??_strlen+1,f,c
  2133  002E' 4A02'              	infsnz	??_strlen,f,c
  2134  0030' 2A03'              	incf	??_strlen+1,f,c
  2135  0032' 5004'              	movf	strlen@cp,w,c
  2136  0034' 2402'              	addwf	??_strlen,w,c
  2137  0036' 6E00'              	movwf	?_strlen,c
  2138  0038' 5005'              	movf	strlen@cp+1,w,c
  2139  003A' 2003'              	addwfc	??_strlen+1,w,c
  2140  003C' 6E01'              	movwf	?_strlen+1,c
  2141  003E' 0012               	return	
  2142  0040' 0012               	return		;funcret
  2143  0042'                    __end_of_strlen:
  2144                           	opt stack 0
  2145                           tblptru	equ	0xFF8
  2146                           tblptrh	equ	0xFF7
  2147                           tblptrl	equ	0xFF6
  2148                           tablat	equ	0xFF5
  2149                           prodh	equ	0xFF4
  2150                           prodl	equ	0xFF3
  2151                           intcon	equ	0xFF2
  2152                           intcon2	equ	0xFF1
  2153                           postinc0	equ	0xFEE
  2154                           wreg	equ	0xFE8
  2155                           indf1	equ	0xFE7
  2156                           postdec1	equ	0xFE5
  2157                           fsr1h	equ	0xFE2
  2158                           fsr1l	equ	0xFE1
  2159                           indf2	equ	0xFDF
  2160                           postinc2	equ	0xFDE
  2161                           postdec2	equ	0xFDD
  2162                           fsr2h	equ	0xFDA
  2163                           fsr2l	equ	0xFD9
  2164                           status	equ	0xFD8
  2165                           
  2166 ;; *************** function _sprintf *****************
  2167 ;; Defined at:
  2168 ;;		line 492 in file "C:\Program Files (x86)\Microchip\xc8\v1.34\sources\common\doprnt.c"
  2169 ;; Parameters:    Size  Location     Type
  2170 ;;  sp              2    0[COMRAM] PTR unsigned char 
  2171 ;;		 -> payload.data(100), SendMeasures@payload(101), 
  2172 ;;  f               2    2[COMRAM] PTR const unsigned char 
  2173 ;;		 -> SENSORS(2), 
  2174 ;; Auto vars:     Size  Location     Type
  2175 ;;  tmpval          4    0        struct .
  2176 ;;  cp              3    0        PTR const unsigned char 
  2177 ;;  ap              2    4[COMRAM] PTR void [1]
  2178 ;;		 -> ?_sprintf(2), 
  2179 ;;  len             2    0        unsigned int 
  2180 ;;  val             2    0        unsigned int 
  2181 ;;  c               1    7[COMRAM] char 
  2182 ;;  flag            1    6[COMRAM] unsigned char 
  2183 ;;  prec            1    0        char 
  2184 ;; Return value:  Size  Location     Type
  2185 ;;                  2    0[COMRAM] int 
  2186 ;; Registers used:
  2187 ;;		wreg, fsr2l, fsr2h, status,2, status,0, tblptrl, tblptrh, tblptru
  2188 ;; Tracked objects:
  2189 ;;		On entry : 0/0
  2190 ;;		On exit  : 0/0
  2191 ;;		Unchanged: 0/0
  2192 ;; Data sizes:     COMRAM   BANK0   BANK1   BANK2   BANK3   BANK4   BANK5   BANK6   BANK7   BANK8   BANK9  BANK10  BANK1
      +1  BANK12  BANK13  BANK14
  2193 ;;      Params:         4       0       0       0       0       0       0       0       0       0       0       0       
      +0       0       0       0
  2194 ;;      Locals:         4       0       0       0       0       0       0       0       0       0       0       0       
      +0       0       0       0
  2195 ;;      Temps:          0       0       0       0       0       0       0       0       0       0       0       0       
      +0       0       0       0
  2196 ;;      Totals:         8       0       0       0       0       0       0       0       0       0       0       0       
      +0       0       0       0
  2197 ;;Total ram usage:        8 bytes
  2198 ;; Hardware stack levels used:    1
  2199 ;; This function calls:
  2200 ;;		Nothing
  2201 ;; This function is called by:
  2202 ;;		_PayloadPutString
  2203 ;; This function uses a non-reentrant model
  2204 ;;
  2205                           
  2206                           	psect	text16
  2207  0000'                    __ptext16:
  2208                           	opt stack 0
  2209  0000'                    _sprintf:
  2210                           	opt stack 27
  2211                           
  2212                           ;doprnt.c: 494: va_list ap;
  2213                           ;doprnt.c: 499: signed char c;
  2214                           ;doprnt.c: 506: signed char prec;
  2215                           ;doprnt.c: 508: unsigned char flag;
  2216                           ;doprnt.c: 523: union {
  2217                           ;doprnt.c: 524: unsigned long vd;
  2218                           ;doprnt.c: 525: double integ;
  2219                           ;doprnt.c: 526: } tmpval;
  2220                           ;doprnt.c: 528: unsigned int val;
  2221                           ;doprnt.c: 529: unsigned len;
  2222                           ;doprnt.c: 530: const char * cp;
  2223                           ;doprnt.c: 533: *ap = __va_start();
  2224                           
  2225                           ;incstack = 0
  2226  0000' 0E00'              	movlw	low (?_sprintf+4)
  2227  0002' 6E04'              	movwf	sprintf@ap,c
  2228  0004' 0E00'              	movlw	high (?_sprintf+4)
  2229  0006' 6E05'              	movwf	sprintf@ap+1,c
  2230                           
  2231                           ;doprnt.c: 536: while(c = *f++) {
  2232  0008' D023               	goto	l2173
  2233  000A'                    l2157:
  2234                           
  2235                           ;doprnt.c: 538: if(c != '%')
  2236  000A' 0E25               	movlw	37
  2237  000C' 1807'              	xorwf	sprintf@c,w,c
  2238  000E' B4D8               	btfsc	status,2,c
  2239  0010' D004               	goto	l2163
  2240  0012' D007               	goto	l2165
  2241  0014'                    l2161:
  2242  0014' 4A00'              	infsnz	sprintf@sp,f,c
  2243  0016' 2A01'              	incf	sprintf@sp+1,f,c
  2244                           
  2245                           ;doprnt.c: 542: continue;
  2246  0018' D01B               	goto	l2173
  2247  001A'                    l2163:
  2248                           
  2249                           ;doprnt.c: 543: }
  2250                           ;doprnt.c: 548: flag = 0;
  2251  001A' 0E00               	movlw	0
  2252  001C' 6E06'              	movwf	sprintf@flag,c
  2253                           
  2254                           ;doprnt.c: 635: switch(c = *f++) {
  2255  001E' D009               	goto	l2171
  2256                           
  2257                           ;doprnt.c: 638: goto alldone;
  2258                           
  2259                           ;doprnt.c: 637: case 0:
  2260  0020' D025               	goto	l2175
  2261  0022'                    l2165:
  2262                           
  2263                           ;doprnt.c: 809: ((*sp++ = (c)));
  2264  0022' C000' FFD9         	movff	sprintf@sp,fsr2l
  2265  0026' C001' FFDA         	movff	sprintf@sp+1,fsr2h
  2266  002A' C007' FFDF         	movff	sprintf@c,indf2
  2267  002E' D7F2               	goto	l2161
  2268                           
  2269                           ;doprnt.c: 822: }
  2270                           
  2271                           ;doprnt.c: 810: continue;
  2272  0030' D00F               	goto	l2173
  2273  0032'                    l2171:
  2274  0032' C002' FFF6         	movff	sprintf@f,tblptrl
  2275  0036' C003' FFF7         	movff	sprintf@f+1,tblptrh
  2276  003A' 4A02'              	infsnz	sprintf@f,f,c
  2277  003C' 2A03'              	incf	sprintf@f+1,f,c
  2278  003E'                    	if	0	;tblptru may be non-zero
  2279  003E'                    	endif
  2280  003E'                    	if	0	;tblptru may be non-zero
  2281  003E'                    	endif
  2282  003E' 0008               	tblrd		*
  2283  0040' CFF5 F007'         	movff	tablat,sprintf@c
  2284  0044' 5007'              	movf	sprintf@c,w,c
  2285                           
  2286                           ; Switch size 1, requested type "space"
  2287                           ; Number of cases is 1, Range of values is 0 to 0
  2288                           ; switch strategies available:
  2289                           ; Name         Instructions Cycles
  2290                           ; simple_byte            4     3 (average)
  2291                           ;	Chosen strategy is simple_byte
  2292  0046' 0A00               	xorlw	0	; case 0
  2293  0048' B4D8               	btfsc	status,2,c
  2294  004A' D010               	goto	l2175
  2295  004C' D7EA               	goto	l2165
  2296  004E' D000               	goto	l2173
  2297  0050'                    l2173:
  2298  0050' C002' FFF6         	movff	sprintf@f,tblptrl
  2299  0054' C003' FFF7         	movff	sprintf@f+1,tblptrh
  2300  0058' 4A02'              	infsnz	sprintf@f,f,c
  2301  005A' 2A03'              	incf	sprintf@f+1,f,c
  2302  005C'                    	if	0	;tblptru may be non-zero
  2303  005C'                    	endif
  2304  005C'                    	if	0	;tblptru may be non-zero
  2305  005C'                    	endif
  2306  005C' 0008               	tblrd		*
  2307  005E' CFF5 F007'         	movff	tablat,sprintf@c
  2308  0062' 5007'              	movf	sprintf@c,w,c
  2309  0064' B4D8               	btfsc	status,2,c
  2310  0066' D002               	goto	l2175
  2311  0068' D7D0               	goto	l2157
  2312  006A' D000               	goto	l2175
  2313  006C'                    l2175:
  2314                           
  2315                           ;doprnt.c: 1538: *sp = 0;
  2316  006C' C000' FFD9         	movff	sprintf@sp,fsr2l
  2317  0070' C001' FFDA         	movff	sprintf@sp+1,fsr2h
  2318  0074' 0E00               	movlw	0
  2319  0076' 6EDF               	movwf	indf2,c
  2320  0078' 0012               	return	
  2321                           
  2322                           ;doprnt.c: 1540: return 0;
  2323                           ;	Return value of _sprintf is never used
  2324  007A' 0012               	return		;funcret
  2325  007C'                    __end_of_sprintf:
  2326                           	opt stack 0
  2327                           tblptru	equ	0xFF8
  2328                           tblptrh	equ	0xFF7
  2329                           tblptrl	equ	0xFF6
  2330                           tablat	equ	0xFF5
  2331                           prodh	equ	0xFF4
  2332                           prodl	equ	0xFF3
  2333                           intcon	equ	0xFF2
  2334                           intcon2	equ	0xFF1
  2335                           postinc0	equ	0xFEE
  2336                           wreg	equ	0xFE8
  2337                           indf1	equ	0xFE7
  2338                           postdec1	equ	0xFE5
  2339                           fsr1h	equ	0xFE2
  2340                           fsr1l	equ	0xFE1
  2341                           indf2	equ	0xFDF
  2342                           postinc2	equ	0xFDE
  2343                           postdec2	equ	0xFDD
  2344                           fsr2h	equ	0xFDA
  2345                           fsr2l	equ	0xFD9
  2346                           status	equ	0xFD8
  2347                           
  2348 ;; *************** function _PayloadPutByte *****************
  2349 ;; Defined at:
  2350 ;;		line 36 in file "xbee/payload.c"
  2351 ;; Parameters:    Size  Location     Type
  2352 ;;  payload         2    0[COMRAM] PTR struct Payload
  2353 ;;		 -> SendMeasures@payload(101), 
  2354 ;;  element         1    2[COMRAM] const unsigned char 
  2355 ;; Auto vars:     Size  Location     Type
  2356 ;;		None
  2357 ;; Return value:  Size  Location     Type
  2358 ;;		None               void
  2359 ;; Registers used:
  2360 ;;		wreg, fsr2l, fsr2h, status,2, status,0, prodl, prodh
  2361 ;; Tracked objects:
  2362 ;;		On entry : 0/0
  2363 ;;		On exit  : 0/0
  2364 ;;		Unchanged: 0/0
  2365 ;; Data sizes:     COMRAM   BANK0   BANK1   BANK2   BANK3   BANK4   BANK5   BANK6   BANK7   BANK8   BANK9  BANK10  BANK1
      +1  BANK12  BANK13  BANK14
  2366 ;;      Params:         3       0       0       0       0       0       0       0       0       0       0       0       
      +0       0       0       0
  2367 ;;      Locals:         0       0       0       0       0       0       0       0       0       0       0       0       
      +0       0       0       0
  2368 ;;      Temps:          1       0       0       0       0       0       0       0       0       0       0       0       
      +0       0       0       0
  2369 ;;      Totals:         4       0       0       0       0       0       0       0       0       0       0       0       
      +0       0       0       0
  2370 ;;Total ram usage:        4 bytes
  2371 ;; Hardware stack levels used:    1
  2372 ;; This function calls:
  2373 ;;		Nothing
  2374 ;; This function is called by:
  2375 ;;		_SendMeasures
  2376 ;;		_PayloadAppend
  2377 ;; This function uses a non-reentrant model
  2378 ;;
  2379                           
  2380                           	psect	text17
  2381  0000'                    __ptext17:
  2382                           	opt stack 0
  2383  0000'                    _PayloadPutByte:
  2384                           	opt stack 28
  2385                           
  2386                           ;payload.c: 37: if (payload->size < 100 - 1) {
  2387                           
  2388                           ;incstack = 0
  2389  0000' EE20 F064          	lfsr	2,100
  2390  0004' 5000'              	movf	PayloadPutByte@payload,w,c
  2391  0006' 26D9               	addwf	fsr2l,f,c
  2392  0008' 5001'              	movf	PayloadPutByte@payload+1,w,c
  2393  000A' 22DA               	addwfc	fsr2h,f,c
  2394  000C' 0E63               	movlw	99
  2395  000E' 60DF               	cpfslt	indf2,c
  2396  0010' 0012               	return	
  2397                           
  2398                           ;payload.c: 38: payload->data[payload->size] = element;
  2399  0012' EE20 F064          	lfsr	2,100
  2400  0016' 5000'              	movf	PayloadPutByte@payload,w,c
  2401  0018' 26D9               	addwf	fsr2l,f,c
  2402  001A' 5001'              	movf	PayloadPutByte@payload+1,w,c
  2403  001C' 22DA               	addwfc	fsr2h,f,c
  2404  001E' 50DF               	movf	indf2,w,c
  2405  0020' 6E00'              	movwf	??_PayloadPutByte& (0+255),c
  2406  0022' 5003'              	movf	??_PayloadPutByte,w,c
  2407  0024' 0D01               	mullw	1
  2408  0026' 50F3               	movf	prodl,w,c
  2409  0028' 2400'              	addwf	PayloadPutByte@payload,w,c
  2410  002A' 6ED9               	movwf	fsr2l,c
  2411  002C' 50F4               	movf	prodh,w,c
  2412  002E' 2001'              	addwfc	PayloadPutByte@payload+1,w,c
  2413  0030' 6EDA               	movwf	fsr2h,c
  2414  0032' C002' FFDF         	movff	PayloadPutByte@element,indf2
  2415                           
  2416                           ;payload.c: 39: payload->size++;
  2417  0036' EE20 F064          	lfsr	2,100
  2418  003A' 5000'              	movf	PayloadPutByte@payload,w,c
  2419  003C' 26D9               	addwf	fsr2l,f,c
  2420  003E' 5001'              	movf	PayloadPutByte@payload+1,w,c
  2421  0040' 22DA               	addwfc	fsr2h,f,c
  2422  0042' 2ADF               	incf	indf2,f,c
  2423  0044' 0012               	return	
  2424  0046' 0012               	return		;funcret
  2425  0048'                    __end_of_PayloadPutByte:
  2426                           	opt stack 0
  2427                           tblptru	equ	0xFF8
  2428                           tblptrh	equ	0xFF7
  2429                           tblptrl	equ	0xFF6
  2430                           tablat	equ	0xFF5
  2431                           prodh	equ	0xFF4
  2432                           prodl	equ	0xFF3
  2433                           intcon	equ	0xFF2
  2434                           intcon2	equ	0xFF1
  2435                           postinc0	equ	0xFEE
  2436                           wreg	equ	0xFE8
  2437                           indf1	equ	0xFE7
  2438                           postdec1	equ	0xFE5
  2439                           fsr1h	equ	0xFE2
  2440                           fsr1l	equ	0xFE1
  2441                           indf2	equ	0xFDF
  2442                           postinc2	equ	0xFDE
  2443                           postdec2	equ	0xFDD
  2444                           fsr2h	equ	0xFDA
  2445                           fsr2l	equ	0xFD9
  2446                           status	equ	0xFD8
  2447                           
  2448 ;; *************** function _PayloadInit *****************
  2449 ;; Defined at:
  2450 ;;		line 25 in file "xbee/payload.c"
  2451 ;; Parameters:    Size  Location     Type
  2452 ;;  payload         2    0[COMRAM] PTR struct Payload
  2453 ;;		 -> SendMeasures@payload(101), 
  2454 ;; Auto vars:     Size  Location     Type
  2455 ;;  i               1    2[COMRAM] unsigned char 
  2456 ;; Return value:  Size  Location     Type
  2457 ;;		None               void
  2458 ;; Registers used:
  2459 ;;		wreg, fsr2l, fsr2h, status,2, status,0, prodl, prodh
  2460 ;; Tracked objects:
  2461 ;;		On entry : 0/0
  2462 ;;		On exit  : 0/0
  2463 ;;		Unchanged: 0/0
  2464 ;; Data sizes:     COMRAM   BANK0   BANK1   BANK2   BANK3   BANK4   BANK5   BANK6   BANK7   BANK8   BANK9  BANK10  BANK1
      +1  BANK12  BANK13  BANK14
  2465 ;;      Params:         2       0       0       0       0       0       0       0       0       0       0       0       
      +0       0       0       0
  2466 ;;      Locals:         1       0       0       0       0       0       0       0       0       0       0       0       
      +0       0       0       0
  2467 ;;      Temps:          0       0       0       0       0       0       0       0       0       0       0       0       
      +0       0       0       0
  2468 ;;      Totals:         3       0       0       0       0       0       0       0       0       0       0       0       
      +0       0       0       0
  2469 ;;Total ram usage:        3 bytes
  2470 ;; Hardware stack levels used:    1
  2471 ;; This function calls:
  2472 ;;		Nothing
  2473 ;; This function is called by:
  2474 ;;		_SendMeasures
  2475 ;; This function uses a non-reentrant model
  2476 ;;
  2477                           
  2478                           	psect	text18
  2479  0000'                    __ptext18:
  2480                           	opt stack 0
  2481  0000'                    _PayloadInit:
  2482                           	opt stack 28
  2483                           
  2484                           ;payload.c: 26: uint8_t i = 100 - 1;
  2485                           
  2486                           ;incstack = 0
  2487  0000' 0E63               	movlw	99
  2488  0002' 6E02'              	movwf	PayloadInit@i,c
  2489                           
  2490                           ;payload.c: 27: payload->size = 0;
  2491  0004' EE20 F064          	lfsr	2,100
  2492  0008' 5000'              	movf	PayloadInit@payload,w,c
  2493  000A' 26D9               	addwf	fsr2l,f,c
  2494  000C' 5001'              	movf	PayloadInit@payload+1,w,c
  2495  000E' 22DA               	addwfc	fsr2h,f,c
  2496  0010' D008               	goto	L1
  2497  0012'                    l2301:
  2498                           
  2499                           ;payload.c: 29: payload->data[i] = (0);
  2500  0012' 5002'              	movf	PayloadInit@i,w,c
  2501  0014' 0D01               	mullw	1
  2502  0016' 50F3               	movf	prodl,w,c
  2503  0018' 2400'              	addwf	PayloadInit@payload,w,c
  2504  001A' 6ED9               	movwf	fsr2l,c
  2505  001C' 50F4               	movf	prodh,w,c
  2506  001E' 2001'              	addwfc	PayloadInit@payload+1,w,c
  2507  0020' 6EDA               	movwf	fsr2h,c
  2508  0022'                    L1:
  2509  0022' 0E00               	movlw	0
  2510  0024' 6EDF               	movwf	indf2,c
  2511  0026' D000               	goto	l2303
  2512  0028'                    l2303:
  2513  0028' 0602'              	decf	PayloadInit@i,f,c
  2514  002A' 2802'              	incf	PayloadInit@i,w,c
  2515  002C' A4D8               	btfss	status,2,c
  2516  002E' D7F1               	goto	l2301
  2517  0030' 0012               	return		;funcret
  2518  0032'                    __end_of_PayloadInit:
  2519                           	opt stack 0
  2520                           tblptru	equ	0xFF8
  2521                           tblptrh	equ	0xFF7
  2522                           tblptrl	equ	0xFF6
  2523                           tablat	equ	0xFF5
  2524                           prodh	equ	0xFF4
  2525                           prodl	equ	0xFF3
  2526                           intcon	equ	0xFF2
  2527                           intcon2	equ	0xFF1
  2528                           postinc0	equ	0xFEE
  2529                           wreg	equ	0xFE8
  2530                           indf1	equ	0xFE7
  2531                           postdec1	equ	0xFE5
  2532                           fsr1h	equ	0xFE2
  2533                           fsr1l	equ	0xFE1
  2534                           indf2	equ	0xFDF
  2535                           postinc2	equ	0xFDE
  2536                           postdec2	equ	0xFDD
  2537                           fsr2h	equ	0xFDA
  2538                           fsr2l	equ	0xFD9
  2539                           status	equ	0xFD8
  2540                           
  2541 ;; *************** function _MeasureSensors *****************
  2542 ;; Defined at:
  2543 ;;		line 21 in file "sensor_proxy.c"
  2544 ;; Parameters:    Size  Location     Type
  2545 ;;		None
  2546 ;; Auto vars:     Size  Location     Type
  2547 ;;		None
  2548 ;; Return value:  Size  Location     Type
  2549 ;;		None               void
  2550 ;; Registers used:
  2551 ;;		wreg, fsr2l, fsr2h, status,2, status,0, cstack
  2552 ;; Tracked objects:
  2553 ;;		On entry : 0/0
  2554 ;;		On exit  : 0/0
  2555 ;;		Unchanged: 0/0
  2556 ;; Data sizes:     COMRAM   BANK0   BANK1   BANK2   BANK3   BANK4   BANK5   BANK6   BANK7   BANK8   BANK9  BANK10  BANK1
      +1  BANK12  BANK13  BANK14
  2557 ;;      Params:         0       0       0       0       0       0       0       0       0       0       0       0       
      +0       0       0       0
  2558 ;;      Locals:         0       0       0       0       0       0       0       0       0       0       0       0       
      +0       0       0       0
  2559 ;;      Temps:          0       0       0       0       0       0       0       0       0       0       0       0       
      +0       0       0       0
  2560 ;;      Totals:         0       0       0       0       0       0       0       0       0       0       0       0       
      +0       0       0       0
  2561 ;;Total ram usage:        0 bytes
  2562 ;; Hardware stack levels used:    1
  2563 ;; Hardware stack levels required when called:    4
  2564 ;; This function calls:
  2565 ;;		_IrcaMeasure
  2566 ;;		_PowerDownSHT11
  2567 ;;		_PowerUpCO2Sensor
  2568 ;;		_PowerUpSHT11
  2569 ;;		_Sht11Measure
  2570 ;; This function is called by:
  2571 ;;		_OnWakeUp
  2572 ;; This function uses a non-reentrant model
  2573 ;;
  2574                           
  2575                           	psect	text19
  2576  0000'                    __ptext19:
  2577                           	opt stack 0
  2578  0000'                    _MeasureSensors:
  2579                           	opt stack 25
  2580                           
  2581                           ;sensor_proxy.c: 23: PowerUpSHT11();
  2582                           
  2583                           ;incstack = 0
  2584  0000' EC00' F000'        	call	_PowerUpSHT11	;wreg free
  2585                           
  2586                           ;sensor_proxy.c: 24: Sht11Measure(&shtData);
  2587  0004' 0E00'              	movlw	low _shtData
  2588  0006' 6E0C'              	movwf	Sht11Measure@data,c
  2589  0008' 0E00'              	movlw	high _shtData
  2590  000A' 6E0D'              	movwf	Sht11Measure@data+1,c
  2591  000C' EC00' F000'        	call	_Sht11Measure	;wreg free
  2592                           
  2593                           ;sensor_proxy.c: 25: PowerDownSHT11();
  2594  0010' EC00' F000'        	call	_PowerDownSHT11	;wreg free
  2595                           
  2596                           ;sensor_proxy.c: 27: PowerUpCO2Sensor();
  2597  0014' EC00' F000'        	call	_PowerUpCO2Sensor	;wreg free
  2598                           
  2599                           ;sensor_proxy.c: 28: IrcaMeasure(&ircaData);
  2600  0018' 0E00'              	movlw	low _ircaData
  2601  001A' 6E0D'              	movwf	IrcaMeasure@data,c
  2602  001C' 0E00'              	movlw	high _ircaData
  2603  001E' 6E0E'              	movwf	IrcaMeasure@data+1,c
  2604  0020' EC00' F000'        	call	_IrcaMeasure	;wreg free
  2605  0024' 0012               	return		;funcret
  2606  0026'                    __end_of_MeasureSensors:
  2607                           	opt stack 0
  2608                           tblptru	equ	0xFF8
  2609                           tblptrh	equ	0xFF7
  2610                           tblptrl	equ	0xFF6
  2611                           tablat	equ	0xFF5
  2612                           prodh	equ	0xFF4
  2613                           prodl	equ	0xFF3
  2614                           intcon	equ	0xFF2
  2615                           intcon2	equ	0xFF1
  2616                           postinc0	equ	0xFEE
  2617                           wreg	equ	0xFE8
  2618                           indf1	equ	0xFE7
  2619                           postdec1	equ	0xFE5
  2620                           fsr1h	equ	0xFE2
  2621                           fsr1l	equ	0xFE1
  2622                           indf2	equ	0xFDF
  2623                           postinc2	equ	0xFDE
  2624                           postdec2	equ	0xFDD
  2625                           fsr2h	equ	0xFDA
  2626                           fsr2l	equ	0xFD9
  2627                           status	equ	0xFD8
  2628                           
  2629 ;; *************** function _Sht11Measure *****************
  2630 ;; Defined at:
  2631 ;;		line 41 in file "sht/sht.c"
  2632 ;; Parameters:    Size  Location     Type
  2633 ;;  data            2   12[COMRAM] PTR struct .
  2634 ;;		 -> shtData(6), 
  2635 ;; Auto vars:     Size  Location     Type
  2636 ;;  error           1   14[COMRAM] unsigned char 
  2637 ;; Return value:  Size  Location     Type
  2638 ;;                  1    wreg      unsigned char 
  2639 ;; Registers used:
  2640 ;;		wreg, fsr2l, fsr2h, status,2, status,0, cstack
  2641 ;; Tracked objects:
  2642 ;;		On entry : 0/0
  2643 ;;		On exit  : 0/0
  2644 ;;		Unchanged: 0/0
  2645 ;; Data sizes:     COMRAM   BANK0   BANK1   BANK2   BANK3   BANK4   BANK5   BANK6   BANK7   BANK8   BANK9  BANK10  BANK1
      +1  BANK12  BANK13  BANK14
  2646 ;;      Params:         2       0       0       0       0       0       0       0       0       0       0       0       
      +0       0       0       0
  2647 ;;      Locals:         1       0       0       0       0       0       0       0       0       0       0       0       
      +0       0       0       0
  2648 ;;      Temps:          0       0       0       0       0       0       0       0       0       0       0       0       
      +0       0       0       0
  2649 ;;      Totals:         3       0       0       0       0       0       0       0       0       0       0       0       
      +0       0       0       0
  2650 ;;Total ram usage:        3 bytes
  2651 ;; Hardware stack levels used:    1
  2652 ;; Hardware stack levels required when called:    3
  2653 ;; This function calls:
  2654 ;;		_Sht11MeasureParam
  2655 ;; This function is called by:
  2656 ;;		_MeasureSensors
  2657 ;; This function uses a non-reentrant model
  2658 ;;
  2659                           
  2660                           	psect	text20
  2661  0000'                    __ptext20:
  2662                           	opt stack 0
  2663  0000'                    _Sht11Measure:
  2664                           	opt stack 25
  2665                           
  2666                           ;sht.c: 42: uint8_t error = 0;
  2667                           
  2668                           ;incstack = 0
  2669  0000' 0E00               	movlw	0
  2670  0002' 6E0E'              	movwf	Sht11Measure@error,c
  2671                           
  2672                           ;sht.c: 44: error += Sht11MeasureParam(&data->temperature.i, &data->tempChk,
  2673                           ;sht.c: 45: 0x03);
  2674  0004' C00C' F004'        	movff	Sht11Measure@data,Sht11MeasureParam@p_value
  2675  0008' C00D' F005'        	movff	Sht11Measure@data+1,Sht11MeasureParam@p_value+1
  2676  000C' 0E04               	movlw	4
  2677  000E' 240C'              	addwf	Sht11Measure@data,w,c
  2678  0010' 6E06'              	movwf	Sht11MeasureParam@p_checksum,c
  2679  0012' 0E00               	movlw	0
  2680  0014' 200D'              	addwfc	Sht11Measure@data+1,w,c
  2681  0016' 6E07'              	movwf	Sht11MeasureParam@p_checksum+1,c
  2682  0018' 0E03               	movlw	3
  2683  001A' 6E08'              	movwf	Sht11MeasureParam@mode,c
  2684  001C' EC00' F000'        	call	_Sht11MeasureParam	;wreg free
  2685  0020' 260E'              	addwf	Sht11Measure@error,f,c
  2686                           
  2687                           ;sht.c: 46: error += Sht11MeasureParam(&data->humidity.i, &data->humiChk,
  2688                           ;sht.c: 47: 0x05);
  2689  0022' 0E02               	movlw	2
  2690  0024' 240C'              	addwf	Sht11Measure@data,w,c
  2691  0026' 6E04'              	movwf	Sht11MeasureParam@p_value,c
  2692  0028' 0E00               	movlw	0
  2693  002A' 200D'              	addwfc	Sht11Measure@data+1,w,c
  2694  002C' 6E05'              	movwf	Sht11MeasureParam@p_value+1,c
  2695  002E' 0E05               	movlw	5
  2696  0030' 240C'              	addwf	Sht11Measure@data,w,c
  2697  0032' 6E06'              	movwf	Sht11MeasureParam@p_checksum,c
  2698  0034' 0E00               	movlw	0
  2699  0036' 200D'              	addwfc	Sht11Measure@data+1,w,c
  2700  0038' 6E07'              	movwf	Sht11MeasureParam@p_checksum+1,c
  2701  003A' 0E05               	movlw	5
  2702  003C' 6E08'              	movwf	Sht11MeasureParam@mode,c
  2703  003E' EC00' F000'        	call	_Sht11MeasureParam	;wreg free
  2704  0042' 260E'              	addwf	Sht11Measure@error,f,c
  2705  0044' 0012               	return	
  2706                           
  2707                           ;sht.c: 48: return error;
  2708                           ;	Return value of _Sht11Measure is never used
  2709  0046' 0012               	return		;funcret
  2710  0048'                    __end_of_Sht11Measure:
  2711                           	opt stack 0
  2712                           tblptru	equ	0xFF8
  2713                           tblptrh	equ	0xFF7
  2714                           tblptrl	equ	0xFF6
  2715                           tablat	equ	0xFF5
  2716                           prodh	equ	0xFF4
  2717                           prodl	equ	0xFF3
  2718                           intcon	equ	0xFF2
  2719                           intcon2	equ	0xFF1
  2720                           postinc0	equ	0xFEE
  2721                           wreg	equ	0xFE8
  2722                           indf1	equ	0xFE7
  2723                           postdec1	equ	0xFE5
  2724                           fsr1h	equ	0xFE2
  2725                           fsr1l	equ	0xFE1
  2726                           indf2	equ	0xFDF
  2727                           postinc2	equ	0xFDE
  2728                           postdec2	equ	0xFDD
  2729                           fsr2h	equ	0xFDA
  2730                           fsr2l	equ	0xFD9
  2731                           status	equ	0xFD8
  2732                           
  2733 ;; *************** function _Sht11MeasureParam *****************
  2734 ;; Defined at:
  2735 ;;		line 124 in file "sht/sht.c"
  2736 ;; Parameters:    Size  Location     Type
  2737 ;;  p_value         2    4[COMRAM] PTR unsigned int 
  2738 ;;		 -> shtData.humidity(2), shtData.temperature(2), shtData(6), 
  2739 ;;  p_checksum      2    6[COMRAM] PTR unsigned char 
  2740 ;;		 -> shtData(6), 
  2741 ;;  mode            1    8[COMRAM] unsigned char 
  2742 ;; Auto vars:     Size  Location     Type
  2743 ;;  error           1   11[COMRAM] unsigned char 
  2744 ;; Return value:  Size  Location     Type
  2745 ;;                  1    wreg      unsigned char 
  2746 ;; Registers used:
  2747 ;;		wreg, fsr2l, fsr2h, status,2, status,0, cstack
  2748 ;; Tracked objects:
  2749 ;;		On entry : 0/0
  2750 ;;		On exit  : 0/0
  2751 ;;		Unchanged: 0/0
  2752 ;; Data sizes:     COMRAM   BANK0   BANK1   BANK2   BANK3   BANK4   BANK5   BANK6   BANK7   BANK8   BANK9  BANK10  BANK1
      +1  BANK12  BANK13  BANK14
  2753 ;;      Params:         5       0       0       0       0       0       0       0       0       0       0       0       
      +0       0       0       0
  2754 ;;      Locals:         1       0       0       0       0       0       0       0       0       0       0       0       
      +0       0       0       0
  2755 ;;      Temps:          2       0       0       0       0       0       0       0       0       0       0       0       
      +0       0       0       0
  2756 ;;      Totals:         8       0       0       0       0       0       0       0       0       0       0       0       
      +0       0       0       0
  2757 ;;Total ram usage:        8 bytes
  2758 ;; Hardware stack levels used:    1
  2759 ;; Hardware stack levels required when called:    2
  2760 ;; This function calls:
  2761 ;;		_Sht11Read
  2762 ;;		_Sht11Start
  2763 ;;		_Sht11Write
  2764 ;; This function is called by:
  2765 ;;		_Sht11Measure
  2766 ;; This function uses a non-reentrant model
  2767 ;;
  2768                           
  2769                           	psect	text21
  2770  0000'                    __ptext21:
  2771                           	opt stack 0
  2772  0000'                    _Sht11MeasureParam:
  2773                           	opt stack 25
  2774                           
  2775                           ;sht.c: 125: uint8_t error = 0;
  2776                           
  2777                           ;incstack = 0
  2778  0000' 0E00               	movlw	0
  2779  0002' 6E0B'              	movwf	Sht11MeasureParam@error,c
  2780                           
  2781                           ;sht.c: 126: TRISAbits.TRISA0 = 0;
  2782  0004' 9092               	bcf	3986,0,c	;volatile
  2783                           
  2784                           ;sht.c: 127: LATAbits.LATA0 = 1;
  2785  0006' 8089               	bsf	3977,0,c	;volatile
  2786                           
  2787                           ;sht.c: 128: Sht11Start();
  2788  0008' EC00' F000'        	call	_Sht11Start	;wreg free
  2789                           
  2790                           ;sht.c: 129: switch (mode) {
  2791  000C' D009               	goto	l2107
  2792  000E'                    l2101:
  2793  000E' 0E03               	movlw	3
  2794  0010' EC00' F000'        	call	_Sht11Write
  2795  0014' D003               	goto	L2
  2796  0016'                    l2103:
  2797  0016' 0E05               	movlw	5
  2798  0018' EC00' F000'        	call	_Sht11Write
  2799  001C'                    L2:
  2800  001C' 260B'              	addwf	Sht11MeasureParam@error,f,c
  2801                           
  2802                           ;sht.c: 135: }
  2803                           
  2804                           ;sht.c: 134: default: break;
  2805                           
  2806                           ;sht.c: 133: break;
  2807  001E' D008               	goto	l2109
  2808  0020'                    l2107:
  2809  0020' 5008'              	movf	Sht11MeasureParam@mode,w,c
  2810                           
  2811                           ; Switch size 1, requested type "space"
  2812                           ; Number of cases is 2, Range of values is 3 to 5
  2813                           ; switch strategies available:
  2814                           ; Name         Instructions Cycles
  2815                           ; simple_byte            7     4 (average)
  2816                           ;	Chosen strategy is simple_byte
  2817  0022' 0A03               	xorlw	3	; case 3
  2818  0024' B4D8               	btfsc	status,2,c
  2819  0026' D7F3               	goto	l2101
  2820  0028' 0A06               	xorlw	6	; case 5
  2821  002A' B4D8               	btfsc	status,2,c
  2822  002C' D7F4               	goto	l2103
  2823  002E' D000               	goto	l2109
  2824  0030'                    l2109:
  2825                           
  2826                           ;sht.c: 136: _delay(10);
  2827  0030' 0E03               	movlw	3
  2828  0032'                    u787:
  2829  0032' 2EE8               	decfsz	wreg,f,c
  2830  0034' D7FE               	goto	u787
  2831  0036' F000               	nop	
  2832                           
  2833                           ;sht.c: 137: TRISAbits.TRISA0 = 1;
  2834  0038' 8092               	bsf	3986,0,c	;volatile
  2835                           
  2836                           ;sht.c: 138: while (PORTAbits.RA0 == 1);
  2837  003A' D000               	goto	l143
  2838  003C'                    l143:
  2839  003C' B080               	btfsc	3968,0,c	;volatile
  2840  003E' D7FE               	goto	l143
  2841                           
  2842                           ;sht.c: 140: *(p_value) = Sht11Read(1);
  2843  0040' 0E01               	movlw	1
  2844  0042' EC00' F000'        	call	_Sht11Read
  2845  0046' 6E00'              	movwf	??_Sht11MeasureParam& (0+255),c
  2846  0048' 6A00'              	clrf	(??_Sht11MeasureParam+1)& (0+255),c
  2847  004A' C004' FFD9         	movff	Sht11MeasureParam@p_value,fsr2l
  2848  004E' C005' FFDA         	movff	Sht11MeasureParam@p_value+1,fsr2h
  2849  0052' C009' FFDE         	movff	??_Sht11MeasureParam,postinc2
  2850  0056' C00A' FFDD         	movff	??_Sht11MeasureParam+1,postdec2
  2851                           
  2852                           ;sht.c: 141: *(p_value) = *(p_value) << 8;
  2853  005A' C004' FFD9         	movff	Sht11MeasureParam@p_value,fsr2l
  2854  005E' C005' FFDA         	movff	Sht11MeasureParam@p_value+1,fsr2h
  2855  0062' CFDE F009'         	movff	postinc2,??_Sht11MeasureParam
  2856  0066' CFDD F00A'         	movff	postdec2,??_Sht11MeasureParam+1
  2857  006A' C009' F00A'        	movff	??_Sht11MeasureParam,??_Sht11MeasureParam+1
  2858  006E' 6A09'              	clrf	??_Sht11MeasureParam,c
  2859  0070' C004' FFD9         	movff	Sht11MeasureParam@p_value,fsr2l
  2860  0074' C005' FFDA         	movff	Sht11MeasureParam@p_value+1,fsr2h
  2861  0078' C009' FFDE         	movff	??_Sht11MeasureParam,postinc2
  2862  007C' C00A' FFDD         	movff	??_Sht11MeasureParam+1,postdec2
  2863                           
  2864                           ;sht.c: 142: *(p_value) += Sht11Read(1);
  2865  0080' 0E01               	movlw	1
  2866  0082' EC00' F000'        	call	_Sht11Read
  2867  0086' 6E00'              	movwf	??_Sht11MeasureParam& (0+255),c
  2868  0088' 5009'              	movf	??_Sht11MeasureParam,w,c
  2869  008A' C004' FFD9         	movff	Sht11MeasureParam@p_value,fsr2l
  2870  008E' C005' FFDA         	movff	Sht11MeasureParam@p_value+1,fsr2h
  2871  0092' 26DE               	addwf	postinc2,f,c
  2872  0094' 0E00               	movlw	0
  2873  0096' 22DD               	addwfc	postdec2,f,c
  2874                           
  2875                           ;sht.c: 143: *p_checksum = Sht11Read(0);
  2876  0098' 0E00               	movlw	0
  2877  009A' EC00' F000'        	call	_Sht11Read
  2878  009E' C006' FFD9         	movff	Sht11MeasureParam@p_checksum,fsr2l
  2879  00A2' C007' FFDA         	movff	Sht11MeasureParam@p_checksum+1,fsr2h
  2880  00A6' 6EDF               	movwf	indf2,c
  2881                           
  2882                           ;sht.c: 145: return error;
  2883  00A8' 500B'              	movf	Sht11MeasureParam@error,w,c
  2884  00AA' 0012               	return	
  2885  00AC' 0012               	return		;funcret
  2886  00AE'                    __end_of_Sht11MeasureParam:
  2887                           	opt stack 0
  2888                           tblptru	equ	0xFF8
  2889                           tblptrh	equ	0xFF7
  2890                           tblptrl	equ	0xFF6
  2891                           tablat	equ	0xFF5
  2892                           prodh	equ	0xFF4
  2893                           prodl	equ	0xFF3
  2894                           intcon	equ	0xFF2
  2895                           intcon2	equ	0xFF1
  2896                           postinc0	equ	0xFEE
  2897                           wreg	equ	0xFE8
  2898                           indf1	equ	0xFE7
  2899                           postdec1	equ	0xFE5
  2900                           fsr1h	equ	0xFE2
  2901                           fsr1l	equ	0xFE1
  2902                           indf2	equ	0xFDF
  2903                           postinc2	equ	0xFDE
  2904                           postdec2	equ	0xFDD
  2905                           fsr2h	equ	0xFDA
  2906                           fsr2l	equ	0xFD9
  2907                           status	equ	0xFD8
  2908                           
  2909 ;; *************** function _Sht11Write *****************
  2910 ;; Defined at:
  2911 ;;		line 51 in file "sht/sht.c"
  2912 ;; Parameters:    Size  Location     Type
  2913 ;;  value           1    wreg     unsigned char 
  2914 ;; Auto vars:     Size  Location     Type
  2915 ;;  value           1    1[COMRAM] unsigned char 
  2916 ;;  i               1    3[COMRAM] unsigned char 
  2917 ;;  error           1    2[COMRAM] unsigned char 
  2918 ;; Return value:  Size  Location     Type
  2919 ;;                  1    wreg      unsigned char 
  2920 ;; Registers used:
  2921 ;;		wreg, status,2, status,0, cstack
  2922 ;; Tracked objects:
  2923 ;;		On entry : 0/0
  2924 ;;		On exit  : 0/0
  2925 ;;		Unchanged: 0/0
  2926 ;; Data sizes:     COMRAM   BANK0   BANK1   BANK2   BANK3   BANK4   BANK5   BANK6   BANK7   BANK8   BANK9  BANK10  BANK1
      +1  BANK12  BANK13  BANK14
  2927 ;;      Params:         0       0       0       0       0       0       0       0       0       0       0       0       
      +0       0       0       0
  2928 ;;      Locals:         3       0       0       0       0       0       0       0       0       0       0       0       
      +0       0       0       0
  2929 ;;      Temps:          0       0       0       0       0       0       0       0       0       0       0       0       
      +0       0       0       0
  2930 ;;      Totals:         3       0       0       0       0       0       0       0       0       0       0       0       
      +0       0       0       0
  2931 ;;Total ram usage:        3 bytes
  2932 ;; Hardware stack levels used:    1
  2933 ;; Hardware stack levels required when called:    1
  2934 ;; This function calls:
  2935 ;;		_Delay10TCYx
  2936 ;; This function is called by:
  2937 ;;		_Sht11MeasureParam
  2938 ;; This function uses a non-reentrant model
  2939 ;;
  2940                           
  2941                           	psect	text22
  2942  0000'                    __ptext22:
  2943                           	opt stack 0
  2944  0000'                    _Sht11Write:
  2945                           	opt stack 25
  2946                           
  2947                           ;incstack = 0
  2948                           ;Sht11Write@value stored from wreg
  2949  0000' 6E01'              	movwf	Sht11Write@value,c
  2950                           
  2951                           ;sht.c: 52: uint8_t i, error = 0;
  2952  0002' 0E00               	movlw	0
  2953  0004' 6E02'              	movwf	Sht11Write@error,c
  2954                           
  2955                           ;sht.c: 54: for (i = 0x80; i > 0; i /= 2) {
  2956  0006' 0E80               	movlw	128
  2957  0008' 6E03'              	movwf	Sht11Write@i,c
  2958  000A'                    l1297:
  2959  000A' 5003'              	movf	Sht11Write@i,w,c
  2960  000C' B4D8               	btfsc	status,2,c
  2961  000E' D019               	goto	l122
  2962  0010' D001               	goto	l1301
  2963  0012' D017               	goto	l122
  2964  0014'                    l1301:
  2965                           
  2966                           ;sht.c: 55: if (i & value) {
  2967  0014' 5003'              	movf	Sht11Write@i,w,c
  2968  0016' 1401'              	andwf	Sht11Write@value,w,c
  2969  0018' 0900               	iorlw	0
  2970  001A' B4D8               	btfsc	status,2,c
  2971  001C' D002               	goto	l123
  2972                           
  2973                           ;sht.c: 56: LATAbits.LATA0 = 1;
  2974  001E' 8089               	bsf	3977,0,c	;volatile
  2975                           
  2976                           ;sht.c: 57: } else {
  2977  0020' D002               	goto	l1305
  2978  0022'                    l123:
  2979                           
  2980                           ;sht.c: 58: LATAbits.LATA0 = 0;
  2981  0022' 9089               	bcf	3977,0,c	;volatile
  2982  0024' D000               	goto	l1305
  2983  0026'                    l1305:
  2984                           
  2985                           ;sht.c: 59: }
  2986                           ;sht.c: 60: Delay10TCYx(10);
  2987  0026' 0E0A               	movlw	10
  2988  0028' EC00' F000'        	call	_Delay10TCYx
  2989                           
  2990                           ;sht.c: 61: LATAbits.LATA1 = 1;
  2991  002C' 8289               	bsf	3977,1,c	;volatile
  2992                           
  2993                           ;sht.c: 62: Delay10TCYx(10);
  2994  002E' 0E0A               	movlw	10
  2995  0030' EC00' F000'        	call	_Delay10TCYx
  2996                           
  2997                           ;sht.c: 63: LATAbits.LATA1 = 0;
  2998  0034' 9289               	bcf	3977,1,c	;volatile
  2999                           
  3000                           ;sht.c: 64: Delay10TCYx(10);
  3001  0036' 0E0A               	movlw	10
  3002  0038' EC00' F000'        	call	_Delay10TCYx
  3003  003C' 90D8               	bcf	status,0,c
  3004  003E' 3203'              	rrcf	Sht11Write@i,f,c
  3005  0040' D7E4               	goto	l1297
  3006  0042'                    l122:
  3007                           
  3008                           ;sht.c: 65: }
  3009                           ;sht.c: 66: LATAbits.LATA0 = 1;
  3010  0042' 8089               	bsf	3977,0,c	;volatile
  3011                           
  3012                           ;sht.c: 67: Delay10TCYx(10);
  3013  0044' 0E0A               	movlw	10
  3014  0046' EC00' F000'        	call	_Delay10TCYx
  3015                           
  3016                           ;sht.c: 68: LATAbits.LATA1 = 1;
  3017  004A' 8289               	bsf	3977,1,c	;volatile
  3018                           
  3019                           ;sht.c: 69: Delay10TCYx(10);
  3020  004C' 0E0A               	movlw	10
  3021  004E' EC00' F000'        	call	_Delay10TCYx
  3022                           
  3023                           ;sht.c: 71: TRISAbits.TRISA0 = 1;
  3024  0052' 8092               	bsf	3986,0,c	;volatile
  3025                           
  3026                           ;sht.c: 73: error = PORTAbits.RA0;
  3027  0054' 0E00               	movlw	0
  3028  0056' B080               	btfsc	3968,0,c	;volatile
  3029  0058' 0E01               	movlw	1
  3030  005A' 6E02'              	movwf	Sht11Write@error,c
  3031                           
  3032                           ;sht.c: 74: LATAbits.LATA1 = 0;
  3033  005C' 9289               	bcf	3977,1,c	;volatile
  3034                           
  3035                           ;sht.c: 75: return error;
  3036  005E' 5002'              	movf	Sht11Write@error,w,c
  3037  0060' 0012               	return	
  3038  0062' 0012               	return		;funcret
  3039  0064'                    __end_of_Sht11Write:
  3040                           	opt stack 0
  3041                           tblptru	equ	0xFF8
  3042                           tblptrh	equ	0xFF7
  3043                           tblptrl	equ	0xFF6
  3044                           tablat	equ	0xFF5
  3045                           prodh	equ	0xFF4
  3046                           prodl	equ	0xFF3
  3047                           intcon	equ	0xFF2
  3048                           intcon2	equ	0xFF1
  3049                           postinc0	equ	0xFEE
  3050                           wreg	equ	0xFE8
  3051                           indf1	equ	0xFE7
  3052                           postdec1	equ	0xFE5
  3053                           fsr1h	equ	0xFE2
  3054                           fsr1l	equ	0xFE1
  3055                           indf2	equ	0xFDF
  3056                           postinc2	equ	0xFDE
  3057                           postdec2	equ	0xFDD
  3058                           fsr2h	equ	0xFDA
  3059                           fsr2l	equ	0xFD9
  3060                           status	equ	0xFD8
  3061                           
  3062 ;; *************** function _Sht11Start *****************
  3063 ;; Defined at:
  3064 ;;		line 107 in file "sht/sht.c"
  3065 ;; Parameters:    Size  Location     Type
  3066 ;;		None
  3067 ;; Auto vars:     Size  Location     Type
  3068 ;;		None
  3069 ;; Return value:  Size  Location     Type
  3070 ;;		None               void
  3071 ;; Registers used:
  3072 ;;		wreg, cstack
  3073 ;; Tracked objects:
  3074 ;;		On entry : 0/0
  3075 ;;		On exit  : 0/0
  3076 ;;		Unchanged: 0/0
  3077 ;; Data sizes:     COMRAM   BANK0   BANK1   BANK2   BANK3   BANK4   BANK5   BANK6   BANK7   BANK8   BANK9  BANK10  BANK1
      +1  BANK12  BANK13  BANK14
  3078 ;;      Params:         0       0       0       0       0       0       0       0       0       0       0       0       
      +0       0       0       0
  3079 ;;      Locals:         0       0       0       0       0       0       0       0       0       0       0       0       
      +0       0       0       0
  3080 ;;      Temps:          0       0       0       0       0       0       0       0       0       0       0       0       
      +0       0       0       0
  3081 ;;      Totals:         0       0       0       0       0       0       0       0       0       0       0       0       
      +0       0       0       0
  3082 ;;Total ram usage:        0 bytes
  3083 ;; Hardware stack levels used:    1
  3084 ;; Hardware stack levels required when called:    1
  3085 ;; This function calls:
  3086 ;;		_Delay10TCYx
  3087 ;; This function is called by:
  3088 ;;		_Sht11MeasureParam
  3089 ;; This function uses a non-reentrant model
  3090 ;;
  3091                           
  3092                           	psect	text23
  3093  0000'                    __ptext23:
  3094                           	opt stack 0
  3095  0000'                    _Sht11Start:
  3096                           	opt stack 25
  3097                           
  3098                           ;sht.c: 108: LATAbits.LATA0 = 1;
  3099                           
  3100                           ;incstack = 0
  3101  0000' 8089               	bsf	3977,0,c	;volatile
  3102                           
  3103                           ;sht.c: 109: LATAbits.LATA1 = 0;
  3104  0002' 9289               	bcf	3977,1,c	;volatile
  3105                           
  3106                           ;sht.c: 110: Delay10TCYx(10);
  3107  0004' 0E0A               	movlw	10
  3108  0006' EC00' F000'        	call	_Delay10TCYx
  3109                           
  3110                           ;sht.c: 111: LATAbits.LATA1 = 1;
  3111  000A' 8289               	bsf	3977,1,c	;volatile
  3112                           
  3113                           ;sht.c: 112: Delay10TCYx(10);
  3114  000C' 0E0A               	movlw	10
  3115  000E' EC00' F000'        	call	_Delay10TCYx
  3116                           
  3117                           ;sht.c: 113: LATAbits.LATA0 = 0;
  3118  0012' 9089               	bcf	3977,0,c	;volatile
  3119                           
  3120                           ;sht.c: 114: Delay10TCYx(10);
  3121  0014' 0E0A               	movlw	10
  3122  0016' EC00' F000'        	call	_Delay10TCYx
  3123                           
  3124                           ;sht.c: 115: LATAbits.LATA1 = 0;
  3125  001A' 9289               	bcf	3977,1,c	;volatile
  3126                           
  3127                           ;sht.c: 116: Delay10TCYx(10);
  3128  001C' 0E0A               	movlw	10
  3129  001E' EC00' F000'        	call	_Delay10TCYx
  3130                           
  3131                           ;sht.c: 117: LATAbits.LATA1 = 1;
  3132  0022' 8289               	bsf	3977,1,c	;volatile
  3133                           
  3134                           ;sht.c: 118: Delay10TCYx(10);
  3135  0024' 0E0A               	movlw	10
  3136  0026' EC00' F000'        	call	_Delay10TCYx
  3137                           
  3138                           ;sht.c: 119: LATAbits.LATA0 = 1;
  3139  002A' 8089               	bsf	3977,0,c	;volatile
  3140                           
  3141                           ;sht.c: 120: Delay10TCYx(10);
  3142  002C' 0E0A               	movlw	10
  3143  002E' EC00' F000'        	call	_Delay10TCYx
  3144                           
  3145                           ;sht.c: 121: LATAbits.LATA1 = 0;
  3146  0032' 9289               	bcf	3977,1,c	;volatile
  3147  0034' 0012               	return		;funcret
  3148  0036'                    __end_of_Sht11Start:
  3149                           	opt stack 0
  3150                           tblptru	equ	0xFF8
  3151                           tblptrh	equ	0xFF7
  3152                           tblptrl	equ	0xFF6
  3153                           tablat	equ	0xFF5
  3154                           prodh	equ	0xFF4
  3155                           prodl	equ	0xFF3
  3156                           intcon	equ	0xFF2
  3157                           intcon2	equ	0xFF1
  3158                           postinc0	equ	0xFEE
  3159                           wreg	equ	0xFE8
  3160                           indf1	equ	0xFE7
  3161                           postdec1	equ	0xFE5
  3162                           fsr1h	equ	0xFE2
  3163                           fsr1l	equ	0xFE1
  3164                           indf2	equ	0xFDF
  3165                           postinc2	equ	0xFDE
  3166                           postdec2	equ	0xFDD
  3167                           fsr2h	equ	0xFDA
  3168                           fsr2l	equ	0xFD9
  3169                           status	equ	0xFD8
  3170                           
  3171 ;; *************** function _Sht11Read *****************
  3172 ;; Defined at:
  3173 ;;		line 78 in file "sht/sht.c"
  3174 ;; Parameters:    Size  Location     Type
  3175 ;;  ack             1    wreg     unsigned char 
  3176 ;; Auto vars:     Size  Location     Type
  3177 ;;  ack             1    1[COMRAM] unsigned char 
  3178 ;;  i               1    3[COMRAM] unsigned char 
  3179 ;;  val             1    2[COMRAM] unsigned char 
  3180 ;; Return value:  Size  Location     Type
  3181 ;;                  1    wreg      unsigned char 
  3182 ;; Registers used:
  3183 ;;		wreg, status,2, status,0, cstack
  3184 ;; Tracked objects:
  3185 ;;		On entry : 0/0
  3186 ;;		On exit  : 0/0
  3187 ;;		Unchanged: 0/0
  3188 ;; Data sizes:     COMRAM   BANK0   BANK1   BANK2   BANK3   BANK4   BANK5   BANK6   BANK7   BANK8   BANK9  BANK10  BANK1
      +1  BANK12  BANK13  BANK14
  3189 ;;      Params:         0       0       0       0       0       0       0       0       0       0       0       0       
      +0       0       0       0
  3190 ;;      Locals:         3       0       0       0       0       0       0       0       0       0       0       0       
      +0       0       0       0
  3191 ;;      Temps:          0       0       0       0       0       0       0       0       0       0       0       0       
      +0       0       0       0
  3192 ;;      Totals:         3       0       0       0       0       0       0       0       0       0       0       0       
      +0       0       0       0
  3193 ;;Total ram usage:        3 bytes
  3194 ;; Hardware stack levels used:    1
  3195 ;; Hardware stack levels required when called:    1
  3196 ;; This function calls:
  3197 ;;		_Delay10TCYx
  3198 ;; This function is called by:
  3199 ;;		_Sht11MeasureParam
  3200 ;; This function uses a non-reentrant model
  3201 ;;
  3202                           
  3203                           	psect	text24
  3204  0000'                    __ptext24:
  3205                           	opt stack 0
  3206  0000'                    _Sht11Read:
  3207                           	opt stack 25
  3208                           
  3209                           ;incstack = 0
  3210                           ;Sht11Read@ack stored from wreg
  3211  0000' 6E01'              	movwf	Sht11Read@ack,c
  3212                           
  3213                           ;sht.c: 79: uint8_t i, val = 0;
  3214  0002' 0E00               	movlw	0
  3215  0004' 6E02'              	movwf	Sht11Read@val,c
  3216                           
  3217                           ;sht.c: 80: TRISAbits.TRISA0 = 1;
  3218  0006' 8092               	bsf	3986,0,c	;volatile
  3219                           
  3220                           ;sht.c: 81: LATAbits.LATA0 = 1;
  3221  0008' 8089               	bsf	3977,0,c	;volatile
  3222                           
  3223                           ;sht.c: 82: for (i = 0x80; i > 0; i /= 2)
  3224  000A' 0E80               	movlw	128
  3225  000C' 6E03'              	movwf	Sht11Read@i,c
  3226  000E'                    l1335:
  3227  000E' 5003'              	movf	Sht11Read@i,w,c
  3228  0010' B4D8               	btfsc	status,2,c
  3229  0012' D013               	goto	l1355
  3230  0014' D001               	goto	l1339
  3231  0016' D011               	goto	l1355
  3232  0018'                    l1339:
  3233                           
  3234                           ;sht.c: 83: {
  3235                           ;sht.c: 84: Delay10TCYx(10);
  3236  0018' 0E0A               	movlw	10
  3237  001A' EC00' F000'        	call	_Delay10TCYx
  3238                           
  3239                           ;sht.c: 85: LATAbits.LATA1 = 1;
  3240  001E' 8289               	bsf	3977,1,c	;volatile
  3241                           
  3242                           ;sht.c: 86: if (PORTAbits.RA0) {
  3243  0020' A080               	btfss	3968,0,c	;volatile
  3244  0022' D004               	goto	l1347
  3245                           
  3246                           ;sht.c: 87: val = (val | i);
  3247  0024' 5002'              	movf	Sht11Read@val,w,c
  3248  0026' 1003'              	iorwf	Sht11Read@i,w,c
  3249  0028' 6E02'              	movwf	Sht11Read@val,c
  3250  002A' D000               	goto	l1347
  3251  002C'                    l1347:
  3252                           
  3253                           ;sht.c: 88: }
  3254                           ;sht.c: 89: Delay10TCYx(10);
  3255  002C' 0E0A               	movlw	10
  3256  002E' EC00' F000'        	call	_Delay10TCYx
  3257                           
  3258                           ;sht.c: 90: LATAbits.LATA1 = 0;
  3259  0032' 9289               	bcf	3977,1,c	;volatile
  3260  0034' 90D8               	bcf	status,0,c
  3261  0036' 3203'              	rrcf	Sht11Read@i,f,c
  3262  0038' D7EA               	goto	l1335
  3263  003A'                    l1355:
  3264                           
  3265                           ;sht.c: 91: }
  3266                           ;sht.c: 93: if (ack) {
  3267  003A' 5001'              	movf	Sht11Read@ack,w,c
  3268  003C' B4D8               	btfsc	status,2,c
  3269  003E' D003               	goto	l1359
  3270                           
  3271                           ;sht.c: 94: TRISAbits.TRISA0 = 0;
  3272  0040' 9092               	bcf	3986,0,c	;volatile
  3273                           
  3274                           ;sht.c: 95: LATAbits.LATA0 = 0;
  3275  0042' 9089               	bcf	3977,0,c	;volatile
  3276  0044' D000               	goto	l1359
  3277  0046'                    l1359:
  3278                           
  3279                           ;sht.c: 96: }
  3280                           ;sht.c: 97: Delay10TCYx(10);
  3281  0046' 0E0A               	movlw	10
  3282  0048' EC00' F000'        	call	_Delay10TCYx
  3283                           
  3284                           ;sht.c: 98: LATAbits.LATA1 = 1;
  3285  004C' 8289               	bsf	3977,1,c	;volatile
  3286                           
  3287                           ;sht.c: 99: Delay10TCYx(10);
  3288  004E' 0E0A               	movlw	10
  3289  0050' EC00' F000'        	call	_Delay10TCYx
  3290                           
  3291                           ;sht.c: 100: LATAbits.LATA1 = 0;
  3292  0054' 9289               	bcf	3977,1,c	;volatile
  3293                           
  3294                           ;sht.c: 101: Delay10TCYx(10);
  3295  0056' 0E0A               	movlw	10
  3296  0058' EC00' F000'        	call	_Delay10TCYx
  3297                           
  3298                           ;sht.c: 102: return val;
  3299  005C' 5002'              	movf	Sht11Read@val,w,c
  3300  005E' 0012               	return	
  3301  0060' 0012               	return		;funcret
  3302  0062'                    __end_of_Sht11Read:
  3303                           	opt stack 0
  3304                           tblptru	equ	0xFF8
  3305                           tblptrh	equ	0xFF7
  3306                           tblptrl	equ	0xFF6
  3307                           tablat	equ	0xFF5
  3308                           prodh	equ	0xFF4
  3309                           prodl	equ	0xFF3
  3310                           intcon	equ	0xFF2
  3311                           intcon2	equ	0xFF1
  3312                           postinc0	equ	0xFEE
  3313                           wreg	equ	0xFE8
  3314                           indf1	equ	0xFE7
  3315                           postdec1	equ	0xFE5
  3316                           fsr1h	equ	0xFE2
  3317                           fsr1l	equ	0xFE1
  3318                           indf2	equ	0xFDF
  3319                           postinc2	equ	0xFDE
  3320                           postdec2	equ	0xFDD
  3321                           fsr2h	equ	0xFDA
  3322                           fsr2l	equ	0xFD9
  3323                           status	equ	0xFD8
  3324                           
  3325 ;; *************** function _Delay10TCYx *****************
  3326 ;; Defined at:
  3327 ;;		line 8 in file "C:\Program Files (x86)\Microchip\xc8\v1.34\sources\pic18\d10tcyx.c"
  3328 ;; Parameters:    Size  Location     Type
  3329 ;;  unit            1    wreg     unsigned char 
  3330 ;; Auto vars:     Size  Location     Type
  3331 ;;  unit            1    0[COMRAM] unsigned char 
  3332 ;; Return value:  Size  Location     Type
  3333 ;;		None               void
  3334 ;; Registers used:
  3335 ;;		wreg
  3336 ;; Tracked objects:
  3337 ;;		On entry : 0/0
  3338 ;;		On exit  : 0/0
  3339 ;;		Unchanged: 0/0
  3340 ;; Data sizes:     COMRAM   BANK0   BANK1   BANK2   BANK3   BANK4   BANK5   BANK6   BANK7   BANK8   BANK9  BANK10  BANK1
      +1  BANK12  BANK13  BANK14
  3341 ;;      Params:         0       0       0       0       0       0       0       0       0       0       0       0       
      +0       0       0       0
  3342 ;;      Locals:         1       0       0       0       0       0       0       0       0       0       0       0       
      +0       0       0       0
  3343 ;;      Temps:          0       0       0       0       0       0       0       0       0       0       0       0       
      +0       0       0       0
  3344 ;;      Totals:         1       0       0       0       0       0       0       0       0       0       0       0       
      +0       0       0       0
  3345 ;;Total ram usage:        1 bytes
  3346 ;; Hardware stack levels used:    1
  3347 ;; This function calls:
  3348 ;;		Nothing
  3349 ;; This function is called by:
  3350 ;;		_Sht11Write
  3351 ;;		_Sht11Read
  3352 ;;		_Sht11Start
  3353 ;; This function uses a non-reentrant model
  3354 ;;
  3355                           
  3356                           	psect	text25
  3357  0000'                    __ptext25:
  3358                           	opt stack 0
  3359  0000'                    _Delay10TCYx:
  3360                           	opt stack 25
  3361                           
  3362                           ;incstack = 0
  3363                           ;Delay10TCYx@unit stored from wreg
  3364  0000' 6E00'              	movwf	Delay10TCYx@unit,c
  3365  0002' 0E03               	movlw	3
  3366  0004'                    u797:
  3367  0004' 2EE8               	decfsz	wreg,f,c
  3368  0006' D7FE               	goto	u797
  3369  0008' F000               	nop	
  3370  000A' 2E00'              	decfsz	Delay10TCYx@unit,f,c
  3371  000C' D7FA               	goto	l1287
  3372  000E' 0012               	return	
  3373  0010' 0012               	return		;funcret
  3374  0012'                    __end_of_Delay10TCYx:
  3375                           	opt stack 0
  3376                           tblptru	equ	0xFF8
  3377                           tblptrh	equ	0xFF7
  3378                           tblptrl	equ	0xFF6
  3379                           tablat	equ	0xFF5
  3380                           prodh	equ	0xFF4
  3381                           prodl	equ	0xFF3
  3382                           intcon	equ	0xFF2
  3383                           intcon2	equ	0xFF1
  3384                           postinc0	equ	0xFEE
  3385                           wreg	equ	0xFE8
  3386                           indf1	equ	0xFE7
  3387                           postdec1	equ	0xFE5
  3388                           fsr1h	equ	0xFE2
  3389                           fsr1l	equ	0xFE1
  3390                           indf2	equ	0xFDF
  3391                           postinc2	equ	0xFDE
  3392                           postdec2	equ	0xFDD
  3393                           fsr2h	equ	0xFDA
  3394                           fsr2l	equ	0xFD9
  3395                           status	equ	0xFD8
  3396                           
  3397 ;; *************** function _PowerUpSHT11 *****************
  3398 ;; Defined at:
  3399 ;;		line 41 in file "sensor_proxy.c"
  3400 ;; Parameters:    Size  Location     Type
  3401 ;;		None
  3402 ;; Auto vars:     Size  Location     Type
  3403 ;;		None
  3404 ;; Return value:  Size  Location     Type
  3405 ;;		None               void
  3406 ;; Registers used:
  3407 ;;		None
  3408 ;; Tracked objects:
  3409 ;;		On entry : 0/0
  3410 ;;		On exit  : 0/0
  3411 ;;		Unchanged: 0/0
  3412 ;; Data sizes:     COMRAM   BANK0   BANK1   BANK2   BANK3   BANK4   BANK5   BANK6   BANK7   BANK8   BANK9  BANK10  BANK1
      +1  BANK12  BANK13  BANK14
  3413 ;;      Params:         0       0       0       0       0       0       0       0       0       0       0       0       
      +0       0       0       0
  3414 ;;      Locals:         0       0       0       0       0       0       0       0       0       0       0       0       
      +0       0       0       0
  3415 ;;      Temps:          0       0       0       0       0       0       0       0       0       0       0       0       
      +0       0       0       0
  3416 ;;      Totals:         0       0       0       0       0       0       0       0       0       0       0       0       
      +0       0       0       0
  3417 ;;Total ram usage:        0 bytes
  3418 ;; Hardware stack levels used:    1
  3419 ;; This function calls:
  3420 ;;		Nothing
  3421 ;; This function is called by:
  3422 ;;		_MeasureSensors
  3423 ;; This function uses a non-reentrant model
  3424 ;;
  3425                           
  3426                           	psect	text26
  3427  0000'                    __ptext26:
  3428                           	opt stack 0
  3429  0000'                    _PowerUpSHT11:
  3430                           	opt stack 28
  3431                           
  3432                           ;sensor_proxy.c: 42: TRISAbits.TRISA5 = 0;
  3433                           
  3434                           ;incstack = 0
  3435  0000' 9A92               	bcf	3986,5,c	;volatile
  3436                           
  3437                           ;sensor_proxy.c: 43: PORTAbits.RA5 = 1;
  3438  0002' 8A80               	bsf	3968,5,c	;volatile
  3439  0004' 0012               	return		;funcret
  3440  0006'                    __end_of_PowerUpSHT11:
  3441                           	opt stack 0
  3442                           tblptru	equ	0xFF8
  3443                           tblptrh	equ	0xFF7
  3444                           tblptrl	equ	0xFF6
  3445                           tablat	equ	0xFF5
  3446                           prodh	equ	0xFF4
  3447                           prodl	equ	0xFF3
  3448                           intcon	equ	0xFF2
  3449                           intcon2	equ	0xFF1
  3450                           postinc0	equ	0xFEE
  3451                           wreg	equ	0xFE8
  3452                           indf1	equ	0xFE7
  3453                           postdec1	equ	0xFE5
  3454                           fsr1h	equ	0xFE2
  3455                           fsr1l	equ	0xFE1
  3456                           indf2	equ	0xFDF
  3457                           postinc2	equ	0xFDE
  3458                           postdec2	equ	0xFDD
  3459                           fsr2h	equ	0xFDA
  3460                           fsr2l	equ	0xFD9
  3461                           status	equ	0xFD8
  3462                           
  3463 ;; *************** function _PowerUpCO2Sensor *****************
  3464 ;; Defined at:
  3465 ;;		line 32 in file "sensor_proxy.c"
  3466 ;; Parameters:    Size  Location     Type
  3467 ;;		None
  3468 ;; Auto vars:     Size  Location     Type
  3469 ;;		None
  3470 ;; Return value:  Size  Location     Type
  3471 ;;		None               void
  3472 ;; Registers used:
  3473 ;;		None
  3474 ;; Tracked objects:
  3475 ;;		On entry : 0/0
  3476 ;;		On exit  : 0/0
  3477 ;;		Unchanged: 0/0
  3478 ;; Data sizes:     COMRAM   BANK0   BANK1   BANK2   BANK3   BANK4   BANK5   BANK6   BANK7   BANK8   BANK9  BANK10  BANK1
      +1  BANK12  BANK13  BANK14
  3479 ;;      Params:         0       0       0       0       0       0       0       0       0       0       0       0       
      +0       0       0       0
  3480 ;;      Locals:         0       0       0       0       0       0       0       0       0       0       0       0       
      +0       0       0       0
  3481 ;;      Temps:          0       0       0       0       0       0       0       0       0       0       0       0       
      +0       0       0       0
  3482 ;;      Totals:         0       0       0       0       0       0       0       0       0       0       0       0       
      +0       0       0       0
  3483 ;;Total ram usage:        0 bytes
  3484 ;; Hardware stack levels used:    1
  3485 ;; This function calls:
  3486 ;;		Nothing
  3487 ;; This function is called by:
  3488 ;;		_MeasureSensors
  3489 ;; This function uses a non-reentrant model
  3490 ;;
  3491                           
  3492                           	psect	text27
  3493  0000'                    __ptext27:
  3494                           	opt stack 0
  3495  0000'                    _PowerUpCO2Sensor:
  3496                           	opt stack 28
  3497                           
  3498                           ;sensor_proxy.c: 33: TRISBbits.TRISB2 = 0;
  3499                           
  3500                           ;incstack = 0
  3501  0000' 9493               	bcf	3987,2,c	;volatile
  3502                           
  3503                           ;sensor_proxy.c: 34: PORTBbits.RB2 = 1;
  3504  0002' 8481               	bsf	3969,2,c	;volatile
  3505  0004' 0012               	return		;funcret
  3506  0006'                    __end_of_PowerUpCO2Sensor:
  3507                           	opt stack 0
  3508                           tblptru	equ	0xFF8
  3509                           tblptrh	equ	0xFF7
  3510                           tblptrl	equ	0xFF6
  3511                           tablat	equ	0xFF5
  3512                           prodh	equ	0xFF4
  3513                           prodl	equ	0xFF3
  3514                           intcon	equ	0xFF2
  3515                           intcon2	equ	0xFF1
  3516                           postinc0	equ	0xFEE
  3517                           wreg	equ	0xFE8
  3518                           indf1	equ	0xFE7
  3519                           postdec1	equ	0xFE5
  3520                           fsr1h	equ	0xFE2
  3521                           fsr1l	equ	0xFE1
  3522                           indf2	equ	0xFDF
  3523                           postinc2	equ	0xFDE
  3524                           postdec2	equ	0xFDD
  3525                           fsr2h	equ	0xFDA
  3526                           fsr2l	equ	0xFD9
  3527                           status	equ	0xFD8
  3528                           
  3529 ;; *************** function _PowerDownSHT11 *****************
  3530 ;; Defined at:
  3531 ;;		line 46 in file "sensor_proxy.c"
  3532 ;; Parameters:    Size  Location     Type
  3533 ;;		None
  3534 ;; Auto vars:     Size  Location     Type
  3535 ;;		None
  3536 ;; Return value:  Size  Location     Type
  3537 ;;		None               void
  3538 ;; Registers used:
  3539 ;;		None
  3540 ;; Tracked objects:
  3541 ;;		On entry : 0/0
  3542 ;;		On exit  : 0/0
  3543 ;;		Unchanged: 0/0
  3544 ;; Data sizes:     COMRAM   BANK0   BANK1   BANK2   BANK3   BANK4   BANK5   BANK6   BANK7   BANK8   BANK9  BANK10  BANK1
      +1  BANK12  BANK13  BANK14
  3545 ;;      Params:         0       0       0       0       0       0       0       0       0       0       0       0       
      +0       0       0       0
  3546 ;;      Locals:         0       0       0       0       0       0       0       0       0       0       0       0       
      +0       0       0       0
  3547 ;;      Temps:          0       0       0       0       0       0       0       0       0       0       0       0       
      +0       0       0       0
  3548 ;;      Totals:         0       0       0       0       0       0       0       0       0       0       0       0       
      +0       0       0       0
  3549 ;;Total ram usage:        0 bytes
  3550 ;; Hardware stack levels used:    1
  3551 ;; This function calls:
  3552 ;;		Nothing
  3553 ;; This function is called by:
  3554 ;;		_MeasureSensors
  3555 ;; This function uses a non-reentrant model
  3556 ;;
  3557                           
  3558                           	psect	text28
  3559  0000'                    __ptext28:
  3560                           	opt stack 0
  3561  0000'                    _PowerDownSHT11:
  3562                           	opt stack 28
  3563                           
  3564                           ;sensor_proxy.c: 47: PORTAbits.RA5 = 0;
  3565                           
  3566                           ;incstack = 0
  3567  0000' 9A80               	bcf	3968,5,c	;volatile
  3568  0002' 0012               	return		;funcret
  3569  0004'                    __end_of_PowerDownSHT11:
  3570                           	opt stack 0
  3571                           tblptru	equ	0xFF8
  3572                           tblptrh	equ	0xFF7
  3573                           tblptrl	equ	0xFF6
  3574                           tablat	equ	0xFF5
  3575                           prodh	equ	0xFF4
  3576                           prodl	equ	0xFF3
  3577                           intcon	equ	0xFF2
  3578                           intcon2	equ	0xFF1
  3579                           postinc0	equ	0xFEE
  3580                           wreg	equ	0xFE8
  3581                           indf1	equ	0xFE7
  3582                           postdec1	equ	0xFE5
  3583                           fsr1h	equ	0xFE2
  3584                           fsr1l	equ	0xFE1
  3585                           indf2	equ	0xFDF
  3586                           postinc2	equ	0xFDE
  3587                           postdec2	equ	0xFDD
  3588                           fsr2h	equ	0xFDA
  3589                           fsr2l	equ	0xFD9
  3590                           status	equ	0xFD8
  3591                           
  3592 ;; *************** function _IrcaMeasure *****************
  3593 ;; Defined at:
  3594 ;;		line 14 in file "irca/irca.c"
  3595 ;; Parameters:    Size  Location     Type
  3596 ;;  data            2   13[COMRAM] PTR struct .
  3597 ;;		 -> ircaData(6), 
  3598 ;; Auto vars:     Size  Location     Type
  3599 ;;		None
  3600 ;; Return value:  Size  Location     Type
  3601 ;;		None               void
  3602 ;; Registers used:
  3603 ;;		wreg, fsr2l, fsr2h, status,2, status,0, cstack
  3604 ;; Tracked objects:
  3605 ;;		On entry : 0/0
  3606 ;;		On exit  : 0/0
  3607 ;;		Unchanged: 0/0
  3608 ;; Data sizes:     COMRAM   BANK0   BANK1   BANK2   BANK3   BANK4   BANK5   BANK6   BANK7   BANK8   BANK9  BANK10  BANK1
      +1  BANK12  BANK13  BANK14
  3609 ;;      Params:         2       0       0       0       0       0       0       0       0       0       0       0       
      +0       0       0       0
  3610 ;;      Locals:         0       0       0       0       0       0       0       0       0       0       0       0       
      +0       0       0       0
  3611 ;;      Temps:          0       0       0       0       0       0       0       0       0       0       0       0       
      +0       0       0       0
  3612 ;;      Totals:         2       0       0       0       0       0       0       0       0       0       0       0       
      +0       0       0       0
  3613 ;;Total ram usage:        2 bytes
  3614 ;; Hardware stack levels used:    1
  3615 ;; Hardware stack levels required when called:    2
  3616 ;; This function calls:
  3617 ;;		_AdcConvert
  3618 ;;		_SampleAndHoldReset
  3619 ;; This function is called by:
  3620 ;;		_MeasureSensors
  3621 ;; This function uses a non-reentrant model
  3622 ;;
  3623                           
  3624                           	psect	text29
  3625  0000'                    __ptext29:
  3626                           	opt stack 0
  3627  0000'                    _IrcaMeasure:
  3628                           	opt stack 26
  3629                           
  3630                           ;irca.c: 15: SampleAndHoldReset();
  3631                           
  3632                           ;incstack = 0
  3633  0000' EC00' F000'        	call	_SampleAndHoldReset	;wreg free
  3634                           
  3635                           ;irca.c: 16: AdcConvert(10, &data->out);
  3636  0004' C00D' F002'        	movff	IrcaMeasure@data,AdcConvert@result
  3637  0008' C00E' F003'        	movff	IrcaMeasure@data+1,AdcConvert@result+1
  3638  000C' 0E0A               	movlw	10
  3639  000E' EC00' F000'        	call	_AdcConvert
  3640                           
  3641                           ;irca.c: 17: AdcConvert(11, &data->ref);
  3642  0012' 0E04               	movlw	4
  3643  0014' 240D'              	addwf	IrcaMeasure@data,w,c
  3644  0016' 6E02'              	movwf	AdcConvert@result,c
  3645  0018' 0E00               	movlw	0
  3646  001A' 200E'              	addwfc	IrcaMeasure@data+1,w,c
  3647  001C' 6E03'              	movwf	AdcConvert@result+1,c
  3648  001E' 0E0B               	movlw	11
  3649  0020' EC00' F000'        	call	_AdcConvert
  3650                           
  3651                           ;irca.c: 18: AdcConvert(9, &data->tmp);
  3652  0024' 0E02               	movlw	2
  3653  0026' 240D'              	addwf	IrcaMeasure@data,w,c
  3654  0028' 6E02'              	movwf	AdcConvert@result,c
  3655  002A' 0E00               	movlw	0
  3656  002C' 200E'              	addwfc	IrcaMeasure@data+1,w,c
  3657  002E' 6E03'              	movwf	AdcConvert@result+1,c
  3658  0030' 0E09               	movlw	9
  3659  0032' EC00' F000'        	call	_AdcConvert
  3660  0036' 0012               	return		;funcret
  3661  0038'                    __end_of_IrcaMeasure:
  3662                           	opt stack 0
  3663                           tblptru	equ	0xFF8
  3664                           tblptrh	equ	0xFF7
  3665                           tblptrl	equ	0xFF6
  3666                           tablat	equ	0xFF5
  3667                           prodh	equ	0xFF4
  3668                           prodl	equ	0xFF3
  3669                           intcon	equ	0xFF2
  3670                           intcon2	equ	0xFF1
  3671                           postinc0	equ	0xFEE
  3672                           wreg	equ	0xFE8
  3673                           indf1	equ	0xFE7
  3674                           postdec1	equ	0xFE5
  3675                           fsr1h	equ	0xFE2
  3676                           fsr1l	equ	0xFE1
  3677                           indf2	equ	0xFDF
  3678                           postinc2	equ	0xFDE
  3679                           postdec2	equ	0xFDD
  3680                           fsr2h	equ	0xFDA
  3681                           fsr2l	equ	0xFD9
  3682                           status	equ	0xFD8
  3683                           
  3684 ;; *************** function _SampleAndHoldReset *****************
  3685 ;; Defined at:
  3686 ;;		line 32 in file "irca/irca.c"
  3687 ;; Parameters:    Size  Location     Type
  3688 ;;		None
  3689 ;; Auto vars:     Size  Location     Type
  3690 ;;		None
  3691 ;; Return value:  Size  Location     Type
  3692 ;;		None               void
  3693 ;; Registers used:
  3694 ;;		None
  3695 ;; Tracked objects:
  3696 ;;		On entry : 0/0
  3697 ;;		On exit  : 0/0
  3698 ;;		Unchanged: 0/0
  3699 ;; Data sizes:     COMRAM   BANK0   BANK1   BANK2   BANK3   BANK4   BANK5   BANK6   BANK7   BANK8   BANK9  BANK10  BANK1
      +1  BANK12  BANK13  BANK14
  3700 ;;      Params:         0       0       0       0       0       0       0       0       0       0       0       0       
      +0       0       0       0
  3701 ;;      Locals:         0       0       0       0       0       0       0       0       0       0       0       0       
      +0       0       0       0
  3702 ;;      Temps:          0       0       0       0       0       0       0       0       0       0       0       0       
      +0       0       0       0
  3703 ;;      Totals:         0       0       0       0       0       0       0       0       0       0       0       0       
      +0       0       0       0
  3704 ;;Total ram usage:        0 bytes
  3705 ;; Hardware stack levels used:    1
  3706 ;; This function calls:
  3707 ;;		Nothing
  3708 ;; This function is called by:
  3709 ;;		_IrcaMeasure
  3710 ;; This function uses a non-reentrant model
  3711 ;;
  3712                           
  3713                           	psect	text30
  3714  0000'                    __ptext30:
  3715                           	opt stack 0
  3716  0000'                    _SampleAndHoldReset:
  3717                           	opt stack 27
  3718                           
  3719                           ;irca.c: 33: LATCbits.LATC0 = 1;
  3720                           
  3721                           ;incstack = 0
  3722  0000' 808B               	bsf	3979,0,c	;volatile
  3723                           
  3724                           ;irca.c: 37: LATCbits.LATC0 = 0;
  3725  0002' 908B               	bcf	3979,0,c	;volatile
  3726  0004' 0012               	return		;funcret
  3727  0006'                    __end_of_SampleAndHoldReset:
  3728                           	opt stack 0
  3729                           tblptru	equ	0xFF8
  3730                           tblptrh	equ	0xFF7
  3731                           tblptrl	equ	0xFF6
  3732                           tablat	equ	0xFF5
  3733                           prodh	equ	0xFF4
  3734                           prodl	equ	0xFF3
  3735                           intcon	equ	0xFF2
  3736                           intcon2	equ	0xFF1
  3737                           postinc0	equ	0xFEE
  3738                           wreg	equ	0xFE8
  3739                           indf1	equ	0xFE7
  3740                           postdec1	equ	0xFE5
  3741                           fsr1h	equ	0xFE2
  3742                           fsr1l	equ	0xFE1
  3743                           indf2	equ	0xFDF
  3744                           postinc2	equ	0xFDE
  3745                           postdec2	equ	0xFDD
  3746                           fsr2h	equ	0xFDA
  3747                           fsr2l	equ	0xFD9
  3748                           status	equ	0xFD8
  3749                           
  3750 ;; *************** function _AdcConvert *****************
  3751 ;; Defined at:
  3752 ;;		line 30 in file "adc/averaged_adc.c"
  3753 ;; Parameters:    Size  Location     Type
  3754 ;;  channel         1    wreg     unsigned char 
  3755 ;;  result          2    2[COMRAM] PTR unsigned int 
  3756 ;;		 -> ircaData(6), 
  3757 ;; Auto vars:     Size  Location     Type
  3758 ;;  channel         1    7[COMRAM] unsigned char 
  3759 ;;  tmp             4    8[COMRAM] unsigned long 
  3760 ;;  i               1   12[COMRAM] unsigned char 
  3761 ;; Return value:  Size  Location     Type
  3762 ;;		None               void
  3763 ;; Registers used:
  3764 ;;		wreg, fsr2l, fsr2h, status,2, status,0, cstack
  3765 ;; Tracked objects:
  3766 ;;		On entry : 0/0
  3767 ;;		On exit  : 0/0
  3768 ;;		Unchanged: 0/0
  3769 ;; Data sizes:     COMRAM   BANK0   BANK1   BANK2   BANK3   BANK4   BANK5   BANK6   BANK7   BANK8   BANK9  BANK10  BANK1
      +1  BANK12  BANK13  BANK14
  3770 ;;      Params:         2       0       0       0       0       0       0       0       0       0       0       0       
      +0       0       0       0
  3771 ;;      Locals:         6       0       0       0       0       0       0       0       0       0       0       0       
      +0       0       0       0
  3772 ;;      Temps:          3       0       0       0       0       0       0       0       0       0       0       0       
      +0       0       0       0
  3773 ;;      Totals:        11       0       0       0       0       0       0       0       0       0       0       0       
      +0       0       0       0
  3774 ;;Total ram usage:       11 bytes
  3775 ;; Hardware stack levels used:    1
  3776 ;; Hardware stack levels required when called:    1
  3777 ;; This function calls:
  3778 ;;		_AdcCalibrate
  3779 ;;		_AdcReadValue
  3780 ;; This function is called by:
  3781 ;;		_IrcaMeasure
  3782 ;;		_Co2D1Measure
  3783 ;; This function uses a non-reentrant model
  3784 ;;
  3785                           
  3786                           	psect	text31
  3787  0000'                    __ptext31:
  3788                           	opt stack 0
  3789  0000'                    _AdcConvert:
  3790                           	opt stack 26
  3791                           
  3792                           ;incstack = 0
  3793                           ;AdcConvert@channel stored from wreg
  3794  0000' 6E07'              	movwf	AdcConvert@channel,c
  3795                           
  3796                           ;averaged_adc.c: 31: uint32_t tmp = 0;
  3797  0002' 0E00               	movlw	0
  3798  0004' 6E08'              	movwf	AdcConvert@tmp,c
  3799  0006' 0E00               	movlw	0
  3800  0008' 6E09'              	movwf	AdcConvert@tmp+1,c
  3801  000A' 0E00               	movlw	0
  3802  000C' 6E0A'              	movwf	AdcConvert@tmp+2,c
  3803  000E' 0E00               	movlw	0
  3804  0010' 6E0B'              	movwf	AdcConvert@tmp+3,c
  3805                           
  3806                           ;averaged_adc.c: 32: uint8_t i = 16;
  3807  0012' 0E10               	movlw	16
  3808  0014' 6E0C'              	movwf	AdcConvert@i,c
  3809                           
  3810                           ;averaged_adc.c: 33: ADCON0bits.CHS = channel;
  3811  0016' C007' F004'        	movff	AdcConvert@channel,??_AdcConvert
  3812  001A' 4604'              	rlncf	??_AdcConvert,f,c
  3813  001C' 4604'              	rlncf	??_AdcConvert,f,c
  3814  001E' 50C2               	movf	4034,w,c	;volatile
  3815  0020' 1804'              	xorwf	??_AdcConvert,w,c
  3816  0022' 0BC3               	andlw	-61
  3817  0024' 1804'              	xorwf	??_AdcConvert,w,c
  3818  0026' 6EC2               	movwf	4034,c	;volatile
  3819                           
  3820                           ;averaged_adc.c: 34: ADCON0bits.ADON = 1;
  3821  0028' 80C2               	bsf	4034,0,c	;volatile
  3822                           
  3823                           ;averaged_adc.c: 35: AdcCalibrate();
  3824  002A' EC00' F000'        	call	_AdcCalibrate	;wreg free
  3825                           
  3826                           ;averaged_adc.c: 36: while (i--) {
  3827  002E' D010               	goto	l2087
  3828  0030'                    l2081:
  3829                           
  3830                           ;averaged_adc.c: 37: ADRES = 0;
  3831  0030' 0E00               	movlw	0
  3832  0032' 6EC4               	movwf	4036,c	;volatile
  3833  0034' 0E00               	movlw	0
  3834  0036' 6EC3               	movwf	4035,c	;volatile
  3835                           
  3836                           ;averaged_adc.c: 38: ADCON0bits.GO = 1;
  3837  0038' 82C2               	bsf	4034,1,c	;volatile
  3838                           
  3839                           ;averaged_adc.c: 39: tmp += AdcReadValue();
  3840  003A' EC00' F000'        	call	_AdcReadValue	;wreg free
  3841  003E' 5000'              	movf	?_AdcReadValue,w,c
  3842  0040' 2608'              	addwf	AdcConvert@tmp,f,c
  3843  0042' 5001'              	movf	?_AdcReadValue+1,w,c
  3844  0044' 2209'              	addwfc	AdcConvert@tmp+1,f,c
  3845  0046' 0E00               	movlw	0
  3846  0048' 220A'              	addwfc	AdcConvert@tmp+2,f,c
  3847  004A' 0E00               	movlw	0
  3848  004C' 220B'              	addwfc	AdcConvert@tmp+3,f,c
  3849  004E' D000               	goto	l2087
  3850  0050'                    l2087:
  3851  0050' 060C'              	decf	AdcConvert@i,f,c
  3852  0052' 280C'              	incf	AdcConvert@i,w,c
  3853  0054' A4D8               	btfss	status,2,c
  3854  0056' D7EC               	goto	l2081
  3855                           
  3856                           ;averaged_adc.c: 40: }
  3857                           ;averaged_adc.c: 41: *result = (uint16_t) tmp >> 4;
  3858  0058' C008' F004'        	movff	AdcConvert@tmp,??_AdcConvert
  3859  005C' C009' F005'        	movff	AdcConvert@tmp+1,??_AdcConvert+1
  3860  0060' 0E04               	movlw	4
  3861  0062' 6E00'              	movwf	(??_AdcConvert+2)& (0+255),c
  3862  0064'                    u525:
  3863  0064' 90D8               	bcf	status,0,c
  3864  0066' 3205'              	rrcf	??_AdcConvert+1,f,c
  3865  0068' 3204'              	rrcf	??_AdcConvert,f,c
  3866  006A' 2E00'              	decfsz	(??_AdcConvert+2)& (0+255),f,c
  3867  006C' D7FB               	goto	u525
  3868  006E' C002' FFD9         	movff	AdcConvert@result,fsr2l
  3869  0072' C003' FFDA         	movff	AdcConvert@result+1,fsr2h
  3870  0076' C004' FFDE         	movff	??_AdcConvert,postinc2
  3871  007A' C005' FFDD         	movff	??_AdcConvert+1,postdec2
  3872                           
  3873                           ;averaged_adc.c: 42: ADCON0bits.ADON = 0;
  3874  007E' 90C2               	bcf	4034,0,c	;volatile
  3875  0080' 0012               	return		;funcret
  3876  0082'                    __end_of_AdcConvert:
  3877                           	opt stack 0
  3878                           tblptru	equ	0xFF8
  3879                           tblptrh	equ	0xFF7
  3880                           tblptrl	equ	0xFF6
  3881                           tablat	equ	0xFF5
  3882                           prodh	equ	0xFF4
  3883                           prodl	equ	0xFF3
  3884                           intcon	equ	0xFF2
  3885                           intcon2	equ	0xFF1
  3886                           postinc0	equ	0xFEE
  3887                           wreg	equ	0xFE8
  3888                           indf1	equ	0xFE7
  3889                           postdec1	equ	0xFE5
  3890                           fsr1h	equ	0xFE2
  3891                           fsr1l	equ	0xFE1
  3892                           indf2	equ	0xFDF
  3893                           postinc2	equ	0xFDE
  3894                           postdec2	equ	0xFDD
  3895                           fsr2h	equ	0xFDA
  3896                           fsr2l	equ	0xFD9
  3897                           status	equ	0xFD8
  3898                           
  3899 ;; *************** function _AdcReadValue *****************
  3900 ;; Defined at:
  3901 ;;		line 58 in file "adc/averaged_adc.c"
  3902 ;; Parameters:    Size  Location     Type
  3903 ;;		None
  3904 ;; Auto vars:     Size  Location     Type
  3905 ;;		None
  3906 ;; Return value:  Size  Location     Type
  3907 ;;                  2    0[COMRAM] unsigned int 
  3908 ;; Registers used:
  3909 ;;		None
  3910 ;; Tracked objects:
  3911 ;;		On entry : 0/0
  3912 ;;		On exit  : 0/0
  3913 ;;		Unchanged: 0/0
  3914 ;; Data sizes:     COMRAM   BANK0   BANK1   BANK2   BANK3   BANK4   BANK5   BANK6   BANK7   BANK8   BANK9  BANK10  BANK1
      +1  BANK12  BANK13  BANK14
  3915 ;;      Params:         2       0       0       0       0       0       0       0       0       0       0       0       
      +0       0       0       0
  3916 ;;      Locals:         0       0       0       0       0       0       0       0       0       0       0       0       
      +0       0       0       0
  3917 ;;      Temps:          0       0       0       0       0       0       0       0       0       0       0       0       
      +0       0       0       0
  3918 ;;      Totals:         2       0       0       0       0       0       0       0       0       0       0       0       
      +0       0       0       0
  3919 ;;Total ram usage:        2 bytes
  3920 ;; Hardware stack levels used:    1
  3921 ;; This function calls:
  3922 ;;		Nothing
  3923 ;; This function is called by:
  3924 ;;		_AdcConvert
  3925 ;; This function uses a non-reentrant model
  3926 ;;
  3927                           
  3928                           	psect	text32
  3929  0000'                    __ptext32:
  3930                           	opt stack 0
  3931  0000'                    _AdcReadValue:
  3932                           	opt stack 26
  3933                           
  3934                           ;averaged_adc.c: 59: while (ADCON0bits.NOT_DONE);
  3935                           
  3936                           ;incstack = 0
  3937  0000' D000               	goto	l30
  3938  0002'                    l30:
  3939  0002' B2C2               	btfsc	4034,1,c	;volatile
  3940  0004' D7FE               	goto	l30
  3941                           
  3942                           ;averaged_adc.c: 60: return ADRES;
  3943  0006' CFC3 F000'         	movff	4035,?_AdcReadValue	;volatile
  3944  000A' CFC4 F001'         	movff	4036,?_AdcReadValue+1	;volatile
  3945  000E' 0012               	return		;funcret
  3946  0010'                    __end_of_AdcReadValue:
  3947                           	opt stack 0
  3948                           tblptru	equ	0xFF8
  3949                           tblptrh	equ	0xFF7
  3950                           tblptrl	equ	0xFF6
  3951                           tablat	equ	0xFF5
  3952                           prodh	equ	0xFF4
  3953                           prodl	equ	0xFF3
  3954                           intcon	equ	0xFF2
  3955                           intcon2	equ	0xFF1
  3956                           postinc0	equ	0xFEE
  3957                           wreg	equ	0xFE8
  3958                           indf1	equ	0xFE7
  3959                           postdec1	equ	0xFE5
  3960                           fsr1h	equ	0xFE2
  3961                           fsr1l	equ	0xFE1
  3962                           indf2	equ	0xFDF
  3963                           postinc2	equ	0xFDE
  3964                           postdec2	equ	0xFDD
  3965                           fsr2h	equ	0xFDA
  3966                           fsr2l	equ	0xFD9
  3967                           status	equ	0xFD8
  3968                           
  3969 ;; *************** function _AdcCalibrate *****************
  3970 ;; Defined at:
  3971 ;;		line 48 in file "adc/averaged_adc.c"
  3972 ;; Parameters:    Size  Location     Type
  3973 ;;		None
  3974 ;; Auto vars:     Size  Location     Type
  3975 ;;		None
  3976 ;; Return value:  Size  Location     Type
  3977 ;;		None               void
  3978 ;; Registers used:
  3979 ;;		None
  3980 ;; Tracked objects:
  3981 ;;		On entry : 0/0
  3982 ;;		On exit  : 0/0
  3983 ;;		Unchanged: 0/0
  3984 ;; Data sizes:     COMRAM   BANK0   BANK1   BANK2   BANK3   BANK4   BANK5   BANK6   BANK7   BANK8   BANK9  BANK10  BANK1
      +1  BANK12  BANK13  BANK14
  3985 ;;      Params:         0       0       0       0       0       0       0       0       0       0       0       0       
      +0       0       0       0
  3986 ;;      Locals:         0       0       0       0       0       0       0       0       0       0       0       0       
      +0       0       0       0
  3987 ;;      Temps:          0       0       0       0       0       0       0       0       0       0       0       0       
      +0       0       0       0
  3988 ;;      Totals:         0       0       0       0       0       0       0       0       0       0       0       0       
      +0       0       0       0
  3989 ;;Total ram usage:        0 bytes
  3990 ;; Hardware stack levels used:    1
  3991 ;; This function calls:
  3992 ;;		Nothing
  3993 ;; This function is called by:
  3994 ;;		_AdcConvert
  3995 ;; This function uses a non-reentrant model
  3996 ;;
  3997                           
  3998                           	psect	text33
  3999  0000'                    __ptext33:
  4000                           	opt stack 0
  4001  0000'                    _AdcCalibrate:
  4002                           	opt stack 26
  4003                           
  4004                           ;averaged_adc.c: 49: ADCON1bits.ADCAL = 1;
  4005                           
  4006                           ;incstack = 0
  4007  0000' 8CC1               	bsf	4033,6,c	;volatile
  4008                           
  4009                           ;averaged_adc.c: 50: ADCON0bits.GO = 1;
  4010  0002' 82C2               	bsf	4034,1,c	;volatile
  4011                           
  4012                           ;averaged_adc.c: 51: while (ADCON0bits.NOT_DONE);
  4013  0004' D000               	goto	l24
  4014  0006'                    l24:
  4015  0006' B2C2               	btfsc	4034,1,c	;volatile
  4016  0008' D7FE               	goto	l24
  4017                           
  4018                           ;averaged_adc.c: 52: ADCON1bits.ADCAL = 0;
  4019  000A' 9CC1               	bcf	4033,6,c	;volatile
  4020  000C' 0012               	return		;funcret
  4021  000E'                    __end_of_AdcCalibrate:
  4022                           	opt stack 0
  4023                           tblptru	equ	0xFF8
  4024                           tblptrh	equ	0xFF7
  4025                           tblptrl	equ	0xFF6
  4026                           tablat	equ	0xFF5
  4027                           prodh	equ	0xFF4
  4028                           prodl	equ	0xFF3
  4029                           intcon	equ	0xFF2
  4030                           intcon2	equ	0xFF1
  4031                           postinc0	equ	0xFEE
  4032                           wreg	equ	0xFE8
  4033                           indf1	equ	0xFE7
  4034                           postdec1	equ	0xFE5
  4035                           fsr1h	equ	0xFE2
  4036                           fsr1l	equ	0xFE1
  4037                           indf2	equ	0xFDF
  4038                           postinc2	equ	0xFDE
  4039                           postdec2	equ	0xFDD
  4040                           fsr2h	equ	0xFDA
  4041                           fsr2l	equ	0xFD9
  4042                           status	equ	0xFD8
  4043                           
  4044 ;; *************** function _ClearNetworkInterrupt *****************
  4045 ;; Defined at:
  4046 ;;		line 20 in file "network_proxy.c"
  4047 ;; Parameters:    Size  Location     Type
  4048 ;;		None
  4049 ;; Auto vars:     Size  Location     Type
  4050 ;;		None
  4051 ;; Return value:  Size  Location     Type
  4052 ;;		None               void
  4053 ;; Registers used:
  4054 ;;		None
  4055 ;; Tracked objects:
  4056 ;;		On entry : 0/0
  4057 ;;		On exit  : 0/0
  4058 ;;		Unchanged: 0/0
  4059 ;; Data sizes:     COMRAM   BANK0   BANK1   BANK2   BANK3   BANK4   BANK5   BANK6   BANK7   BANK8   BANK9  BANK10  BANK1
      +1  BANK12  BANK13  BANK14
  4060 ;;      Params:         0       0       0       0       0       0       0       0       0       0       0       0       
      +0       0       0       0
  4061 ;;      Locals:         0       0       0       0       0       0       0       0       0       0       0       0       
      +0       0       0       0
  4062 ;;      Temps:          0       0       0       0       0       0       0       0       0       0       0       0       
      +0       0       0       0
  4063 ;;      Totals:         0       0       0       0       0       0       0       0       0       0       0       0       
      +0       0       0       0
  4064 ;;Total ram usage:        0 bytes
  4065 ;; Hardware stack levels used:    1
  4066 ;; This function calls:
  4067 ;;		Nothing
  4068 ;; This function is called by:
  4069 ;;		_OnWakeUp
  4070 ;; This function uses a non-reentrant model
  4071 ;;
  4072                           
  4073                           	psect	text34
  4074  0000'                    __ptext34:
  4075                           	opt stack 0
  4076  0000'                    _ClearNetworkInterrupt:
  4077                           	opt stack 29
  4078                           
  4079                           ;network_proxy.c: 21: INTCONbits.INT0IF = 0;
  4080                           
  4081                           ;incstack = 0
  4082  0000' 92F2               	bcf	intcon,1,c	;volatile
  4083  0002' 0012               	return		;funcret
  4084  0004'                    __end_of_ClearNetworkInterrupt:
  4085                           	opt stack 0
  4086                           tblptru	equ	0xFF8
  4087                           tblptrh	equ	0xFF7
  4088                           tblptrl	equ	0xFF6
  4089                           tablat	equ	0xFF5
  4090                           prodh	equ	0xFF4
  4091                           prodl	equ	0xFF3
  4092                           intcon	equ	0xFF2
  4093                           intcon2	equ	0xFF1
  4094                           postinc0	equ	0xFEE
  4095                           wreg	equ	0xFE8
  4096                           indf1	equ	0xFE7
  4097                           postdec1	equ	0xFE5
  4098                           fsr1h	equ	0xFE2
  4099                           fsr1l	equ	0xFE1
  4100                           indf2	equ	0xFDF
  4101                           postinc2	equ	0xFDE
  4102                           postdec2	equ	0xFDD
  4103                           fsr2h	equ	0xFDA
  4104                           fsr2l	equ	0xFD9
  4105                           status	equ	0xFD8
  4106                           
  4107 ;; *************** function _ClearDSWakeUpFlags *****************
  4108 ;; Defined at:
  4109 ;;		line 63 in file "opController.c"
  4110 ;; Parameters:    Size  Location     Type
  4111 ;;		None
  4112 ;; Auto vars:     Size  Location     Type
  4113 ;;		None
  4114 ;; Return value:  Size  Location     Type
  4115 ;;		None               void
  4116 ;; Registers used:
  4117 ;;		None
  4118 ;; Tracked objects:
  4119 ;;		On entry : 0/0
  4120 ;;		On exit  : 0/0
  4121 ;;		Unchanged: 0/0
  4122 ;; Data sizes:     COMRAM   BANK0   BANK1   BANK2   BANK3   BANK4   BANK5   BANK6   BANK7   BANK8   BANK9  BANK10  BANK1
      +1  BANK12  BANK13  BANK14
  4123 ;;      Params:         0       0       0       0       0       0       0       0       0       0       0       0       
      +0       0       0       0
  4124 ;;      Locals:         0       0       0       0       0       0       0       0       0       0       0       0       
      +0       0       0       0
  4125 ;;      Temps:          0       0       0       0       0       0       0       0       0       0       0       0       
      +0       0       0       0
  4126 ;;      Totals:         0       0       0       0       0       0       0       0       0       0       0       0       
      +0       0       0       0
  4127 ;;Total ram usage:        0 bytes
  4128 ;; Hardware stack levels used:    1
  4129 ;; This function calls:
  4130 ;;		Nothing
  4131 ;; This function is called by:
  4132 ;;		_OnWakeUp
  4133 ;; This function uses a non-reentrant model
  4134 ;;
  4135                           
  4136                           	psect	text35
  4137  0000'                    __ptext35:
  4138                           	opt stack 0
  4139  0000'                    _ClearDSWakeUpFlags:
  4140                           	opt stack 29
  4141                           
  4142                           ;opController.c: 64: WDTCONbits.DS = 0;
  4143                           
  4144                           ;incstack = 0
  4145  0000' 96C0               	bcf	4032,3,c	;volatile
  4146                           
  4147                           ;opController.c: 65: DSWAKEHbits.DSINT0 = 0;
  4148  0002' 010F               	movlb	15	; () banked
  4149  0004' 914B               	bcf	75,0,b	;volatile
  4150                           
  4151                           ;opController.c: 66: DSCONLbits.RELEASE = 0;
  4152  0006' 010F               	movlb	15	; () banked
  4153  0008' 914C               	bcf	76,0,b	;volatile
  4154                           
  4155                           ; BSR set to: 15
  4156  000A' 0012               	return		;funcret
  4157  000C'                    __end_of_ClearDSWakeUpFlags:
  4158                           	opt stack 0
  4159                           tblptru	equ	0xFF8
  4160                           tblptrh	equ	0xFF7
  4161                           tblptrl	equ	0xFF6
  4162                           tablat	equ	0xFF5
  4163                           prodh	equ	0xFF4
  4164                           prodl	equ	0xFF3
  4165                           intcon	equ	0xFF2
  4166                           intcon2	equ	0xFF1
  4167                           postinc0	equ	0xFEE
  4168                           wreg	equ	0xFE8
  4169                           indf1	equ	0xFE7
  4170                           postdec1	equ	0xFE5
  4171                           fsr1h	equ	0xFE2
  4172                           fsr1l	equ	0xFE1
  4173                           indf2	equ	0xFDF
  4174                           postinc2	equ	0xFDE
  4175                           postdec2	equ	0xFDD
  4176                           fsr2h	equ	0xFDA
  4177                           fsr2l	equ	0xFD9
  4178                           status	equ	0xFD8
  4179                           
  4180 ;; *************** function _OnPowerUp *****************
  4181 ;; Defined at:
  4182 ;;		line 12 in file "opController.c"
  4183 ;; Parameters:    Size  Location     Type
  4184 ;;		None
  4185 ;; Auto vars:     Size  Location     Type
  4186 ;;		None
  4187 ;; Return value:  Size  Location     Type
  4188 ;;		None               void
  4189 ;; Registers used:
  4190 ;;		wreg, fsr1l, fsr1h, fsr2l, fsr2h, status,2, status,0, cstack
  4191 ;; Tracked objects:
  4192 ;;		On entry : 0/0
  4193 ;;		On exit  : 0/0
  4194 ;;		Unchanged: 0/0
  4195 ;; Data sizes:     COMRAM   BANK0   BANK1   BANK2   BANK3   BANK4   BANK5   BANK6   BANK7   BANK8   BANK9  BANK10  BANK1
      +1  BANK12  BANK13  BANK14
  4196 ;;      Params:         0       0       0       0       0       0       0       0       0       0       0       0       
      +0       0       0       0
  4197 ;;      Locals:         0       0       0       0       0       0       0       0       0       0       0       0       
      +0       0       0       0
  4198 ;;      Temps:          0       0       0       0       0       0       0       0       0       0       0       0       
      +0       0       0       0
  4199 ;;      Totals:         0       0       0       0       0       0       0       0       0       0       0       0       
      +0       0       0       0
  4200 ;;Total ram usage:        0 bytes
  4201 ;; Hardware stack levels used:    1
  4202 ;; Hardware stack levels required when called:    4
  4203 ;; This function calls:
  4204 ;;		_UnUsedPeriphericalDisable
  4205 ;;		_XBeeJoin
  4206 ;; This function is called by:
  4207 ;;		_main
  4208 ;; This function uses a non-reentrant model
  4209 ;;
  4210                           
  4211                           	psect	text36
  4212  0000'                    __ptext36:
  4213                           	opt stack 0
  4214  0000'                    _OnPowerUp:
  4215                           	opt stack 26
  4216                           
  4217                           ;opController.c: 13: XBeeJoin();
  4218                           
  4219                           ; BSR set to: 15
  4220                           ;incstack = 0
  4221  0000' EC00' F000'        	call	_XBeeJoin	;wreg free
  4222                           
  4223                           ;opController.c: 14: UnUsedPeriphericalDisable();
  4224  0004' EC00' F000'        	call	_UnUsedPeriphericalDisable	;wreg free
  4225  0008' 0012               	return		;funcret
  4226  000A'                    __end_of_OnPowerUp:
  4227                           	opt stack 0
  4228                           tblptru	equ	0xFF8
  4229                           tblptrh	equ	0xFF7
  4230                           tblptrl	equ	0xFF6
  4231                           tablat	equ	0xFF5
  4232                           prodh	equ	0xFF4
  4233                           prodl	equ	0xFF3
  4234                           intcon	equ	0xFF2
  4235                           intcon2	equ	0xFF1
  4236                           postinc0	equ	0xFEE
  4237                           wreg	equ	0xFE8
  4238                           indf1	equ	0xFE7
  4239                           postdec1	equ	0xFE5
  4240                           fsr1h	equ	0xFE2
  4241                           fsr1l	equ	0xFE1
  4242                           indf2	equ	0xFDF
  4243                           postinc2	equ	0xFDE
  4244                           postdec2	equ	0xFDD
  4245                           fsr2h	equ	0xFDA
  4246                           fsr2l	equ	0xFD9
  4247                           status	equ	0xFD8
  4248                           
  4249 ;; *************** function _UnUsedPeriphericalDisable *****************
  4250 ;; Defined at:
  4251 ;;		line 36 in file "bsp.c"
  4252 ;; Parameters:    Size  Location     Type
  4253 ;;		None
  4254 ;; Auto vars:     Size  Location     Type
  4255 ;;		None
  4256 ;; Return value:  Size  Location     Type
  4257 ;;		None               void
  4258 ;; Registers used:
  4259 ;;		None
  4260 ;; Tracked objects:
  4261 ;;		On entry : 0/0
  4262 ;;		On exit  : 0/0
  4263 ;;		Unchanged: 0/0
  4264 ;; Data sizes:     COMRAM   BANK0   BANK1   BANK2   BANK3   BANK4   BANK5   BANK6   BANK7   BANK8   BANK9  BANK10  BANK1
      +1  BANK12  BANK13  BANK14
  4265 ;;      Params:         0       0       0       0       0       0       0       0       0       0       0       0       
      +0       0       0       0
  4266 ;;      Locals:         0       0       0       0       0       0       0       0       0       0       0       0       
      +0       0       0       0
  4267 ;;      Temps:          0       0       0       0       0       0       0       0       0       0       0       0       
      +0       0       0       0
  4268 ;;      Totals:         0       0       0       0       0       0       0       0       0       0       0       0       
      +0       0       0       0
  4269 ;;Total ram usage:        0 bytes
  4270 ;; Hardware stack levels used:    1
  4271 ;; This function calls:
  4272 ;;		Nothing
  4273 ;; This function is called by:
  4274 ;;		_OnPowerUp
  4275 ;; This function uses a non-reentrant model
  4276 ;;
  4277                           
  4278                           	psect	text37
  4279  0000'                    __ptext37:
  4280                           	opt stack 0
  4281  0000'                    _UnUsedPeriphericalDisable:
  4282                           	opt stack 29
  4283                           
  4284                           ;bsp.c: 37: UCONbits.USBEN = 0;
  4285                           
  4286                           ;incstack = 0
  4287  0000' 9665               	bcf	3941,3,c	;volatile
  4288                           
  4289                           ;bsp.c: 38: RTCCFGbits.RTCOE = 0;
  4290  0002' 010F               	movlb	15	; () banked
  4291  0004' 953F               	bcf	63,2,b	;volatile
  4292                           
  4293                           ;bsp.c: 39: RTCCFGbits.RTCEN = 0;
  4294  0006' 010F               	movlb	15	; () banked
  4295  0008' 9F3F               	bcf	63,7,b	;volatile
  4296                           
  4297                           ; BSR set to: 15
  4298  000A' 0012               	return		;funcret
  4299  000C'                    __end_of_UnUsedPeriphericalDisable:
  4300                           	opt stack 0
  4301                           tblptru	equ	0xFF8
  4302                           tblptrh	equ	0xFF7
  4303                           tblptrl	equ	0xFF6
  4304                           tablat	equ	0xFF5
  4305                           prodh	equ	0xFF4
  4306                           prodl	equ	0xFF3
  4307                           intcon	equ	0xFF2
  4308                           intcon2	equ	0xFF1
  4309                           postinc0	equ	0xFEE
  4310                           wreg	equ	0xFE8
  4311                           indf1	equ	0xFE7
  4312                           postdec1	equ	0xFE5
  4313                           fsr1h	equ	0xFE2
  4314                           fsr1l	equ	0xFE1
  4315                           indf2	equ	0xFDF
  4316                           postinc2	equ	0xFDE
  4317                           postdec2	equ	0xFDD
  4318                           fsr2h	equ	0xFDA
  4319                           fsr2l	equ	0xFD9
  4320                           status	equ	0xFD8
  4321                           
  4322 ;; *************** function _OnMclr *****************
  4323 ;; Defined at:
  4324 ;;		line 20 in file "opController.c"
  4325 ;; Parameters:    Size  Location     Type
  4326 ;;		None
  4327 ;; Auto vars:     Size  Location     Type
  4328 ;;		None
  4329 ;; Return value:  Size  Location     Type
  4330 ;;		None               void
  4331 ;; Registers used:
  4332 ;;		wreg, fsr1l, fsr1h, fsr2l, fsr2h, status,2, status,0, cstack
  4333 ;; Tracked objects:
  4334 ;;		On entry : 0/0
  4335 ;;		On exit  : 0/0
  4336 ;;		Unchanged: 0/0
  4337 ;; Data sizes:     COMRAM   BANK0   BANK1   BANK2   BANK3   BANK4   BANK5   BANK6   BANK7   BANK8   BANK9  BANK10  BANK1
      +1  BANK12  BANK13  BANK14
  4338 ;;      Params:         0       0       0       0       0       0       0       0       0       0       0       0       
      +0       0       0       0
  4339 ;;      Locals:         0       0       0       0       0       0       0       0       0       0       0       0       
      +0       0       0       0
  4340 ;;      Temps:          0       0       0       0       0       0       0       0       0       0       0       0       
      +0       0       0       0
  4341 ;;      Totals:         0       0       0       0       0       0       0       0       0       0       0       0       
      +0       0       0       0
  4342 ;;Total ram usage:        0 bytes
  4343 ;; Hardware stack levels used:    1
  4344 ;; Hardware stack levels required when called:    4
  4345 ;; This function calls:
  4346 ;;		_ClearMclrFlags
  4347 ;;		_Delay10KTCYx
  4348 ;;		_XBeeJoin
  4349 ;; This function is called by:
  4350 ;;		_main
  4351 ;; This function uses a non-reentrant model
  4352 ;;
  4353                           
  4354                           	psect	text38
  4355  0000'                    __ptext38:
  4356                           	opt stack 0
  4357  0000'                    _OnMclr:
  4358                           	opt stack 26
  4359                           
  4360                           ;opController.c: 21: ClearMclrFlags();
  4361                           
  4362                           ; BSR set to: 15
  4363                           ;incstack = 0
  4364  0000' EC00' F000'        	call	_ClearMclrFlags	;wreg free
  4365                           
  4366                           ;opController.c: 22: Delay10KTCYx(10);
  4367  0004' 0E0A               	movlw	10
  4368  0006' EC00' F000'        	call	_Delay10KTCYx
  4369                           
  4370                           ;opController.c: 23: XBeeJoin();
  4371  000A' EC00' F000'        	call	_XBeeJoin	;wreg free
  4372  000E' 0012               	return		;funcret
  4373  0010'                    __end_of_OnMclr:
  4374                           	opt stack 0
  4375                           tblptru	equ	0xFF8
  4376                           tblptrh	equ	0xFF7
  4377                           tblptrl	equ	0xFF6
  4378                           tablat	equ	0xFF5
  4379                           prodh	equ	0xFF4
  4380                           prodl	equ	0xFF3
  4381                           intcon	equ	0xFF2
  4382                           intcon2	equ	0xFF1
  4383                           postinc0	equ	0xFEE
  4384                           wreg	equ	0xFE8
  4385                           indf1	equ	0xFE7
  4386                           postdec1	equ	0xFE5
  4387                           fsr1h	equ	0xFE2
  4388                           fsr1l	equ	0xFE1
  4389                           indf2	equ	0xFDF
  4390                           postinc2	equ	0xFDE
  4391                           postdec2	equ	0xFDD
  4392                           fsr2h	equ	0xFDA
  4393                           fsr2l	equ	0xFD9
  4394                           status	equ	0xFD8
  4395                           
  4396 ;; *************** function _ClearMclrFlags *****************
  4397 ;; Defined at:
  4398 ;;		line 57 in file "opController.c"
  4399 ;; Parameters:    Size  Location     Type
  4400 ;;		None
  4401 ;; Auto vars:     Size  Location     Type
  4402 ;;		None
  4403 ;; Return value:  Size  Location     Type
  4404 ;;		None               void
  4405 ;; Registers used:
  4406 ;;		None
  4407 ;; Tracked objects:
  4408 ;;		On entry : 0/0
  4409 ;;		On exit  : 0/0
  4410 ;;		Unchanged: 0/0
  4411 ;; Data sizes:     COMRAM   BANK0   BANK1   BANK2   BANK3   BANK4   BANK5   BANK6   BANK7   BANK8   BANK9  BANK10  BANK1
      +1  BANK12  BANK13  BANK14
  4412 ;;      Params:         0       0       0       0       0       0       0       0       0       0       0       0       
      +0       0       0       0
  4413 ;;      Locals:         0       0       0       0       0       0       0       0       0       0       0       0       
      +0       0       0       0
  4414 ;;      Temps:          0       0       0       0       0       0       0       0       0       0       0       0       
      +0       0       0       0
  4415 ;;      Totals:         0       0       0       0       0       0       0       0       0       0       0       0       
      +0       0       0       0
  4416 ;;Total ram usage:        0 bytes
  4417 ;; Hardware stack levels used:    1
  4418 ;; This function calls:
  4419 ;;		Nothing
  4420 ;; This function is called by:
  4421 ;;		_OnMclr
  4422 ;; This function uses a non-reentrant model
  4423 ;;
  4424                           
  4425                           	psect	text39
  4426  0000'                    __ptext39:
  4427                           	opt stack 0
  4428  0000'                    _ClearMclrFlags:
  4429                           	opt stack 29
  4430                           
  4431                           ;opController.c: 58: WDTCONbits.DS = 0;
  4432                           
  4433                           ;incstack = 0
  4434  0000' 96C0               	bcf	4032,3,c	;volatile
  4435                           
  4436                           ;opController.c: 59: DSWAKELbits.DSMCLR = 0;
  4437  0002' 010F               	movlb	15	; () banked
  4438  0004' 954A               	bcf	74,2,b	;volatile
  4439                           
  4440                           ;opController.c: 60: DSCONLbits.RELEASE = 0;
  4441  0006' 010F               	movlb	15	; () banked
  4442  0008' 914C               	bcf	76,0,b	;volatile
  4443                           
  4444                           ; BSR set to: 15
  4445  000A' 0012               	return		;funcret
  4446  000C'                    __end_of_ClearMclrFlags:
  4447                           	opt stack 0
  4448                           tblptru	equ	0xFF8
  4449                           tblptrh	equ	0xFF7
  4450                           tblptrl	equ	0xFF6
  4451                           tablat	equ	0xFF5
  4452                           prodh	equ	0xFF4
  4453                           prodl	equ	0xFF3
  4454                           intcon	equ	0xFF2
  4455                           intcon2	equ	0xFF1
  4456                           postinc0	equ	0xFEE
  4457                           wreg	equ	0xFE8
  4458                           indf1	equ	0xFE7
  4459                           postdec1	equ	0xFE5
  4460                           fsr1h	equ	0xFE2
  4461                           fsr1l	equ	0xFE1
  4462                           indf2	equ	0xFDF
  4463                           postinc2	equ	0xFDE
  4464                           postdec2	equ	0xFDD
  4465                           fsr2h	equ	0xFDA
  4466                           fsr2l	equ	0xFD9
  4467                           status	equ	0xFD8
  4468                           
  4469 ;; *************** function _OnDsWdtWakeUp *****************
  4470 ;; Defined at:
  4471 ;;		line 49 in file "opController.c"
  4472 ;; Parameters:    Size  Location     Type
  4473 ;;		None
  4474 ;; Auto vars:     Size  Location     Type
  4475 ;;		None
  4476 ;; Return value:  Size  Location     Type
  4477 ;;		None               void
  4478 ;; Registers used:
  4479 ;;		wreg, fsr1l, fsr1h, fsr2l, fsr2h, status,2, status,0, cstack
  4480 ;; Tracked objects:
  4481 ;;		On entry : 0/0
  4482 ;;		On exit  : 0/0
  4483 ;;		Unchanged: 0/0
  4484 ;; Data sizes:     COMRAM   BANK0   BANK1   BANK2   BANK3   BANK4   BANK5   BANK6   BANK7   BANK8   BANK9  BANK10  BANK1
      +1  BANK12  BANK13  BANK14
  4485 ;;      Params:         0       0       0       0       0       0       0       0       0       0       0       0       
      +0       0       0       0
  4486 ;;      Locals:         0       0       0       0       0       0       0       0       0       0       0       0       
      +0       0       0       0
  4487 ;;      Temps:          0       0       0       0       0       0       0       0       0       0       0       0       
      +0       0       0       0
  4488 ;;      Totals:         0       0       0       0       0       0       0       0       0       0       0       0       
      +0       0       0       0
  4489 ;;Total ram usage:        0 bytes
  4490 ;; Hardware stack levels used:    1
  4491 ;; Hardware stack levels required when called:    4
  4492 ;; This function calls:
  4493 ;;		_Delay100TCYx
  4494 ;;		_XBeeJoin
  4495 ;;		_XBeeReset
  4496 ;; This function is called by:
  4497 ;;		_main
  4498 ;; This function uses a non-reentrant model
  4499 ;;
  4500                           
  4501                           	psect	text40
  4502  0000'                    __ptext40:
  4503                           	opt stack 0
  4504  0000'                    _OnDsWdtWakeUp:
  4505                           	opt stack 26
  4506                           
  4507                           ;opController.c: 50: WDTCONbits.DS = 0;
  4508                           
  4509                           ; BSR set to: 15
  4510                           ;incstack = 0
  4511  0000' 96C0               	bcf	4032,3,c	;volatile
  4512                           
  4513                           ;opController.c: 51: XBeeReset();
  4514  0002' EC00' F000'        	call	_XBeeReset	;wreg free
  4515                           
  4516                           ;opController.c: 52: Delay100TCYx(100);
  4517  0006' 0E64               	movlw	100
  4518  0008' EC00' F000'        	call	_Delay100TCYx
  4519                           
  4520                           ;opController.c: 53: XBeeJoin();
  4521  000C' EC00' F000'        	call	_XBeeJoin	;wreg free
  4522  0010' 0012               	return		;funcret
  4523  0012'                    __end_of_OnDsWdtWakeUp:
  4524                           	opt stack 0
  4525                           tblptru	equ	0xFF8
  4526                           tblptrh	equ	0xFF7
  4527                           tblptrl	equ	0xFF6
  4528                           tablat	equ	0xFF5
  4529                           prodh	equ	0xFF4
  4530                           prodl	equ	0xFF3
  4531                           intcon	equ	0xFF2
  4532                           intcon2	equ	0xFF1
  4533                           postinc0	equ	0xFEE
  4534                           wreg	equ	0xFE8
  4535                           indf1	equ	0xFE7
  4536                           postdec1	equ	0xFE5
  4537                           fsr1h	equ	0xFE2
  4538                           fsr1l	equ	0xFE1
  4539                           indf2	equ	0xFDF
  4540                           postinc2	equ	0xFDE
  4541                           postdec2	equ	0xFDD
  4542                           fsr2h	equ	0xFDA
  4543                           fsr2l	equ	0xFD9
  4544                           status	equ	0xFD8
  4545                           
  4546 ;; *************** function _XBeeJoin *****************
  4547 ;; Defined at:
  4548 ;;		line 28 in file "xbee/digi_join.c"
  4549 ;; Parameters:    Size  Location     Type
  4550 ;;		None
  4551 ;; Auto vars:     Size  Location     Type
  4552 ;;		None
  4553 ;; Return value:  Size  Location     Type
  4554 ;;		None               void
  4555 ;; Registers used:
  4556 ;;		wreg, fsr1l, fsr1h, fsr2l, fsr2h, status,2, status,0, cstack
  4557 ;; Tracked objects:
  4558 ;;		On entry : 0/0
  4559 ;;		On exit  : 0/0
  4560 ;;		Unchanged: 0/0
  4561 ;; Data sizes:     COMRAM   BANK0   BANK1   BANK2   BANK3   BANK4   BANK5   BANK6   BANK7   BANK8   BANK9  BANK10  BANK1
      +1  BANK12  BANK13  BANK14
  4562 ;;      Params:         0       0       0       0       0       0       0       0       0       0       0       0       
      +0       0       0       0
  4563 ;;      Locals:         0       0       0       0       0       0       0       0       0       0       0       0       
      +0       0       0       0
  4564 ;;      Temps:          0       0       0       0       0       0       0       0       0       0       0       0       
      +0       0       0       0
  4565 ;;      Totals:         0       0       0       0       0       0       0       0       0       0       0       0       
      +0       0       0       0
  4566 ;;Total ram usage:        0 bytes
  4567 ;; Hardware stack levels used:    1
  4568 ;; Hardware stack levels required when called:    3
  4569 ;; This function calls:
  4570 ;;		_Delay10KTCYx
  4571 ;;		_XBeeCommissioning
  4572 ;;		_XBeeReset
  4573 ;;		_XBeeSetSleepMode
  4574 ;; This function is called by:
  4575 ;;		_OnPowerUp
  4576 ;;		_OnMclr
  4577 ;;		_OnDsWdtWakeUp
  4578 ;; This function uses a non-reentrant model
  4579 ;;
  4580                           
  4581                           	psect	text41
  4582  0000'                    __ptext41:
  4583                           	opt stack 0
  4584  0000'                    _XBeeJoin:
  4585                           	opt stack 26
  4586                           
  4587                           ;digi_join.c: 29: XBeeReset();
  4588                           
  4589                           ;incstack = 0
  4590  0000' EC00' F000'        	call	_XBeeReset	;wreg free
  4591                           
  4592                           ;digi_join.c: 30: Delay10KTCYx(100);
  4593  0004' 0E64               	movlw	100
  4594  0006' EC00' F000'        	call	_Delay10KTCYx
  4595                           
  4596                           ;digi_join.c: 32: XBeeCommissioning(1);
  4597  000A' 0E01               	movlw	1
  4598  000C' EC00' F000'        	call	_XBeeCommissioning
  4599                           
  4600                           ;digi_join.c: 33: Delay10KTCYx(100);
  4601  0010' 0E64               	movlw	100
  4602  0012' EC00' F000'        	call	_Delay10KTCYx
  4603                           
  4604                           ;digi_join.c: 35: XBeeSetSleepMode(8);
  4605  0016' 0E08               	movlw	8
  4606  0018' EC00' F000'        	call	_XBeeSetSleepMode
  4607  001C' 0012               	return		;funcret
  4608  001E'                    __end_of_XBeeJoin:
  4609                           	opt stack 0
  4610                           tblptru	equ	0xFF8
  4611                           tblptrh	equ	0xFF7
  4612                           tblptrl	equ	0xFF6
  4613                           tablat	equ	0xFF5
  4614                           prodh	equ	0xFF4
  4615                           prodl	equ	0xFF3
  4616                           intcon	equ	0xFF2
  4617                           intcon2	equ	0xFF1
  4618                           postinc0	equ	0xFEE
  4619                           wreg	equ	0xFE8
  4620                           indf1	equ	0xFE7
  4621                           postdec1	equ	0xFE5
  4622                           fsr1h	equ	0xFE2
  4623                           fsr1l	equ	0xFE1
  4624                           indf2	equ	0xFDF
  4625                           postinc2	equ	0xFDE
  4626                           postdec2	equ	0xFDD
  4627                           fsr2h	equ	0xFDA
  4628                           fsr2l	equ	0xFD9
  4629                           status	equ	0xFD8
  4630                           
  4631 ;; *************** function _XBeeSetSleepMode *****************
  4632 ;; Defined at:
  4633 ;;		line 58 in file "xbee/digi_join.c"
  4634 ;; Parameters:    Size  Location     Type
  4635 ;;  mode            1    wreg     unsigned char 
  4636 ;; Auto vars:     Size  Location     Type
  4637 ;;  mode            1   13[COMRAM] unsigned char 
  4638 ;;  params          2   14[COMRAM] unsigned char [2]
  4639 ;; Return value:  Size  Location     Type
  4640 ;;		None               void
  4641 ;; Registers used:
  4642 ;;		wreg, fsr1l, fsr1h, fsr2l, fsr2h, status,2, status,0, cstack
  4643 ;; Tracked objects:
  4644 ;;		On entry : 0/0
  4645 ;;		On exit  : 0/0
  4646 ;;		Unchanged: 0/0
  4647 ;; Data sizes:     COMRAM   BANK0   BANK1   BANK2   BANK3   BANK4   BANK5   BANK6   BANK7   BANK8   BANK9  BANK10  BANK1
      +1  BANK12  BANK13  BANK14
  4648 ;;      Params:         0       0       0       0       0       0       0       0       0       0       0       0       
      +0       0       0       0
  4649 ;;      Locals:         3       0       0       0       0       0       0       0       0       0       0       0       
      +0       0       0       0
  4650 ;;      Temps:          0       0       0       0       0       0       0       0       0       0       0       0       
      +0       0       0       0
  4651 ;;      Totals:         3       0       0       0       0       0       0       0       0       0       0       0       
      +0       0       0       0
  4652 ;;Total ram usage:        3 bytes
  4653 ;; Hardware stack levels used:    1
  4654 ;; Hardware stack levels required when called:    2
  4655 ;; This function calls:
  4656 ;;		_XBeeCreateCompleteATCommandPacket
  4657 ;;		_XBeeCreatePacket
  4658 ;;		_XBeeSendPacket
  4659 ;; This function is called by:
  4660 ;;		_XBeeJoin
  4661 ;; This function uses a non-reentrant model
  4662 ;;
  4663                           
  4664                           	psect	text42
  4665  0000'                    __ptext42:
  4666                           	opt stack 0
  4667  0000'                    _XBeeSetSleepMode:
  4668                           	opt stack 26
  4669                           
  4670                           ;incstack = 0
  4671                           ;XBeeSetSleepMode@mode stored from wreg
  4672  0000' 6E0D'              	movwf	XBeeSetSleepMode@mode,c
  4673                           
  4674                           ;digi_join.c: 59: static uint8_t command[3] = {'S', 'M', '\0'};
  4675                           ;digi_join.c: 60: uint8_t params[2];
  4676                           ;digi_join.c: 61: params[0] = mode;
  4677  0002' C00D' F00E'        	movff	XBeeSetSleepMode@mode,XBeeSetSleepMode@params
  4678                           
  4679                           ;digi_join.c: 62: params[1] = '\0';
  4680  0006' 0E00               	movlw	0
  4681  0008' 6E0F'              	movwf	XBeeSetSleepMode@params+1,c
  4682                           
  4683                           ;digi_join.c: 63: XBeeCreatePacket(&joinPacket);
  4684  000A' 0E00'              	movlw	low _joinPacket
  4685  000C' 6E08'              	movwf	XBeeCreatePacket@packet,c
  4686  000E' 0E00'              	movlw	high _joinPacket
  4687  0010' 6E09'              	movwf	XBeeCreatePacket@packet+1,c
  4688  0012' EC00' F000'        	call	_XBeeCreatePacket	;wreg free
  4689                           
  4690                           ;digi_join.c: 64: XBeeCreateCompleteATCommandPacket(&joinPacket, 0x01, command, params, 
      +                          0x01);
  4691  0016' 0E00'              	movlw	low _joinPacket
  4692  0018' 6E00'              	movwf	XBeeCreateCompleteATCommandPacket@packet,c
  4693  001A' 0E00'              	movlw	high _joinPacket
  4694  001C' 6E01'              	movwf	XBeeCreateCompleteATCommandPacket@packet+1,c
  4695  001E' 0E01               	movlw	1
  4696  0020' 6E02'              	movwf	XBeeCreateCompleteATCommandPacket@frameId,c
  4697  0022' 0E00'              	movlw	low XBeeSetSleepMode@command
  4698  0024' 6E03'              	movwf	XBeeCreateCompleteATCommandPacket@command,c
  4699  0026' 0E00'              	movlw	high XBeeSetSleepMode@command
  4700  0028' 6E04'              	movwf	XBeeCreateCompleteATCommandPacket@command+1,c
  4701  002A' 0E00'              	movlw	low XBeeSetSleepMode@params
  4702  002C' 6E05'              	movwf	XBeeCreateCompleteATCommandPacket@params,c
  4703  002E' 0E00'              	movlw	high XBeeSetSleepMode@params
  4704  0030' 6E06'              	movwf	XBeeCreateCompleteATCommandPacket@params+1,c
  4705  0032' 0E01               	movlw	1
  4706  0034' 6E07'              	movwf	XBeeCreateCompleteATCommandPacket@paramsLength,c
  4707  0036' EC00' F000'        	call	_XBeeCreateCompleteATCommandPacket	;wreg free
  4708                           
  4709                           ;digi_join.c: 65: XBeeSendPacket(&joinPacket);
  4710  003A' 0E00'              	movlw	low _joinPacket
  4711  003C' 6E01'              	movwf	XBeeSendPacket@packet,c
  4712  003E' 0E00'              	movlw	high _joinPacket
  4713  0040' 6E02'              	movwf	XBeeSendPacket@packet+1,c
  4714  0042' EC00' F000'        	call	_XBeeSendPacket	;wreg free
  4715  0046' 0012               	return		;funcret
  4716  0048'                    __end_of_XBeeSetSleepMode:
  4717                           	opt stack 0
  4718                           tblptru	equ	0xFF8
  4719                           tblptrh	equ	0xFF7
  4720                           tblptrl	equ	0xFF6
  4721                           tablat	equ	0xFF5
  4722                           prodh	equ	0xFF4
  4723                           prodl	equ	0xFF3
  4724                           intcon	equ	0xFF2
  4725                           intcon2	equ	0xFF1
  4726                           postinc0	equ	0xFEE
  4727                           wreg	equ	0xFE8
  4728                           indf1	equ	0xFE7
  4729                           postdec1	equ	0xFE5
  4730                           fsr1h	equ	0xFE2
  4731                           fsr1l	equ	0xFE1
  4732                           indf2	equ	0xFDF
  4733                           postinc2	equ	0xFDE
  4734                           postdec2	equ	0xFDD
  4735                           fsr2h	equ	0xFDA
  4736                           fsr2l	equ	0xFD9
  4737                           status	equ	0xFD8
  4738                           
  4739 ;; *************** function _XBeeReset *****************
  4740 ;; Defined at:
  4741 ;;		line 41 in file "xbee/digi_join.c"
  4742 ;; Parameters:    Size  Location     Type
  4743 ;;		None
  4744 ;; Auto vars:     Size  Location     Type
  4745 ;;		None
  4746 ;; Return value:  Size  Location     Type
  4747 ;;		None               void
  4748 ;; Registers used:
  4749 ;;		wreg, fsr1l, fsr1h, fsr2l, fsr2h, status,2, status,0, cstack
  4750 ;; Tracked objects:
  4751 ;;		On entry : 0/0
  4752 ;;		On exit  : 0/0
  4753 ;;		Unchanged: 0/0
  4754 ;; Data sizes:     COMRAM   BANK0   BANK1   BANK2   BANK3   BANK4   BANK5   BANK6   BANK7   BANK8   BANK9  BANK10  BANK1
      +1  BANK12  BANK13  BANK14
  4755 ;;      Params:         0       0       0       0       0       0       0       0       0       0       0       0       
      +0       0       0       0
  4756 ;;      Locals:         0       0       0       0       0       0       0       0       0       0       0       0       
      +0       0       0       0
  4757 ;;      Temps:          0       0       0       0       0       0       0       0       0       0       0       0       
      +0       0       0       0
  4758 ;;      Totals:         0       0       0       0       0       0       0       0       0       0       0       0       
      +0       0       0       0
  4759 ;;Total ram usage:        0 bytes
  4760 ;; Hardware stack levels used:    1
  4761 ;; Hardware stack levels required when called:    2
  4762 ;; This function calls:
  4763 ;;		_XBeeCreateATCommandPacket
  4764 ;;		_XBeeCreatePacket
  4765 ;;		_XBeeSendPacket
  4766 ;; This function is called by:
  4767 ;;		_XBeeJoin
  4768 ;;		_OnDsWdtWakeUp
  4769 ;; This function uses a non-reentrant model
  4770 ;;
  4771                           
  4772                           	psect	text43
  4773  0000'                    __ptext43:
  4774                           	opt stack 0
  4775  0000'                    _XBeeReset:
  4776                           	opt stack 26
  4777                           
  4778                           ;digi_join.c: 42: static uint8_t command[3] = {'F', 'R', '\0'};
  4779                           ;digi_join.c: 43: XBeeCreatePacket(&joinPacket);
  4780                           
  4781                           ;incstack = 0
  4782  0000' 0E00'              	movlw	low _joinPacket
  4783  0002' 6E08'              	movwf	XBeeCreatePacket@packet,c
  4784  0004' 0E00'              	movlw	high _joinPacket
  4785  0006' 6E09'              	movwf	XBeeCreatePacket@packet+1,c
  4786  0008' EC00' F000'        	call	_XBeeCreatePacket	;wreg free
  4787                           
  4788                           ;digi_join.c: 44: XBeeCreateATCommandPacket(&joinPacket, 0x01, command);
  4789  000C' 0E00'              	movlw	low _joinPacket
  4790  000E' 6E00'              	movwf	XBeeCreateATCommandPacket@packet,c
  4791  0010' 0E00'              	movlw	high _joinPacket
  4792  0012' 6E01'              	movwf	XBeeCreateATCommandPacket@packet+1,c
  4793  0014' 0E01               	movlw	1
  4794  0016' 6E02'              	movwf	XBeeCreateATCommandPacket@frameId,c
  4795  0018' 0E00'              	movlw	low XBeeReset@command
  4796  001A' 6E03'              	movwf	XBeeCreateATCommandPacket@command,c
  4797  001C' 0E00'              	movlw	high XBeeReset@command
  4798  001E' 6E04'              	movwf	XBeeCreateATCommandPacket@command+1,c
  4799  0020' EC00' F000'        	call	_XBeeCreateATCommandPacket	;wreg free
  4800                           
  4801                           ;digi_join.c: 45: XBeeSendPacket(&joinPacket);
  4802  0024' 0E00'              	movlw	low _joinPacket
  4803  0026' 6E01'              	movwf	XBeeSendPacket@packet,c
  4804  0028' 0E00'              	movlw	high _joinPacket
  4805  002A' 6E02'              	movwf	XBeeSendPacket@packet+1,c
  4806  002C' EC00' F000'        	call	_XBeeSendPacket	;wreg free
  4807  0030' 0012               	return		;funcret
  4808  0032'                    __end_of_XBeeReset:
  4809                           	opt stack 0
  4810                           tblptru	equ	0xFF8
  4811                           tblptrh	equ	0xFF7
  4812                           tblptrl	equ	0xFF6
  4813                           tablat	equ	0xFF5
  4814                           prodh	equ	0xFF4
  4815                           prodl	equ	0xFF3
  4816                           intcon	equ	0xFF2
  4817                           intcon2	equ	0xFF1
  4818                           postinc0	equ	0xFEE
  4819                           wreg	equ	0xFE8
  4820                           indf1	equ	0xFE7
  4821                           postdec1	equ	0xFE5
  4822                           fsr1h	equ	0xFE2
  4823                           fsr1l	equ	0xFE1
  4824                           indf2	equ	0xFDF
  4825                           postinc2	equ	0xFDE
  4826                           postdec2	equ	0xFDD
  4827                           fsr2h	equ	0xFDA
  4828                           fsr2l	equ	0xFD9
  4829                           status	equ	0xFD8
  4830                           
  4831 ;; *************** function _XBeeCreateATCommandPacket *****************
  4832 ;; Defined at:
  4833 ;;		line 37 in file "xbee/digi_at_request.c"
  4834 ;; Parameters:    Size  Location     Type
  4835 ;;  packet          2    0[COMRAM] PTR struct XBeePacket
  4836 ;;		 -> joinPacket(125), 
  4837 ;;  frameId         1    2[COMRAM] unsigned char 
  4838 ;;  command         2    3[COMRAM] PTR unsigned char 
  4839 ;;		 -> XBeeReset@command(3), 
  4840 ;; Auto vars:     Size  Location     Type
  4841 ;;  p               2    5[COMRAM] PTR unsigned char 
  4842 ;;		 -> joinPacket.frame.command(2), XBeeCreateATCommandPacket@packet.frame(116), 
  4843 ;; Return value:  Size  Location     Type
  4844 ;;		None               void
  4845 ;; Registers used:
  4846 ;;		wreg, fsr1l, fsr1h, fsr2l, fsr2h, status,2, status,0
  4847 ;; Tracked objects:
  4848 ;;		On entry : 0/0
  4849 ;;		On exit  : 0/0
  4850 ;;		Unchanged: 0/0
  4851 ;; Data sizes:     COMRAM   BANK0   BANK1   BANK2   BANK3   BANK4   BANK5   BANK6   BANK7   BANK8   BANK9  BANK10  BANK1
      +1  BANK12  BANK13  BANK14
  4852 ;;      Params:         5       0       0       0       0       0       0       0       0       0       0       0       
      +0       0       0       0
  4853 ;;      Locals:         2       0       0       0       0       0       0       0       0       0       0       0       
      +0       0       0       0
  4854 ;;      Temps:          0       0       0       0       0       0       0       0       0       0       0       0       
      +0       0       0       0
  4855 ;;      Totals:         7       0       0       0       0       0       0       0       0       0       0       0       
      +0       0       0       0
  4856 ;;Total ram usage:        7 bytes
  4857 ;; Hardware stack levels used:    1
  4858 ;; This function calls:
  4859 ;;		Nothing
  4860 ;; This function is called by:
  4861 ;;		_XBeeReset
  4862 ;; This function uses a non-reentrant model
  4863 ;;
  4864                           
  4865                           	psect	text44
  4866  0000'                    __ptext44:
  4867                           	opt stack 0
  4868  0000'                    _XBeeCreateATCommandPacket:
  4869                           	opt stack 27
  4870                           
  4871                           ;digi_at_request.c: 39: uint8_t* p = packet->frame.atCommand.command;
  4872                           
  4873                           ;incstack = 0
  4874  0000' 0E02               	movlw	2
  4875  0002' 2400'              	addwf	XBeeCreateATCommandPacket@packet,w,c
  4876  0004' 6E05'              	movwf	XBeeCreateATCommandPacket@p,c
  4877  0006' 0E00               	movlw	0
  4878  0008' 2001'              	addwfc	XBeeCreateATCommandPacket@packet+1,w,c
  4879  000A' 6E06'              	movwf	XBeeCreateATCommandPacket@p+1,c
  4880                           
  4881                           ;digi_at_request.c: 40: *p++ = *command++;
  4882  000C' C003' FFD9         	movff	XBeeCreateATCommandPacket@command,fsr2l
  4883  0010' C004' FFDA         	movff	XBeeCreateATCommandPacket@command+1,fsr2h
  4884  0014' C005' FFE1         	movff	XBeeCreateATCommandPacket@p,fsr1l
  4885  0018' C006' FFE2         	movff	XBeeCreateATCommandPacket@p+1,fsr1h
  4886  001C' CFDF FFE7          	movff	indf2,indf1
  4887  0020' 4A03'              	infsnz	XBeeCreateATCommandPacket@command,f,c
  4888  0022' 2A04'              	incf	XBeeCreateATCommandPacket@command+1,f,c
  4889  0024' 4A05'              	infsnz	XBeeCreateATCommandPacket@p,f,c
  4890  0026' 2A06'              	incf	XBeeCreateATCommandPacket@p+1,f,c
  4891                           
  4892                           ;digi_at_request.c: 41: *p++ = *command;
  4893  0028' C003' FFD9         	movff	XBeeCreateATCommandPacket@command,fsr2l
  4894  002C' C004' FFDA         	movff	XBeeCreateATCommandPacket@command+1,fsr2h
  4895  0030' C005' FFE1         	movff	XBeeCreateATCommandPacket@p,fsr1l
  4896  0034' C006' FFE2         	movff	XBeeCreateATCommandPacket@p+1,fsr1h
  4897  0038' CFDF FFE7          	movff	indf2,indf1
  4898  003C' 4A05'              	infsnz	XBeeCreateATCommandPacket@p,f,c
  4899  003E' 2A06'              	incf	XBeeCreateATCommandPacket@p+1,f,c
  4900                           
  4901                           ;digi_at_request.c: 42: packet->apiId = AT_COMMAND;
  4902  0040' C000' FFD9         	movff	XBeeCreateATCommandPacket@packet,fsr2l
  4903  0044' C001' FFDA         	movff	XBeeCreateATCommandPacket@packet+1,fsr2h
  4904  0048' 0E08               	movlw	8
  4905  004A' 6EDF               	movwf	indf2,c
  4906                           
  4907                           ;digi_at_request.c: 43: packet->frame.atCommand.frameId = frameId;
  4908  004C' EE20 F001          	lfsr	2,1
  4909  0050' 5000'              	movf	XBeeCreateATCommandPacket@packet,w,c
  4910  0052' 26D9               	addwf	fsr2l,f,c
  4911  0054' 5001'              	movf	XBeeCreateATCommandPacket@packet+1,w,c
  4912  0056' 22DA               	addwfc	fsr2h,f,c
  4913  0058' C002' FFDF         	movff	XBeeCreateATCommandPacket@frameId,indf2
  4914                           
  4915                           ;digi_at_request.c: 44: packet->length = 0x04;
  4916  005C' EE20 F075          	lfsr	2,117
  4917  0060' 5000'              	movf	XBeeCreateATCommandPacket@packet,w,c
  4918  0062' 26D9               	addwf	fsr2l,f,c
  4919  0064' 5001'              	movf	XBeeCreateATCommandPacket@packet+1,w,c
  4920  0066' 22DA               	addwfc	fsr2h,f,c
  4921  0068' 0E04               	movlw	4
  4922  006A' 6EDE               	movwf	postinc2,c
  4923  006C' 0E00               	movlw	0
  4924  006E' 6EDD               	movwf	postdec2,c
  4925  0070' 0012               	return		;funcret
  4926  0072'                    __end_of_XBeeCreateATCommandPacket:
  4927                           	opt stack 0
  4928                           tblptru	equ	0xFF8
  4929                           tblptrh	equ	0xFF7
  4930                           tblptrl	equ	0xFF6
  4931                           tablat	equ	0xFF5
  4932                           prodh	equ	0xFF4
  4933                           prodl	equ	0xFF3
  4934                           intcon	equ	0xFF2
  4935                           intcon2	equ	0xFF1
  4936                           postinc0	equ	0xFEE
  4937                           wreg	equ	0xFE8
  4938                           indf1	equ	0xFE7
  4939                           postdec1	equ	0xFE5
  4940                           fsr1h	equ	0xFE2
  4941                           fsr1l	equ	0xFE1
  4942                           indf2	equ	0xFDF
  4943                           postinc2	equ	0xFDE
  4944                           postdec2	equ	0xFDD
  4945                           fsr2h	equ	0xFDA
  4946                           fsr2l	equ	0xFD9
  4947                           status	equ	0xFD8
  4948                           
  4949 ;; *************** function _XBeeCommissioning *****************
  4950 ;; Defined at:
  4951 ;;		line 48 in file "xbee/digi_join.c"
  4952 ;; Parameters:    Size  Location     Type
  4953 ;;  timesButtonP    1    wreg     unsigned char 
  4954 ;; Auto vars:     Size  Location     Type
  4955 ;;  timesButtonP    1   13[COMRAM] unsigned char 
  4956 ;;  params          2   14[COMRAM] unsigned char [2]
  4957 ;; Return value:  Size  Location     Type
  4958 ;;		None               void
  4959 ;; Registers used:
  4960 ;;		wreg, fsr1l, fsr1h, fsr2l, fsr2h, status,2, status,0, cstack
  4961 ;; Tracked objects:
  4962 ;;		On entry : 0/0
  4963 ;;		On exit  : 0/0
  4964 ;;		Unchanged: 0/0
  4965 ;; Data sizes:     COMRAM   BANK0   BANK1   BANK2   BANK3   BANK4   BANK5   BANK6   BANK7   BANK8   BANK9  BANK10  BANK1
      +1  BANK12  BANK13  BANK14
  4966 ;;      Params:         0       0       0       0       0       0       0       0       0       0       0       0       
      +0       0       0       0
  4967 ;;      Locals:         3       0       0       0       0       0       0       0       0       0       0       0       
      +0       0       0       0
  4968 ;;      Temps:          0       0       0       0       0       0       0       0       0       0       0       0       
      +0       0       0       0
  4969 ;;      Totals:         3       0       0       0       0       0       0       0       0       0       0       0       
      +0       0       0       0
  4970 ;;Total ram usage:        3 bytes
  4971 ;; Hardware stack levels used:    1
  4972 ;; Hardware stack levels required when called:    2
  4973 ;; This function calls:
  4974 ;;		_XBeeCreateCompleteATCommandPacket
  4975 ;;		_XBeeCreatePacket
  4976 ;;		_XBeeSendPacket
  4977 ;; This function is called by:
  4978 ;;		_XBeeJoin
  4979 ;; This function uses a non-reentrant model
  4980 ;;
  4981                           
  4982                           	psect	text45
  4983  0000'                    __ptext45:
  4984                           	opt stack 0
  4985  0000'                    _XBeeCommissioning:
  4986                           	opt stack 26
  4987                           
  4988                           ;incstack = 0
  4989                           ;XBeeCommissioning@timesButtonPress stored from wreg
  4990  0000' 6E0D'              	movwf	XBeeCommissioning@timesButtonPress,c
  4991                           
  4992                           ;digi_join.c: 49: static uint8_t command[3] = {'C', 'B', '\0'};
  4993                           ;digi_join.c: 50: uint8_t params[2];
  4994                           ;digi_join.c: 51: params[0] = timesButtonPress;
  4995  0002' C00D' F00E'        	movff	XBeeCommissioning@timesButtonPress,XBeeCommissioning@params
  4996                           
  4997                           ;digi_join.c: 52: params[1] = '\0';
  4998  0006' 0E00               	movlw	0
  4999  0008' 6E0F'              	movwf	XBeeCommissioning@params+1,c
  5000                           
  5001                           ;digi_join.c: 53: XBeeCreatePacket(&joinPacket);
  5002  000A' 0E00'              	movlw	low _joinPacket
  5003  000C' 6E08'              	movwf	XBeeCreatePacket@packet,c
  5004  000E' 0E00'              	movlw	high _joinPacket
  5005  0010' 6E09'              	movwf	XBeeCreatePacket@packet+1,c
  5006  0012' EC00' F000'        	call	_XBeeCreatePacket	;wreg free
  5007                           
  5008                           ;digi_join.c: 54: XBeeCreateCompleteATCommandPacket(&joinPacket, 0x01, command, params, 
      +                          0x01);
  5009  0016' 0E00'              	movlw	low _joinPacket
  5010  0018' 6E00'              	movwf	XBeeCreateCompleteATCommandPacket@packet,c
  5011  001A' 0E00'              	movlw	high _joinPacket
  5012  001C' 6E01'              	movwf	XBeeCreateCompleteATCommandPacket@packet+1,c
  5013  001E' 0E01               	movlw	1
  5014  0020' 6E02'              	movwf	XBeeCreateCompleteATCommandPacket@frameId,c
  5015  0022' 0E00'              	movlw	low XBeeCommissioning@command
  5016  0024' 6E03'              	movwf	XBeeCreateCompleteATCommandPacket@command,c
  5017  0026' 0E00'              	movlw	high XBeeCommissioning@command
  5018  0028' 6E04'              	movwf	XBeeCreateCompleteATCommandPacket@command+1,c
  5019  002A' 0E00'              	movlw	low XBeeCommissioning@params
  5020  002C' 6E05'              	movwf	XBeeCreateCompleteATCommandPacket@params,c
  5021  002E' 0E00'              	movlw	high XBeeCommissioning@params
  5022  0030' 6E06'              	movwf	XBeeCreateCompleteATCommandPacket@params+1,c
  5023  0032' 0E01               	movlw	1
  5024  0034' 6E07'              	movwf	XBeeCreateCompleteATCommandPacket@paramsLength,c
  5025  0036' EC00' F000'        	call	_XBeeCreateCompleteATCommandPacket	;wreg free
  5026                           
  5027                           ;digi_join.c: 55: XBeeSendPacket(&joinPacket);
  5028  003A' 0E00'              	movlw	low _joinPacket
  5029  003C' 6E01'              	movwf	XBeeSendPacket@packet,c
  5030  003E' 0E00'              	movlw	high _joinPacket
  5031  0040' 6E02'              	movwf	XBeeSendPacket@packet+1,c
  5032  0042' EC00' F000'        	call	_XBeeSendPacket	;wreg free
  5033  0046' 0012               	return		;funcret
  5034  0048'                    __end_of_XBeeCommissioning:
  5035                           	opt stack 0
  5036                           tblptru	equ	0xFF8
  5037                           tblptrh	equ	0xFF7
  5038                           tblptrl	equ	0xFF6
  5039                           tablat	equ	0xFF5
  5040                           prodh	equ	0xFF4
  5041                           prodl	equ	0xFF3
  5042                           intcon	equ	0xFF2
  5043                           intcon2	equ	0xFF1
  5044                           postinc0	equ	0xFEE
  5045                           wreg	equ	0xFE8
  5046                           indf1	equ	0xFE7
  5047                           postdec1	equ	0xFE5
  5048                           fsr1h	equ	0xFE2
  5049                           fsr1l	equ	0xFE1
  5050                           indf2	equ	0xFDF
  5051                           postinc2	equ	0xFDE
  5052                           postdec2	equ	0xFDD
  5053                           fsr2h	equ	0xFDA
  5054                           fsr2l	equ	0xFD9
  5055                           status	equ	0xFD8
  5056                           
  5057 ;; *************** function _XBeeSendPacket *****************
  5058 ;; Defined at:
  5059 ;;		line 22 in file "xbee/digi_send.c"
  5060 ;; Parameters:    Size  Location     Type
  5061 ;;  packet          2    1[COMRAM] const PTR struct XBeePac
  5062 ;;		 -> SendMeasures@packet(125), joinPacket(125), 
  5063 ;; Auto vars:     Size  Location     Type
  5064 ;;  p               2    5[COMRAM] PTR unsigned char 
  5065 ;;		 -> SendMeasures@packet(125), joinPacket(125), 
  5066 ;; Return value:  Size  Location     Type
  5067 ;;                  1    wreg      enum E7337
  5068 ;; Registers used:
  5069 ;;		wreg, fsr2l, fsr2h, status,2, status,0, cstack
  5070 ;; Tracked objects:
  5071 ;;		On entry : 0/0
  5072 ;;		On exit  : 0/0
  5073 ;;		Unchanged: 0/0
  5074 ;; Data sizes:     COMRAM   BANK0   BANK1   BANK2   BANK3   BANK4   BANK5   BANK6   BANK7   BANK8   BANK9  BANK10  BANK1
      +1  BANK12  BANK13  BANK14
  5075 ;;      Params:         2       0       0       0       0       0       0       0       0       0       0       0       
      +0       0       0       0
  5076 ;;      Locals:         2       0       0       0       0       0       0       0       0       0       0       0       
      +0       0       0       0
  5077 ;;      Temps:          2       0       0       0       0       0       0       0       0       0       0       0       
      +0       0       0       0
  5078 ;;      Totals:         6       0       0       0       0       0       0       0       0       0       0       0       
      +0       0       0       0
  5079 ;;Total ram usage:        6 bytes
  5080 ;; Hardware stack levels used:    1
  5081 ;; Hardware stack levels required when called:    1
  5082 ;; This function calls:
  5083 ;;		_XBeeSerialSend
  5084 ;; This function is called by:
  5085 ;;		_XBeeReset
  5086 ;;		_XBeeCommissioning
  5087 ;;		_XBeeSetSleepMode
  5088 ;;		_SendMeasures
  5089 ;; This function uses a non-reentrant model
  5090 ;;
  5091                           
  5092                           	psect	text46
  5093  0000'                    __ptext46:
  5094                           	opt stack 0
  5095  0000'                    _XBeeSendPacket:
  5096                           	opt stack 27
  5097                           
  5098                           ;digi_send.c: 23: uint8_t* p = (uint8_t*) packet;
  5099                           
  5100                           ;incstack = 0
  5101  0000' C001' F005'        	movff	XBeeSendPacket@packet,XBeeSendPacket@p
  5102  0004' C002' F006'        	movff	XBeeSendPacket@packet+1,XBeeSendPacket@p+1
  5103                           
  5104                           ;digi_send.c: 24: XBeeSerialSend(0x7E);
  5105  0008' 0E7E               	movlw	126
  5106  000A' EC00' F000'        	call	_XBeeSerialSend
  5107                           
  5108                           ;digi_send.c: 26: XBeeSerialSend((packet->length >> 8) & 0xFF);
  5109  000E' EE20 F075          	lfsr	2,117
  5110  0012' 5001'              	movf	XBeeSendPacket@packet,w,c
  5111  0014' 26D9               	addwf	fsr2l,f,c
  5112  0016' 5002'              	movf	XBeeSendPacket@packet+1,w,c
  5113  0018' 22DA               	addwfc	fsr2h,f,c
  5114  001A' CFDE F003'         	movff	postinc2,??_XBeeSendPacket
  5115  001E' CFDD F004'         	movff	postdec2,??_XBeeSendPacket+1
  5116  0022' C004' F003'        	movff	??_XBeeSendPacket+1,??_XBeeSendPacket
  5117  0026' 6A04'              	clrf	??_XBeeSendPacket+1,c
  5118  0028' 5003'              	movf	??_XBeeSendPacket,w,c
  5119  002A' EC00' F000'        	call	_XBeeSerialSend
  5120                           
  5121                           ;digi_send.c: 28: XBeeSerialSend(packet->length & 0xFF);
  5122  002E' EE20 F075          	lfsr	2,117
  5123  0032' 5001'              	movf	XBeeSendPacket@packet,w,c
  5124  0034' 26D9               	addwf	fsr2l,f,c
  5125  0036' 5002'              	movf	XBeeSendPacket@packet+1,w,c
  5126  0038' 22DA               	addwfc	fsr2h,f,c
  5127  003A' 50DF               	movf	indf2,w,c
  5128  003C' EC00' F000'        	call	_XBeeSerialSend
  5129                           
  5130                           ;digi_send.c: 30: packet->checksum = 0;
  5131  0040' EE20 F077          	lfsr	2,119
  5132  0044' 5001'              	movf	XBeeSendPacket@packet,w,c
  5133  0046' 26D9               	addwf	fsr2l,f,c
  5134  0048' 5002'              	movf	XBeeSendPacket@packet+1,w,c
  5135  004A' 22DA               	addwfc	fsr2h,f,c
  5136  004C' 0E00               	movlw	0
  5137  004E' 6EDF               	movwf	indf2,c
  5138                           
  5139                           ;digi_send.c: 32: while (packet->length--) {
  5140  0050' D018               	goto	l2147
  5141  0052'                    l2141:
  5142                           
  5143                           ;digi_send.c: 33: XBeeSerialSend(*p);
  5144  0052' C005' FFD9         	movff	XBeeSendPacket@p,fsr2l
  5145  0056' C006' FFDA         	movff	XBeeSendPacket@p+1,fsr2h
  5146  005A' 50DF               	movf	indf2,w,c
  5147  005C' EC00' F000'        	call	_XBeeSerialSend
  5148                           
  5149                           ;digi_send.c: 34: packet->checksum += *p++;
  5150  0060' C005' FFD9         	movff	XBeeSendPacket@p,fsr2l
  5151  0064' C006' FFDA         	movff	XBeeSendPacket@p+1,fsr2h
  5152  0068' 50DF               	movf	indf2,w,c
  5153  006A' 6E00'              	movwf	??_XBeeSendPacket& (0+255),c
  5154  006C' EE20 F077          	lfsr	2,119
  5155  0070' 5001'              	movf	XBeeSendPacket@packet,w,c
  5156  0072' 26D9               	addwf	fsr2l,f,c
  5157  0074' 5002'              	movf	XBeeSendPacket@packet+1,w,c
  5158  0076' 22DA               	addwfc	fsr2h,f,c
  5159  0078' 5003'              	movf	??_XBeeSendPacket,w,c
  5160  007A' 26DF               	addwf	indf2,f,c
  5161  007C' 4A05'              	infsnz	XBeeSendPacket@p,f,c
  5162  007E' 2A06'              	incf	XBeeSendPacket@p+1,f,c
  5163  0080' D000               	goto	l2147
  5164  0082'                    l2147:
  5165  0082' EE20 F075          	lfsr	2,117
  5166  0086' 5001'              	movf	XBeeSendPacket@packet,w,c
  5167  0088' 26D9               	addwf	fsr2l,f,c
  5168  008A' 5002'              	movf	XBeeSendPacket@packet+1,w,c
  5169  008C' 22DA               	addwfc	fsr2h,f,c
  5170  008E' 06DE               	decf	postinc2,f,c
  5171  0090' 0E00               	movlw	0
  5172  0092' 5ADD               	subwfb	postdec2,f,c
  5173  0094' 28DE               	incf	postinc2,w,c
  5174  0096' E1DD               	bnz	l2141
  5175  0098' 28DE               	incf	postinc2,w,c
  5176  009A' A4D8               	btfss	status,2,c
  5177  009C' D7DA               	goto	l2141
  5178                           
  5179                           ;digi_send.c: 35: }
  5180                           ;digi_send.c: 36: XBeeSerialSend((0xFF - packet->checksum));
  5181  009E' EE20 F077          	lfsr	2,119
  5182  00A2' 5001'              	movf	XBeeSendPacket@packet,w,c
  5183  00A4' 26D9               	addwf	fsr2l,f,c
  5184  00A6' 5002'              	movf	XBeeSendPacket@packet+1,w,c
  5185  00A8' 22DA               	addwfc	fsr2h,f,c
  5186  00AA' 50DF               	movf	indf2,w,c
  5187  00AC' 0800               	sublw	0
  5188  00AE' 6E00'              	movwf	??_XBeeSendPacket& (0+255),c
  5189  00B0' 0403'              	decf	??_XBeeSendPacket,w,c
  5190  00B2' EC00' F000'        	call	_XBeeSerialSend
  5191                           
  5192                           ;digi_send.c: 38: XBeeSerialSend((0));
  5193  00B6' 0E00               	movlw	0
  5194  00B8' EC00' F000'        	call	_XBeeSerialSend
  5195  00BC' 0012               	return	
  5196                           
  5197                           ;digi_send.c: 39: return TRUE;
  5198                           ;	Return value of _XBeeSendPacket is never used
  5199  00BE' 0012               	return		;funcret
  5200  00C0'                    __end_of_XBeeSendPacket:
  5201                           	opt stack 0
  5202                           tblptru	equ	0xFF8
  5203                           tblptrh	equ	0xFF7
  5204                           tblptrl	equ	0xFF6
  5205                           tablat	equ	0xFF5
  5206                           prodh	equ	0xFF4
  5207                           prodl	equ	0xFF3
  5208                           intcon	equ	0xFF2
  5209                           intcon2	equ	0xFF1
  5210                           postinc0	equ	0xFEE
  5211                           wreg	equ	0xFE8
  5212                           indf1	equ	0xFE7
  5213                           postdec1	equ	0xFE5
  5214                           fsr1h	equ	0xFE2
  5215                           fsr1l	equ	0xFE1
  5216                           indf2	equ	0xFDF
  5217                           postinc2	equ	0xFDE
  5218                           postdec2	equ	0xFDD
  5219                           fsr2h	equ	0xFDA
  5220                           fsr2l	equ	0xFD9
  5221                           status	equ	0xFD8
  5222                           
  5223 ;; *************** function _XBeeSerialSend *****************
  5224 ;; Defined at:
  5225 ;;		line 35 in file "xbee/digi_serial.c"
  5226 ;; Parameters:    Size  Location     Type
  5227 ;;  value           1    wreg     unsigned char 
  5228 ;; Auto vars:     Size  Location     Type
  5229 ;;  value           1    0[COMRAM] unsigned char 
  5230 ;; Return value:  Size  Location     Type
  5231 ;;		None               void
  5232 ;; Registers used:
  5233 ;;		wreg
  5234 ;; Tracked objects:
  5235 ;;		On entry : 0/0
  5236 ;;		On exit  : 0/0
  5237 ;;		Unchanged: 0/0
  5238 ;; Data sizes:     COMRAM   BANK0   BANK1   BANK2   BANK3   BANK4   BANK5   BANK6   BANK7   BANK8   BANK9  BANK10  BANK1
      +1  BANK12  BANK13  BANK14
  5239 ;;      Params:         0       0       0       0       0       0       0       0       0       0       0       0       
      +0       0       0       0
  5240 ;;      Locals:         1       0       0       0       0       0       0       0       0       0       0       0       
      +0       0       0       0
  5241 ;;      Temps:          0       0       0       0       0       0       0       0       0       0       0       0       
      +0       0       0       0
  5242 ;;      Totals:         1       0       0       0       0       0       0       0       0       0       0       0       
      +0       0       0       0
  5243 ;;Total ram usage:        1 bytes
  5244 ;; Hardware stack levels used:    1
  5245 ;; This function calls:
  5246 ;;		Nothing
  5247 ;; This function is called by:
  5248 ;;		_XBeeSendPacket
  5249 ;;		_XBeeSerialSendArray
  5250 ;; This function uses a non-reentrant model
  5251 ;;
  5252                           
  5253                           	psect	text47
  5254  0000'                    __ptext47:
  5255                           	opt stack 0
  5256  0000'                    _XBeeSerialSend:
  5257                           	opt stack 27
  5258                           
  5259                           ;incstack = 0
  5260                           ;XBeeSerialSend@value stored from wreg
  5261  0000' 6E00'              	movwf	XBeeSerialSend@value,c
  5262                           
  5263                           ;digi_serial.c: 36: while (!TXSTA1bits.TRMT);
  5264  0002' D000               	goto	l209
  5265  0004'                    l209:
  5266  0004' A2AD               	btfss	4013,1,c	;volatile
  5267  0006' D7FE               	goto	l209
  5268                           
  5269                           ;digi_serial.c: 37: TXREG1 = value;
  5270  0008' C000' FFAE         	movff	XBeeSerialSend@value,4014	;volatile
  5271  000C' 0012               	return		;funcret
  5272  000E'                    __end_of_XBeeSerialSend:
  5273                           	opt stack 0
  5274                           tblptru	equ	0xFF8
  5275                           tblptrh	equ	0xFF7
  5276                           tblptrl	equ	0xFF6
  5277                           tablat	equ	0xFF5
  5278                           prodh	equ	0xFF4
  5279                           prodl	equ	0xFF3
  5280                           intcon	equ	0xFF2
  5281                           intcon2	equ	0xFF1
  5282                           postinc0	equ	0xFEE
  5283                           wreg	equ	0xFE8
  5284                           indf1	equ	0xFE7
  5285                           postdec1	equ	0xFE5
  5286                           fsr1h	equ	0xFE2
  5287                           fsr1l	equ	0xFE1
  5288                           indf2	equ	0xFDF
  5289                           postinc2	equ	0xFDE
  5290                           postdec2	equ	0xFDD
  5291                           fsr2h	equ	0xFDA
  5292                           fsr2l	equ	0xFD9
  5293                           status	equ	0xFD8
  5294                           
  5295 ;; *************** function _XBeeCreatePacket *****************
  5296 ;; Defined at:
  5297 ;;		line 21 in file "xbee/digi_api.c"
  5298 ;; Parameters:    Size  Location     Type
  5299 ;;  packet          2    8[COMRAM] const PTR struct XBeePac
  5300 ;;		 -> SendMeasures@packet(125), joinPacket(125), 
  5301 ;; Auto vars:     Size  Location     Type
  5302 ;;		None
  5303 ;; Return value:  Size  Location     Type
  5304 ;;		None               void
  5305 ;; Registers used:
  5306 ;;		wreg, fsr2l, fsr2h, status,2, status,0, cstack
  5307 ;; Tracked objects:
  5308 ;;		On entry : 0/0
  5309 ;;		On exit  : 0/0
  5310 ;;		Unchanged: 0/0
  5311 ;; Data sizes:     COMRAM   BANK0   BANK1   BANK2   BANK3   BANK4   BANK5   BANK6   BANK7   BANK8   BANK9  BANK10  BANK1
      +1  BANK12  BANK13  BANK14
  5312 ;;      Params:         2       0       0       0       0       0       0       0       0       0       0       0       
      +0       0       0       0
  5313 ;;      Locals:         0       0       0       0       0       0       0       0       0       0       0       0       
      +0       0       0       0
  5314 ;;      Temps:          0       0       0       0       0       0       0       0       0       0       0       0       
      +0       0       0       0
  5315 ;;      Totals:         2       0       0       0       0       0       0       0       0       0       0       0       
      +0       0       0       0
  5316 ;;Total ram usage:        2 bytes
  5317 ;; Hardware stack levels used:    1
  5318 ;; Hardware stack levels required when called:    1
  5319 ;; This function calls:
  5320 ;;		_memset
  5321 ;; This function is called by:
  5322 ;;		_XBeeReset
  5323 ;;		_XBeeCommissioning
  5324 ;;		_XBeeSetSleepMode
  5325 ;;		_SendMeasures
  5326 ;; This function uses a non-reentrant model
  5327 ;;
  5328                           
  5329                           	psect	text48
  5330  0000'                    __ptext48:
  5331                           	opt stack 0
  5332  0000'                    _XBeeCreatePacket:
  5333                           	opt stack 27
  5334                           
  5335                           ;digi_api.c: 22: packet->dataPtr = (uint8_t*) packet;
  5336                           
  5337                           ;incstack = 0
  5338  0000' EE20 F079          	lfsr	2,121
  5339  0004' 5008'              	movf	XBeeCreatePacket@packet,w,c
  5340  0006' 26D9               	addwf	fsr2l,f,c
  5341  0008' 5009'              	movf	XBeeCreatePacket@packet+1,w,c
  5342  000A' 22DA               	addwfc	fsr2h,f,c
  5343  000C' C008' FFDE         	movff	XBeeCreatePacket@packet,postinc2
  5344  0010' C009' FFDD         	movff	XBeeCreatePacket@packet+1,postdec2
  5345                           
  5346                           ;digi_api.c: 23: packet->checksum = 0;
  5347  0014' EE20 F077          	lfsr	2,119
  5348  0018' 5008'              	movf	XBeeCreatePacket@packet,w,c
  5349  001A' 26D9               	addwf	fsr2l,f,c
  5350  001C' 5009'              	movf	XBeeCreatePacket@packet+1,w,c
  5351  001E' 22DA               	addwfc	fsr2h,f,c
  5352  0020' 0E00               	movlw	0
  5353  0022' 6EDF               	movwf	indf2,c
  5354                           
  5355                           ;digi_api.c: 24: packet->rxState = XBEE_PACKET_RX_START;
  5356  0024' EE20 F078          	lfsr	2,120
  5357  0028' 5008'              	movf	XBeeCreatePacket@packet,w,c
  5358  002A' 26D9               	addwf	fsr2l,f,c
  5359  002C' 5009'              	movf	XBeeCreatePacket@packet+1,w,c
  5360  002E' 22DA               	addwfc	fsr2h,f,c
  5361  0030' 0E00               	movlw	0
  5362  0032' 6EDF               	movwf	indf2,c
  5363                           
  5364                           ;digi_api.c: 25: packet->length = 0;
  5365  0034' EE20 F075          	lfsr	2,117
  5366  0038' 5008'              	movf	XBeeCreatePacket@packet,w,c
  5367  003A' 26D9               	addwf	fsr2l,f,c
  5368  003C' 5009'              	movf	XBeeCreatePacket@packet+1,w,c
  5369  003E' 22DA               	addwfc	fsr2h,f,c
  5370  0040' 0E00               	movlw	0
  5371  0042' 6EDE               	movwf	postinc2,c
  5372  0044' 0E00               	movlw	0
  5373  0046' 6EDD               	movwf	postdec2,c
  5374                           
  5375                           ;digi_api.c: 26: packet->index = 0;
  5376  0048' EE20 F07B          	lfsr	2,123
  5377  004C' 5008'              	movf	XBeeCreatePacket@packet,w,c
  5378  004E' 26D9               	addwf	fsr2l,f,c
  5379  0050' 5009'              	movf	XBeeCreatePacket@packet+1,w,c
  5380  0052' 22DA               	addwfc	fsr2h,f,c
  5381  0054' 0E00               	movlw	0
  5382  0056' 6EDF               	movwf	indf2,c
  5383                           
  5384                           ;digi_api.c: 27: packet->apiId = 0;
  5385  0058' C008' FFD9         	movff	XBeeCreatePacket@packet,fsr2l
  5386  005C' C009' FFDA         	movff	XBeeCreatePacket@packet+1,fsr2h
  5387  0060' 0E00               	movlw	0
  5388  0062' 6EDF               	movwf	indf2,c
  5389                           
  5390                           ;digi_api.c: 28: memset(packet->frame.payload, 0, 100);
  5391  0064' 0E01               	movlw	1
  5392  0066' 2408'              	addwf	XBeeCreatePacket@packet,w,c
  5393  0068' 6E00'              	movwf	memset@p1,c
  5394  006A' 0E00               	movlw	0
  5395  006C' 2009'              	addwfc	XBeeCreatePacket@packet+1,w,c
  5396  006E' 6E01'              	movwf	memset@p1+1,c
  5397  0070' 0E00               	movlw	0
  5398  0072' 6E03'              	movwf	memset@c+1,c
  5399  0074' 0E00               	movlw	0
  5400  0076' 6E02'              	movwf	memset@c,c
  5401  0078' 0E00               	movlw	0
  5402  007A' 6E05'              	movwf	memset@n+1,c
  5403  007C' 0E64               	movlw	100
  5404  007E' 6E04'              	movwf	memset@n,c
  5405  0080' EC00' F000'        	call	_memset	;wreg free
  5406  0084' 0012               	return		;funcret
  5407  0086'                    __end_of_XBeeCreatePacket:
  5408                           	opt stack 0
  5409                           tblptru	equ	0xFF8
  5410                           tblptrh	equ	0xFF7
  5411                           tblptrl	equ	0xFF6
  5412                           tablat	equ	0xFF5
  5413                           prodh	equ	0xFF4
  5414                           prodl	equ	0xFF3
  5415                           intcon	equ	0xFF2
  5416                           intcon2	equ	0xFF1
  5417                           postinc0	equ	0xFEE
  5418                           wreg	equ	0xFE8
  5419                           indf1	equ	0xFE7
  5420                           postdec1	equ	0xFE5
  5421                           fsr1h	equ	0xFE2
  5422                           fsr1l	equ	0xFE1
  5423                           indf2	equ	0xFDF
  5424                           postinc2	equ	0xFDE
  5425                           postdec2	equ	0xFDD
  5426                           fsr2h	equ	0xFDA
  5427                           fsr2l	equ	0xFD9
  5428                           status	equ	0xFD8
  5429                           
  5430 ;; *************** function _memset *****************
  5431 ;; Defined at:
  5432 ;;		line 8 in file "C:\Program Files (x86)\Microchip\xc8\v1.34\sources\common\memset.c"
  5433 ;; Parameters:    Size  Location     Type
  5434 ;;  p1              2    0[COMRAM] PTR void 
  5435 ;;		 -> joinPacket.frame(116), packet.frame(116), SendMeasures@packet(125), joinPacket(125), 
  5436 ;;  c               2    2[COMRAM] int 
  5437 ;;  n               2    4[COMRAM] unsigned int 
  5438 ;; Auto vars:     Size  Location     Type
  5439 ;;  p               2    6[COMRAM] PTR unsigned char 
  5440 ;;		 -> joinPacket.frame(116), packet.frame(116), SendMeasures@packet(125), joinPacket(125), 
  5441 ;; Return value:  Size  Location     Type
  5442 ;;                  2    0[COMRAM] PTR void 
  5443 ;; Registers used:
  5444 ;;		wreg, fsr2l, fsr2h, status,2, status,0
  5445 ;; Tracked objects:
  5446 ;;		On entry : 0/0
  5447 ;;		On exit  : 0/0
  5448 ;;		Unchanged: 0/0
  5449 ;; Data sizes:     COMRAM   BANK0   BANK1   BANK2   BANK3   BANK4   BANK5   BANK6   BANK7   BANK8   BANK9  BANK10  BANK1
      +1  BANK12  BANK13  BANK14
  5450 ;;      Params:         6       0       0       0       0       0       0       0       0       0       0       0       
      +0       0       0       0
  5451 ;;      Locals:         2       0       0       0       0       0       0       0       0       0       0       0       
      +0       0       0       0
  5452 ;;      Temps:          0       0       0       0       0       0       0       0       0       0       0       0       
      +0       0       0       0
  5453 ;;      Totals:         8       0       0       0       0       0       0       0       0       0       0       0       
      +0       0       0       0
  5454 ;;Total ram usage:        8 bytes
  5455 ;; Hardware stack levels used:    1
  5456 ;; This function calls:
  5457 ;;		Nothing
  5458 ;; This function is called by:
  5459 ;;		_XBeeCreatePacket
  5460 ;; This function uses a non-reentrant model
  5461 ;;
  5462                           
  5463                           	psect	text49
  5464  0000'                    __ptext49:
  5465                           	opt stack 0
  5466  0000'                    _memset:
  5467                           	opt stack 27
  5468                           
  5469                           ;incstack = 0
  5470  0000' C000' F006'        	movff	memset@p1,memset@p
  5471  0004' C001' F007'        	movff	memset@p1+1,memset@p+1
  5472  0008' D009               	goto	l2067
  5473  000A'                    l2063:
  5474  000A' C006' FFD9         	movff	memset@p,fsr2l
  5475  000E' C007' FFDA         	movff	memset@p+1,fsr2h
  5476  0012' C002' FFDF         	movff	memset@c,indf2
  5477  0016' 4A06'              	infsnz	memset@p,f,c
  5478  0018' 2A07'              	incf	memset@p+1,f,c
  5479  001A' D000               	goto	l2067
  5480  001C'                    l2067:
  5481  001C' 0604'              	decf	memset@n,f,c
  5482  001E' A0D8               	btfss	status,0,c
  5483  0020' 0605'              	decf	memset@n+1,f,c
  5484  0022' 2804'              	incf	memset@n,w,c
  5485  0024' E1F2               	bnz	l2063
  5486  0026' 2805'              	incf	memset@n+1,w,c
  5487  0028' A4D8               	btfss	status,2,c
  5488  002A' D7EF               	goto	l2063
  5489                           
  5490                           ;	Return value of _memset is never used
  5491  002C' 0012               	return		;funcret
  5492  002E'                    __end_of_memset:
  5493                           	opt stack 0
  5494                           tblptru	equ	0xFF8
  5495                           tblptrh	equ	0xFF7
  5496                           tblptrl	equ	0xFF6
  5497                           tablat	equ	0xFF5
  5498                           prodh	equ	0xFF4
  5499                           prodl	equ	0xFF3
  5500                           intcon	equ	0xFF2
  5501                           intcon2	equ	0xFF1
  5502                           postinc0	equ	0xFEE
  5503                           wreg	equ	0xFE8
  5504                           indf1	equ	0xFE7
  5505                           postdec1	equ	0xFE5
  5506                           fsr1h	equ	0xFE2
  5507                           fsr1l	equ	0xFE1
  5508                           indf2	equ	0xFDF
  5509                           postinc2	equ	0xFDE
  5510                           postdec2	equ	0xFDD
  5511                           fsr2h	equ	0xFDA
  5512                           fsr2l	equ	0xFD9
  5513                           status	equ	0xFD8
  5514                           
  5515 ;; *************** function _XBeeCreateCompleteATCommandPacket *****************
  5516 ;; Defined at:
  5517 ;;		line 20 in file "xbee/digi_at_request.c"
  5518 ;; Parameters:    Size  Location     Type
  5519 ;;  packet          2    0[COMRAM] PTR struct XBeePacket
  5520 ;;		 -> joinPacket(125), 
  5521 ;;  frameId         1    2[COMRAM] unsigned char 
  5522 ;;  command         2    3[COMRAM] PTR unsigned char 
  5523 ;;		 -> XBeeSetSleepMode@command(3), XBeeCommissioning@command(3), 
  5524 ;;  params          2    5[COMRAM] PTR unsigned char 
  5525 ;;		 -> XBeeSetSleepMode@params(2), XBeeCommissioning@params(2), 
  5526 ;;  paramsLength    1    7[COMRAM] unsigned char 
  5527 ;; Auto vars:     Size  Location     Type
  5528 ;;  p               2   11[COMRAM] PTR unsigned char 
  5529 ;;		 -> joinPacket.frame.value(97), joinPacket.frame.command(2), XBeeCreateCompleteATCommandPacket@packet.frame(116), 
  5530 ;;  i               1   10[COMRAM] unsigned char 
  5531 ;; Return value:  Size  Location     Type
  5532 ;;		None               void
  5533 ;; Registers used:
  5534 ;;		wreg, fsr1l, fsr1h, fsr2l, fsr2h, status,2, status,0
  5535 ;; Tracked objects:
  5536 ;;		On entry : 0/0
  5537 ;;		On exit  : 0/0
  5538 ;;		Unchanged: 0/0
  5539 ;; Data sizes:     COMRAM   BANK0   BANK1   BANK2   BANK3   BANK4   BANK5   BANK6   BANK7   BANK8   BANK9  BANK10  BANK1
      +1  BANK12  BANK13  BANK14
  5540 ;;      Params:         8       0       0       0       0       0       0       0       0       0       0       0       
      +0       0       0       0
  5541 ;;      Locals:         3       0       0       0       0       0       0       0       0       0       0       0       
      +0       0       0       0
  5542 ;;      Temps:          2       0       0       0       0       0       0       0       0       0       0       0       
      +0       0       0       0
  5543 ;;      Totals:        13       0       0       0       0       0       0       0       0       0       0       0       
      +0       0       0       0
  5544 ;;Total ram usage:       13 bytes
  5545 ;; Hardware stack levels used:    1
  5546 ;; This function calls:
  5547 ;;		Nothing
  5548 ;; This function is called by:
  5549 ;;		_XBeeCommissioning
  5550 ;;		_XBeeSetSleepMode
  5551 ;; This function uses a non-reentrant model
  5552 ;;
  5553                           
  5554                           	psect	text50
  5555  0000'                    __ptext50:
  5556                           	opt stack 0
  5557  0000'                    _XBeeCreateCompleteATCommandPacket:
  5558                           	opt stack 27
  5559                           
  5560                           ;digi_at_request.c: 22: uint8_t* p = packet->frame.atCommand.command;
  5561                           
  5562                           ;incstack = 0
  5563  0000' 0E02               	movlw	2
  5564  0002' 2400'              	addwf	XBeeCreateCompleteATCommandPacket@packet,w,c
  5565  0004' 6E0B'              	movwf	XBeeCreateCompleteATCommandPacket@p,c
  5566  0006' 0E00               	movlw	0
  5567  0008' 2001'              	addwfc	XBeeCreateCompleteATCommandPacket@packet+1,w,c
  5568  000A' 6E0C'              	movwf	XBeeCreateCompleteATCommandPacket@p+1,c
  5569                           
  5570                           ;digi_at_request.c: 23: uint8_t i = paramsLength;
  5571  000C' C007' F00A'        	movff	XBeeCreateCompleteATCommandPacket@paramsLength,XBeeCreateCompleteATCommandPacket@
      +                          i
  5572                           
  5573                           ;digi_at_request.c: 24: *p++ = *command++;
  5574  0010' C003' FFD9         	movff	XBeeCreateCompleteATCommandPacket@command,fsr2l
  5575  0014' C004' FFDA         	movff	XBeeCreateCompleteATCommandPacket@command+1,fsr2h
  5576  0018' C00B' FFE1         	movff	XBeeCreateCompleteATCommandPacket@p,fsr1l
  5577  001C' C00C' FFE2         	movff	XBeeCreateCompleteATCommandPacket@p+1,fsr1h
  5578  0020' CFDF FFE7          	movff	indf2,indf1
  5579  0024' 4A03'              	infsnz	XBeeCreateCompleteATCommandPacket@command,f,c
  5580  0026' 2A04'              	incf	XBeeCreateCompleteATCommandPacket@command+1,f,c
  5581  0028' 4A0B'              	infsnz	XBeeCreateCompleteATCommandPacket@p,f,c
  5582  002A' 2A0C'              	incf	XBeeCreateCompleteATCommandPacket@p+1,f,c
  5583                           
  5584                           ;digi_at_request.c: 25: *p++ = *command;
  5585  002C' C003' FFD9         	movff	XBeeCreateCompleteATCommandPacket@command,fsr2l
  5586  0030' C004' FFDA         	movff	XBeeCreateCompleteATCommandPacket@command+1,fsr2h
  5587  0034' C00B' FFE1         	movff	XBeeCreateCompleteATCommandPacket@p,fsr1l
  5588  0038' C00C' FFE2         	movff	XBeeCreateCompleteATCommandPacket@p+1,fsr1h
  5589  003C' CFDF FFE7          	movff	indf2,indf1
  5590  0040' 4A0B'              	infsnz	XBeeCreateCompleteATCommandPacket@p,f,c
  5591  0042' 2A0C'              	incf	XBeeCreateCompleteATCommandPacket@p+1,f,c
  5592                           
  5593                           ;digi_at_request.c: 26: p = packet->frame.atCommand.value;
  5594  0044' 0E04               	movlw	4
  5595  0046' 2400'              	addwf	XBeeCreateCompleteATCommandPacket@packet,w,c
  5596  0048' 6E0B'              	movwf	XBeeCreateCompleteATCommandPacket@p,c
  5597  004A' 0E00               	movlw	0
  5598  004C' 2001'              	addwfc	XBeeCreateCompleteATCommandPacket@packet+1,w,c
  5599  004E' 6E0C'              	movwf	XBeeCreateCompleteATCommandPacket@p+1,c
  5600                           
  5601                           ;digi_at_request.c: 27: while (i--) {
  5602  0050' D00F               	goto	l2229
  5603  0052'                    l2223:
  5604                           
  5605                           ;digi_at_request.c: 28: *p++ = *params++;
  5606  0052' C005' FFD9         	movff	XBeeCreateCompleteATCommandPacket@params,fsr2l
  5607  0056' C006' FFDA         	movff	XBeeCreateCompleteATCommandPacket@params+1,fsr2h
  5608  005A' C00B' FFE1         	movff	XBeeCreateCompleteATCommandPacket@p,fsr1l
  5609  005E' C00C' FFE2         	movff	XBeeCreateCompleteATCommandPacket@p+1,fsr1h
  5610  0062' CFDF FFE7          	movff	indf2,indf1
  5611  0066' 4A05'              	infsnz	XBeeCreateCompleteATCommandPacket@params,f,c
  5612  0068' 2A06'              	incf	XBeeCreateCompleteATCommandPacket@params+1,f,c
  5613  006A' 4A0B'              	infsnz	XBeeCreateCompleteATCommandPacket@p,f,c
  5614  006C' 2A0C'              	incf	XBeeCreateCompleteATCommandPacket@p+1,f,c
  5615  006E' D000               	goto	l2229
  5616  0070'                    l2229:
  5617  0070' 060A'              	decf	XBeeCreateCompleteATCommandPacket@i,f,c
  5618  0072' 280A'              	incf	XBeeCreateCompleteATCommandPacket@i,w,c
  5619  0074' A4D8               	btfss	status,2,c
  5620  0076' D7ED               	goto	l2223
  5621                           
  5622                           ;digi_at_request.c: 29: }
  5623                           ;digi_at_request.c: 30: packet->apiId = AT_COMMAND;
  5624  0078' C000' FFD9         	movff	XBeeCreateCompleteATCommandPacket@packet,fsr2l
  5625  007C' C001' FFDA         	movff	XBeeCreateCompleteATCommandPacket@packet+1,fsr2h
  5626  0080' 0E08               	movlw	8
  5627  0082' 6EDF               	movwf	indf2,c
  5628                           
  5629                           ;digi_at_request.c: 31: packet->frame.atCommand.frameId = frameId;
  5630  0084' EE20 F001          	lfsr	2,1
  5631  0088' 5000'              	movf	XBeeCreateCompleteATCommandPacket@packet,w,c
  5632  008A' 26D9               	addwf	fsr2l,f,c
  5633  008C' 5001'              	movf	XBeeCreateCompleteATCommandPacket@packet+1,w,c
  5634  008E' 22DA               	addwfc	fsr2h,f,c
  5635  0090' C002' FFDF         	movff	XBeeCreateCompleteATCommandPacket@frameId,indf2
  5636                           
  5637                           ;digi_at_request.c: 32: packet->length = 0x04 + paramsLength;
  5638  0094' 5007'              	movf	XBeeCreateCompleteATCommandPacket@paramsLength,w,c
  5639  0096' 6E00'              	movwf	??_XBeeCreateCompleteATCommandPacket& (0+255),c
  5640  0098' 6A00'              	clrf	(??_XBeeCreateCompleteATCommandPacket+1)& (0+255),c
  5641  009A' 0E04               	movlw	4
  5642  009C' 2608'              	addwf	??_XBeeCreateCompleteATCommandPacket,f,c
  5643  009E' 0E00               	movlw	0
  5644  00A0' 2209'              	addwfc	??_XBeeCreateCompleteATCommandPacket+1,f,c
  5645  00A2' EE20 F075          	lfsr	2,117
  5646  00A6' 5000'              	movf	XBeeCreateCompleteATCommandPacket@packet,w,c
  5647  00A8' 26D9               	addwf	fsr2l,f,c
  5648  00AA' 5001'              	movf	XBeeCreateCompleteATCommandPacket@packet+1,w,c
  5649  00AC' 22DA               	addwfc	fsr2h,f,c
  5650  00AE' C008' FFDE         	movff	??_XBeeCreateCompleteATCommandPacket,postinc2
  5651  00B2' C009' FFDD         	movff	??_XBeeCreateCompleteATCommandPacket+1,postdec2
  5652  00B6' 0012               	return		;funcret
  5653  00B8'                    __end_of_XBeeCreateCompleteATCommandPacket:
  5654                           	opt stack 0
  5655                           tblptru	equ	0xFF8
  5656                           tblptrh	equ	0xFF7
  5657                           tblptrl	equ	0xFF6
  5658                           tablat	equ	0xFF5
  5659                           prodh	equ	0xFF4
  5660                           prodl	equ	0xFF3
  5661                           intcon	equ	0xFF2
  5662                           intcon2	equ	0xFF1
  5663                           postinc0	equ	0xFEE
  5664                           wreg	equ	0xFE8
  5665                           indf1	equ	0xFE7
  5666                           postdec1	equ	0xFE5
  5667                           fsr1h	equ	0xFE2
  5668                           fsr1l	equ	0xFE1
  5669                           indf2	equ	0xFDF
  5670                           postinc2	equ	0xFDE
  5671                           postdec2	equ	0xFDD
  5672                           fsr2h	equ	0xFDA
  5673                           fsr2l	equ	0xFD9
  5674                           status	equ	0xFD8
  5675                           
  5676 ;; *************** function _Delay10KTCYx *****************
  5677 ;; Defined at:
  5678 ;;		line 8 in file "C:\Program Files (x86)\Microchip\xc8\v1.34\sources\pic18\d10ktcyx.c"
  5679 ;; Parameters:    Size  Location     Type
  5680 ;;  unit            1    wreg     unsigned char 
  5681 ;; Auto vars:     Size  Location     Type
  5682 ;;  unit            1    1[COMRAM] unsigned char 
  5683 ;; Return value:  Size  Location     Type
  5684 ;;		None               void
  5685 ;; Registers used:
  5686 ;;		wreg
  5687 ;; Tracked objects:
  5688 ;;		On entry : 0/0
  5689 ;;		On exit  : 0/0
  5690 ;;		Unchanged: 0/0
  5691 ;; Data sizes:     COMRAM   BANK0   BANK1   BANK2   BANK3   BANK4   BANK5   BANK6   BANK7   BANK8   BANK9  BANK10  BANK1
      +1  BANK12  BANK13  BANK14
  5692 ;;      Params:         0       0       0       0       0       0       0       0       0       0       0       0       
      +0       0       0       0
  5693 ;;      Locals:         1       0       0       0       0       0       0       0       0       0       0       0       
      +0       0       0       0
  5694 ;;      Temps:          1       0       0       0       0       0       0       0       0       0       0       0       
      +0       0       0       0
  5695 ;;      Totals:         2       0       0       0       0       0       0       0       0       0       0       0       
      +0       0       0       0
  5696 ;;Total ram usage:        2 bytes
  5697 ;; Hardware stack levels used:    1
  5698 ;; This function calls:
  5699 ;;		Nothing
  5700 ;; This function is called by:
  5701 ;;		_XBeeJoin
  5702 ;;		_OnMclr
  5703 ;; This function uses a non-reentrant model
  5704 ;;
  5705                           
  5706                           	psect	text51
  5707  0000'                    __ptext51:
  5708                           	opt stack 0
  5709  0000'                    _Delay10KTCYx:
  5710                           	opt stack 28
  5711                           
  5712                           ;incstack = 0
  5713                           ;Delay10KTCYx@unit stored from wreg
  5714  0000' 6E01'              	movwf	Delay10KTCYx@unit,c
  5715  0002' 0E0D               	movlw	13
  5716  0004' 6E00'              	movwf	??_Delay10KTCYx& (0+255),c
  5717  0006' 0EFC               	movlw	252
  5718  0008'                    u807:
  5719  0008' 2EE8               	decfsz	wreg,f,c
  5720  000A' D7FE               	goto	u807
  5721  000C' 2E00'              	decfsz	??_Delay10KTCYx& (0+255),f,c
  5722  000E' D7FC               	goto	u807
  5723  0010' 2E01'              	decfsz	Delay10KTCYx@unit,f,c
  5724  0012' D7F7               	goto	l1677
  5725  0014' 0012               	return	
  5726  0016' 0012               	return		;funcret
  5727  0018'                    __end_of_Delay10KTCYx:
  5728                           	opt stack 0
  5729                           tblptru	equ	0xFF8
  5730                           tblptrh	equ	0xFF7
  5731                           tblptrl	equ	0xFF6
  5732                           tablat	equ	0xFF5
  5733                           prodh	equ	0xFF4
  5734                           prodl	equ	0xFF3
  5735                           intcon	equ	0xFF2
  5736                           intcon2	equ	0xFF1
  5737                           postinc0	equ	0xFEE
  5738                           wreg	equ	0xFE8
  5739                           indf1	equ	0xFE7
  5740                           postdec1	equ	0xFE5
  5741                           fsr1h	equ	0xFE2
  5742                           fsr1l	equ	0xFE1
  5743                           indf2	equ	0xFDF
  5744                           postinc2	equ	0xFDE
  5745                           postdec2	equ	0xFDD
  5746                           fsr2h	equ	0xFDA
  5747                           fsr2l	equ	0xFD9
  5748                           status	equ	0xFD8
  5749                           
  5750 ;; *************** function _Delay100TCYx *****************
  5751 ;; Defined at:
  5752 ;;		line 8 in file "C:\Program Files (x86)\Microchip\xc8\v1.34\sources\pic18\d100tcyx.c"
  5753 ;; Parameters:    Size  Location     Type
  5754 ;;  unit            1    wreg     unsigned char 
  5755 ;; Auto vars:     Size  Location     Type
  5756 ;;  unit            1    0[COMRAM] unsigned char 
  5757 ;; Return value:  Size  Location     Type
  5758 ;;		None               void
  5759 ;; Registers used:
  5760 ;;		wreg
  5761 ;; Tracked objects:
  5762 ;;		On entry : 0/0
  5763 ;;		On exit  : 0/0
  5764 ;;		Unchanged: 0/0
  5765 ;; Data sizes:     COMRAM   BANK0   BANK1   BANK2   BANK3   BANK4   BANK5   BANK6   BANK7   BANK8   BANK9  BANK10  BANK1
      +1  BANK12  BANK13  BANK14
  5766 ;;      Params:         0       0       0       0       0       0       0       0       0       0       0       0       
      +0       0       0       0
  5767 ;;      Locals:         1       0       0       0       0       0       0       0       0       0       0       0       
      +0       0       0       0
  5768 ;;      Temps:          0       0       0       0       0       0       0       0       0       0       0       0       
      +0       0       0       0
  5769 ;;      Totals:         1       0       0       0       0       0       0       0       0       0       0       0       
      +0       0       0       0
  5770 ;;Total ram usage:        1 bytes
  5771 ;; Hardware stack levels used:    1
  5772 ;; This function calls:
  5773 ;;		Nothing
  5774 ;; This function is called by:
  5775 ;;		_OnDsWdtWakeUp
  5776 ;; This function uses a non-reentrant model
  5777 ;;
  5778                           
  5779                           	psect	text52
  5780  0000'                    __ptext52:
  5781                           	opt stack 0
  5782  0000'                    _Delay100TCYx:
  5783                           	opt stack 29
  5784                           
  5785                           ;incstack = 0
  5786                           ;Delay100TCYx@unit stored from wreg
  5787  0000' 6E00'              	movwf	Delay100TCYx@unit,c
  5788  0002' 0E21               	movlw	33
  5789  0004'                    u817:
  5790  0004' 2EE8               	decfsz	wreg,f,c
  5791  0006' D7FE               	goto	u817
  5792  0008' F000               	nop	
  5793  000A' 2E00'              	decfsz	Delay100TCYx@unit,f,c
  5794  000C' D7FA               	goto	l1771
  5795  000E' 0012               	return	
  5796  0010' 0012               	return		;funcret
  5797  0012'                    __end_of_Delay100TCYx:
  5798                           	opt stack 0
  5799                           tblptru	equ	0xFF8
  5800                           tblptrh	equ	0xFF7
  5801                           tblptrl	equ	0xFF6
  5802                           tablat	equ	0xFF5
  5803                           prodh	equ	0xFF4
  5804                           prodl	equ	0xFF3
  5805                           intcon	equ	0xFF2
  5806                           intcon2	equ	0xFF1
  5807                           postinc0	equ	0xFEE
  5808                           wreg	equ	0xFE8
  5809                           indf1	equ	0xFE7
  5810                           postdec1	equ	0xFE5
  5811                           fsr1h	equ	0xFE2
  5812                           fsr1l	equ	0xFE1
  5813                           indf2	equ	0xFDF
  5814                           postinc2	equ	0xFDE
  5815                           postdec2	equ	0xFDD
  5816                           fsr2h	equ	0xFDA
  5817                           fsr2l	equ	0xFD9
  5818                           status	equ	0xFD8
  5819                           
  5820 ;; *************** function _DisableInterrupts *****************
  5821 ;; Defined at:
  5822 ;;		line 42 in file "interrupts.c"
  5823 ;; Parameters:    Size  Location     Type
  5824 ;;		None
  5825 ;; Auto vars:     Size  Location     Type
  5826 ;;		None
  5827 ;; Return value:  Size  Location     Type
  5828 ;;		None               void
  5829 ;; Registers used:
  5830 ;;		wreg, status,2
  5831 ;; Tracked objects:
  5832 ;;		On entry : 0/0
  5833 ;;		On exit  : 0/0
  5834 ;;		Unchanged: 0/0
  5835 ;; Data sizes:     COMRAM   BANK0   BANK1   BANK2   BANK3   BANK4   BANK5   BANK6   BANK7   BANK8   BANK9  BANK10  BANK1
      +1  BANK12  BANK13  BANK14
  5836 ;;      Params:         0       0       0       0       0       0       0       0       0       0       0       0       
      +0       0       0       0
  5837 ;;      Locals:         0       0       0       0       0       0       0       0       0       0       0       0       
      +0       0       0       0
  5838 ;;      Temps:          0       0       0       0       0       0       0       0       0       0       0       0       
      +0       0       0       0
  5839 ;;      Totals:         0       0       0       0       0       0       0       0       0       0       0       0       
      +0       0       0       0
  5840 ;;Total ram usage:        0 bytes
  5841 ;; Hardware stack levels used:    1
  5842 ;; This function calls:
  5843 ;;		Nothing
  5844 ;; This function is called by:
  5845 ;;		_main
  5846 ;; This function uses a non-reentrant model
  5847 ;;
  5848                           
  5849                           	psect	text53
  5850  0000'                    __ptext53:
  5851                           	opt stack 0
  5852  0000'                    _DisableInterrupts:
  5853                           	opt stack 30
  5854                           
  5855                           ;interrupts.c: 43: INTCON = 0x00;
  5856                           
  5857                           ;incstack = 0
  5858  0000' 0E00               	movlw	0
  5859  0002' 6EF2               	movwf	intcon,c	;volatile
  5860  0004' 0012               	return		;funcret
  5861  0006'                    __end_of_DisableInterrupts:
  5862                           	opt stack 0
  5863                           tblptru	equ	0xFF8
  5864                           tblptrh	equ	0xFF7
  5865                           tblptrl	equ	0xFF6
  5866                           tablat	equ	0xFF5
  5867                           prodh	equ	0xFF4
  5868                           prodl	equ	0xFF3
  5869                           intcon	equ	0xFF2
  5870                           intcon2	equ	0xFF1
  5871                           postinc0	equ	0xFEE
  5872                           wreg	equ	0xFE8
  5873                           indf1	equ	0xFE7
  5874                           postdec1	equ	0xFE5
  5875                           fsr1h	equ	0xFE2
  5876                           fsr1l	equ	0xFE1
  5877                           indf2	equ	0xFDF
  5878                           postinc2	equ	0xFDE
  5879                           postdec2	equ	0xFDD
  5880                           fsr2h	equ	0xFDA
  5881                           fsr2l	equ	0xFD9
  5882                           status	equ	0xFD8
  5883                           
  5884 ;; *************** function _ClearInterrupts *****************
  5885 ;; Defined at:
  5886 ;;		line 25 in file "interrupts.c"
  5887 ;; Parameters:    Size  Location     Type
  5888 ;;		None
  5889 ;; Auto vars:     Size  Location     Type
  5890 ;;		None
  5891 ;; Return value:  Size  Location     Type
  5892 ;;		None               void
  5893 ;; Registers used:
  5894 ;;		wreg, status,2
  5895 ;; Tracked objects:
  5896 ;;		On entry : 0/0
  5897 ;;		On exit  : 0/0
  5898 ;;		Unchanged: 0/0
  5899 ;; Data sizes:     COMRAM   BANK0   BANK1   BANK2   BANK3   BANK4   BANK5   BANK6   BANK7   BANK8   BANK9  BANK10  BANK1
      +1  BANK12  BANK13  BANK14
  5900 ;;      Params:         0       0       0       0       0       0       0       0       0       0       0       0       
      +0       0       0       0
  5901 ;;      Locals:         0       0       0       0       0       0       0       0       0       0       0       0       
      +0       0       0       0
  5902 ;;      Temps:          0       0       0       0       0       0       0       0       0       0       0       0       
      +0       0       0       0
  5903 ;;      Totals:         0       0       0       0       0       0       0       0       0       0       0       0       
      +0       0       0       0
  5904 ;;Total ram usage:        0 bytes
  5905 ;; Hardware stack levels used:    1
  5906 ;; This function calls:
  5907 ;;		Nothing
  5908 ;; This function is called by:
  5909 ;;		_main
  5910 ;; This function uses a non-reentrant model
  5911 ;;
  5912                           
  5913                           	psect	text54
  5914  0000'                    __ptext54:
  5915                           	opt stack 0
  5916  0000'                    _ClearInterrupts:
  5917                           	opt stack 30
  5918                           
  5919                           ;interrupts.c: 27: IPR1 = 0x00;
  5920                           
  5921                           ;incstack = 0
  5922  0000' 0E00               	movlw	0
  5923  0002' 6E9F               	movwf	3999,c	;volatile
  5924                           
  5925                           ;interrupts.c: 28: IPR2 = 0x00;
  5926  0004' 0E00               	movlw	0
  5927  0006' 6EA2               	movwf	4002,c	;volatile
  5928                           
  5929                           ;interrupts.c: 29: IPR3 = 0x00;
  5930  0008' 0E00               	movlw	0
  5931  000A' 6EA5               	movwf	4005,c	;volatile
  5932                           
  5933                           ;interrupts.c: 31: PIR1 = 0x00;
  5934  000C' 0E00               	movlw	0
  5935  000E' 6E9E               	movwf	3998,c	;volatile
  5936                           
  5937                           ;interrupts.c: 32: PIR2 = 0x00;
  5938  0010' 0E00               	movlw	0
  5939  0012' 6EA1               	movwf	4001,c	;volatile
  5940                           
  5941                           ;interrupts.c: 33: PIR3 = 0x00;
  5942  0014' 0E00               	movlw	0
  5943  0016' 6EA4               	movwf	4004,c	;volatile
  5944  0018' 0012               	return		;funcret
  5945  001A'                    __end_of_ClearInterrupts:
  5946                           	opt stack 0
  5947                           tblptru	equ	0xFF8
  5948                           tblptrh	equ	0xFF7
  5949                           tblptrl	equ	0xFF6
  5950                           tablat	equ	0xFF5
  5951                           prodh	equ	0xFF4
  5952                           prodl	equ	0xFF3
  5953                           intcon	equ	0xFF2
  5954                           intcon2	equ	0xFF1
  5955                           postinc0	equ	0xFEE
  5956                           wreg	equ	0xFE8
  5957                           indf1	equ	0xFE7
  5958                           postdec1	equ	0xFE5
  5959                           fsr1h	equ	0xFE2
  5960                           fsr1l	equ	0xFE1
  5961                           indf2	equ	0xFDF
  5962                           postinc2	equ	0xFDE
  5963                           postdec2	equ	0xFDD
  5964                           fsr2h	equ	0xFDA
  5965                           fsr2l	equ	0xFD9
  5966                           status	equ	0xFD8
  5967                           
  5968 ;; *************** function _BspInit *****************
  5969 ;; Defined at:
  5970 ;;		line 3 in file "bsp.c"
  5971 ;; Parameters:    Size  Location     Type
  5972 ;;		None
  5973 ;; Auto vars:     Size  Location     Type
  5974 ;;		None
  5975 ;; Return value:  Size  Location     Type
  5976 ;;		None               void
  5977 ;; Registers used:
  5978 ;;		None
  5979 ;; Tracked objects:
  5980 ;;		On entry : 0/0
  5981 ;;		On exit  : 0/0
  5982 ;;		Unchanged: 0/0
  5983 ;; Data sizes:     COMRAM   BANK0   BANK1   BANK2   BANK3   BANK4   BANK5   BANK6   BANK7   BANK8   BANK9  BANK10  BANK1
      +1  BANK12  BANK13  BANK14
  5984 ;;      Params:         0       0       0       0       0       0       0       0       0       0       0       0       
      +0       0       0       0
  5985 ;;      Locals:         0       0       0       0       0       0       0       0       0       0       0       0       
      +0       0       0       0
  5986 ;;      Temps:          0       0       0       0       0       0       0       0       0       0       0       0       
      +0       0       0       0
  5987 ;;      Totals:         0       0       0       0       0       0       0       0       0       0       0       0       
      +0       0       0       0
  5988 ;;Total ram usage:        0 bytes
  5989 ;; Hardware stack levels used:    1
  5990 ;; This function calls:
  5991 ;;		Nothing
  5992 ;; This function is called by:
  5993 ;;		_main
  5994 ;; This function uses a non-reentrant model
  5995 ;;
  5996                           
  5997                           	psect	text55
  5998  0000'                    __ptext55:
  5999                           	opt stack 0
  6000  0000'                    _BspInit:
  6001                           	opt stack 30
  6002                           
  6003                           ;bsp.c: 4: if (DSCONLbits.RELEASE) {
  6004                           
  6005                           ;incstack = 0
  6006  0000' 010F               	movlb	15	; () banked
  6007  0002' A14C               	btfss	76,0,b	;volatile
  6008  0004' D002               	goto	l521
  6009                           
  6010                           ; BSR set to: 15
  6011                           ;bsp.c: 5: DSCONLbits.RELEASE = 0;
  6012  0006' 010F               	movlb	15	; () banked
  6013  0008' 914C               	bcf	76,0,b	;volatile
  6014  000A'                    l521:
  6015                           
  6016                           ; BSR set to: 15
  6017                           ;bsp.c: 6: }
  6018                           ;bsp.c: 8: ANCON0 = 0xFF;
  6019  000A' 010F               	movlb	15	; () banked
  6020  000C' 6948               	setf	72,b	;volatile
  6021                           
  6022                           ;bsp.c: 9: ANCON1 = 0xFF;
  6023  000E' 010F               	movlb	15	; () banked
  6024  0010' 6949               	setf	73,b	;volatile
  6025                           
  6026                           ;bsp.c: 11: OSCCONbits.IRCF = 7;
  6027  0012' 88D3               	bsf	4051,4,c	;volatile
  6028  0014' 8AD3               	bsf	4051,5,c	;volatile
  6029  0016' 8CD3               	bsf	4051,6,c	;volatile
  6030                           
  6031                           ; BSR set to: 15
  6032  0018' 0012               	return		;funcret
  6033  001A'                    __end_of_BspInit:
  6034                           	opt stack 0
  6035                           tblptru	equ	0xFF8
  6036                           tblptrh	equ	0xFF7
  6037                           tblptrl	equ	0xFF6
  6038                           tablat	equ	0xFF5
  6039                           prodh	equ	0xFF4
  6040                           prodl	equ	0xFF3
  6041                           intcon	equ	0xFF2
  6042                           intcon2	equ	0xFF1
  6043                           postinc0	equ	0xFEE
  6044                           wreg	equ	0xFE8
  6045                           indf1	equ	0xFE7
  6046                           postdec1	equ	0xFE5
  6047                           fsr1h	equ	0xFE2
  6048                           fsr1l	equ	0xFE1
  6049                           indf2	equ	0xFDF
  6050                           postinc2	equ	0xFDE
  6051                           postdec2	equ	0xFDD
  6052                           fsr2h	equ	0xFDA
  6053                           fsr2l	equ	0xFD9
  6054                           status	equ	0xFD8
  6055                           tblptru	equ	0xFF8
  6056                           tblptrh	equ	0xFF7
  6057                           tblptrl	equ	0xFF6
  6058                           tablat	equ	0xFF5
  6059                           prodh	equ	0xFF4
  6060                           prodl	equ	0xFF3
  6061                           intcon	equ	0xFF2
  6062                           intcon2	equ	0xFF1
  6063                           postinc0	equ	0xFEE
  6064                           wreg	equ	0xFE8
  6065                           indf1	equ	0xFE7
  6066                           postdec1	equ	0xFE5
  6067                           fsr1h	equ	0xFE2
  6068                           fsr1l	equ	0xFE1
  6069                           indf2	equ	0xFDF
  6070                           postinc2	equ	0xFDE
  6071                           postdec2	equ	0xFDD
  6072                           fsr2h	equ	0xFDA
  6073                           fsr2l	equ	0xFD9
  6074                           status	equ	0xFD8
  6075                           
  6076                           	psect	rparam
  6077  0000                     tblptru	equ	0xFF8
  6078                           tblptrh	equ	0xFF7
  6079                           tblptrl	equ	0xFF6
  6080                           tablat	equ	0xFF5
  6081                           prodh	equ	0xFF4
  6082                           prodl	equ	0xFF3
  6083                           intcon	equ	0xFF2
  6084                           intcon2	equ	0xFF1
  6085                           postinc0	equ	0xFEE
  6086                           wreg	equ	0xFE8
  6087                           indf1	equ	0xFE7
  6088                           postdec1	equ	0xFE5
  6089                           fsr1h	equ	0xFE2
  6090                           fsr1l	equ	0xFE1
  6091                           indf2	equ	0xFDF
  6092                           postinc2	equ	0xFDE
  6093                           postdec2	equ	0xFDD
  6094                           fsr2h	equ	0xFDA
  6095                           fsr2l	equ	0xFD9
  6096                           status	equ	0xFD8


Data Sizes:
    Strings     0
    Constant    14
    Data        10
    BSS         144
    Persistent  0
    Stack       0

Auto Spaces:
    Space          Size  Autos    Used
    COMRAM           95     16      39
    BANK0           160      0     125
    BANK1           256    226     226
    BANK2           256      0       0
    BANK3           256      0       0
    BANK4           256      0       0
    BANK5           256      0       0
    BANK6           256      0       0
    BANK7           256      0       0
    BANK8           256      0       0
    BANK9           256      0       0
    BANK10          256      0       0
    BANK11          256      0       0
    BANK12          256      0       0
    BANK13          256      0       0
    BANK14          192      0       0

Pointer List with Targets:

    joinPacket.dataPtr.dataPtr	PTR unsigned char  size(2) Largest target is 0
		 -> SendMeasures@packet(BANK1[125]), joinPacket(BANK0[125]), 

    packet.dataPtr.dataPtr	PTR unsigned char  size(2) Largest target is 0
		 -> SendMeasures@packet(BANK1[125]), joinPacket(BANK0[125]), 

    strlen@s	PTR const unsigned char  size(2) Largest target is 2
		 -> SENSORS(CODE[2]), 

    strlen@cp	PTR const unsigned char  size(2) Largest target is 2
		 -> SENSORS(CODE[2]), 

    memset@p1	PTR void  size(2) Largest target is 126
		 -> joinPacket.frame(BANK0[116]), packet.frame(BANK0[116]), SendMeasures@packet(BANK1[125]), joinPacket(BANK0[125]), 

    memset@p	PTR unsigned char  size(2) Largest target is 126
		 -> joinPacket.frame(BANK0[116]), packet.frame(BANK0[116]), SendMeasures@packet(BANK1[125]), joinPacket(BANK0[125]), 

    sprintf@f	PTR const unsigned char  size(2) Largest target is 2
		 -> SENSORS(CODE[2]), 

    sprintf@sp	PTR unsigned char  size(2) Largest target is 101
		 -> payload.data(BANK0[100]), SendMeasures@payload(BANK1[101]), 

    sprintf@ap	PTR void [1] size(2) Largest target is 2
		 -> ?_sprintf(COMRAM[2]), 

    packet.dataPtr	PTR unsigned char  size(2) Largest target is 126
		 -> SendMeasures@packet(BANK1[125]), joinPacket(BANK0[125]), 

    XBeeCreateRemoteAtCommandPacket@packet.dataPtr	PTR unsigned char  size(2) Largest target is 126
		 -> SendMeasures@packet(BANK1[125]), joinPacket(BANK0[125]), 

    XBeeCreateATCommandPacket@command	PTR unsigned char  size(2) Largest target is 3
		 -> XBeeReset@command(COMRAM[3]), 

    XBeeCreateATCommandPacket@packet.dataPtr	PTR unsigned char  size(2) Largest target is 126
		 -> SendMeasures@packet(BANK1[125]), joinPacket(BANK0[125]), 

    XBeeCreateATCommandPacket@packet	PTR struct XBeePacket size(2) Largest target is 126
		 -> joinPacket(BANK0[125]), 

    XBeeCreateATCommandPacket@p	PTR unsigned char  size(2) Largest target is 116
		 -> joinPacket.frame.command(BANK0[2]), XBeeCreateATCommandPacket@packet.frame(COMRAM[116]), 

    XBeeCreateCompleteATCommandPacket@params	PTR unsigned char  size(2) Largest target is 2
		 -> XBeeSetSleepMode@params(COMRAM[2]), XBeeCommissioning@params(COMRAM[2]), 

    XBeeCreateCompleteATCommandPacket@command	PTR unsigned char  size(2) Largest target is 3
		 -> XBeeSetSleepMode@command(COMRAM[3]), XBeeCommissioning@command(COMRAM[3]), 

    XBeeCreateCompleteATCommandPacket@packet.dataPtr	PTR unsigned char  size(2) Largest target is 126
		 -> SendMeasures@packet(BANK1[125]), joinPacket(BANK0[125]), 

    XBeeCreateCompleteATCommandPacket@packet	PTR struct XBeePacket size(2) Largest target is 126
		 -> joinPacket(BANK0[125]), 

    XBeeCreateCompleteATCommandPacket@p	PTR unsigned char  size(2) Largest target is 116
		 -> joinPacket.frame.value(BANK0[97]), joinPacket.frame.command(BANK0[2]), XBeeCreateCompleteATCommandPacket@packet.frame(COMRAM[116]), 

    joinPacket.dataPtr	PTR unsigned char  size(2) Largest target is 126
		 -> SendMeasures@packet(BANK1[125]), joinPacket(BANK0[125]), 

    sp__strcpy	PTR unsigned char  size(2) Largest target is 0

    PayloadPutString@string	PTR const unsigned char  size(2) Largest target is 2
		 -> SENSORS(CODE[2]), 

    PayloadPutString@payload	PTR struct Payload size(2) Largest target is 101
		 -> SendMeasures@payload(BANK1[101]), 

    PayloadPutString@buffer	PTR unsigned char  size(2) Largest target is 101
		 -> payload.data(BANK0[100]), SendMeasures@payload(BANK1[101]), 

    PayloadPutWord@payload	PTR struct Payload size(2) Largest target is 101
		 -> SendMeasures@payload(BANK1[101]), 

    PayloadPutByte@payload	PTR struct Payload size(2) Largest target is 101
		 -> SendMeasures@payload(BANK1[101]), 

    PayloadInit@payload	PTR struct Payload size(2) Largest target is 101
		 -> SendMeasures@payload(BANK1[101]), 

    XBeeCreateTransmitRequestPacket@payload	PTR unsigned char  size(2) Largest target is 101
		 -> SendMeasures@payload(BANK1[101]), 

    XBeeCreateTransmitRequestPacket@destinationAddress	PTR unsigned char  size(2) Largest target is 8
		 -> COORDINATOR_ADDRESS(CODE[8]), 

    XBeeCreateTransmitRequestPacket@packet.dataPtr	PTR unsigned char  size(2) Largest target is 126
		 -> SendMeasures@packet(BANK1[125]), joinPacket(BANK0[125]), 

    XBeeCreateTransmitRequestPacket@packet	PTR struct XBeePacket size(2) Largest target is 126
		 -> SendMeasures@packet(BANK1[125]), 

    XBeeCreateTransmitRequestPacket@p	PTR unsigned char  size(2) Largest target is 116
		 -> packet.frame.reserved(BANK0[2]), packet.frame.payload(BANK0[97]), packet.frame.destinationAddress(BANK0[8]), XBeeCreateTransmitRequestPacket@packet.frame(COMRAM[116]), 

    XBeeSendPacket@packet.dataPtr	PTR unsigned char  size(2) Largest target is 126
		 -> SendMeasures@packet(BANK1[125]), joinPacket(BANK0[125]), 

    XBeeSendPacket@p.dataPtr	PTR unsigned char  size(2) Largest target is 126
		 -> SendMeasures@packet(BANK1[125]), joinPacket(BANK0[125]), 

    XBeeSendPacket@packet	const PTR struct XBeePacket size(2) Largest target is 126
		 -> SendMeasures@packet(BANK1[125]), joinPacket(BANK0[125]), 

    XBeeSendPacket@p	PTR unsigned char  size(2) Largest target is 126
		 -> SendMeasures@packet(BANK1[125]), joinPacket(BANK0[125]), 

    sp__memset	PTR void  size(2) Largest target is 126
		 -> joinPacket.frame(BANK0[116]), packet.frame(BANK0[116]), SendMeasures@packet(BANK1[125]), joinPacket(BANK0[125]), 

    XBeeCreatePacket@packet.dataPtr.dataPtr	PTR unsigned char  size(2) Largest target is 126
		 -> SendMeasures@packet(BANK1[125]), joinPacket(BANK0[125]), 

    S998XBeePacket$dataPtr	PTR unsigned char  size(2) Largest target is 126
		 -> SendMeasures@packet(BANK1[125]), joinPacket(BANK0[125]), 

    XBeeCreatePacket@packet.dataPtr	PTR unsigned char  size(2) Largest target is 126
		 -> SendMeasures@packet(BANK1[125]), joinPacket(BANK0[125]), 

    XBeeCreatePacket@packet	const PTR struct XBeePacket size(2) Largest target is 126
		 -> SendMeasures@packet(BANK1[125]), joinPacket(BANK0[125]), 

    Sht11MeasureParam@p_checksum	PTR unsigned char  size(2) Largest target is 6
		 -> shtData(COMRAM[6]), 

    Sht11MeasureParam@p_value	PTR unsigned int  size(2) Largest target is 6
		 -> shtData.humidity(COMRAM[2]), shtData.temperature(COMRAM[2]), shtData(COMRAM[6]), 

    Sht11Measure@data	PTR struct . size(2) Largest target is 6
		 -> shtData(COMRAM[6]), 

    IrcaMeasure@data	PTR struct . size(2) Largest target is 6
		 -> ircaData(COMRAM[6]), 

    AdcConvert@result	PTR unsigned int  size(2) Largest target is 6
		 -> ircaData(COMRAM[6]), 


Critical Paths under _main in COMRAM

    _XBeeInit->_XBeeSerialInit
    _SendMeasures->_PayloadPutString
    _SendMeasures->_XBeeCreateTransmitRequestPacket
    _PayloadPutString->_sprintf
    _MeasureSensors->_IrcaMeasure
    _MeasureSensors->_Sht11Measure
    _Sht11Measure->_Sht11MeasureParam
    _Sht11MeasureParam->_Sht11Read
    _Sht11MeasureParam->_Sht11Write
    _Sht11Write->_Delay10TCYx
    _Sht11Start->_Delay10TCYx
    _Sht11Read->_Delay10TCYx
    _IrcaMeasure->_AdcConvert
    _AdcConvert->_AdcReadValue
    _XBeeJoin->_XBeeCommissioning
    _XBeeJoin->_XBeeSetSleepMode
    _XBeeSetSleepMode->_XBeeCreateCompleteATCommandPacket
    _XBeeReset->_XBeeCreatePacket
    _XBeeCommissioning->_XBeeCreateCompleteATCommandPacket
    _XBeeSendPacket->_XBeeSerialSend
    _XBeeCreatePacket->_memset

Critical Paths under _main in BANK0

    None.

Critical Paths under _main in BANK1

    _OnWakeUp->_SendMeasures

Critical Paths under _main in BANK2

    None.

Critical Paths under _main in BANK3

    None.

Critical Paths under _main in BANK4

    None.

Critical Paths under _main in BANK5

    None.

Critical Paths under _main in BANK6

    None.

Critical Paths under _main in BANK7

    None.

Critical Paths under _main in BANK8

    None.

Critical Paths under _main in BANK9

    None.

Critical Paths under _main in BANK10

    None.

Critical Paths under _main in BANK11

    None.

Critical Paths under _main in BANK12

    None.

Critical Paths under _main in BANK13

    None.

Critical Paths under _main in BANK14

    None.

Call Graph Tables:

 ---------------------------------------------------------------------------------
 (Depth) Function   	        Calls       Base Space   Used Autos Params    Refs
 ---------------------------------------------------------------------------------
 (0) _main                                                 0     0      0   29029
                            _BspInit
                    _ClearInterrupts
                  _DisableInterrupts
           _EnableDeelSleepInterrupt
                      _OnDsWdtWakeUp
                             _OnMclr
                          _OnPowerUp
                           _OnWakeUp
                     _PowerDeepSleep
                    _SensorProxyInit
                           _XBeeInit
 ---------------------------------------------------------------------------------
 (1) _XBeeInit                                             0     0      0      15
                  _XBeeInterruptInit
                     _XBeeSerialInit
 ---------------------------------------------------------------------------------
 (2) _XBeeSerialInit                                       1     1      0      15
                                              0 COMRAM     1     1      0
 ---------------------------------------------------------------------------------
 (2) _XBeeInterruptInit                                    0     0      0       0
 ---------------------------------------------------------------------------------
 (1) _SensorProxyInit                                      0     0      0       0
                           _IrcaInit
                          _Sht11Init
 ---------------------------------------------------------------------------------
 (2) _Sht11Init                                            0     0      0       0
 ---------------------------------------------------------------------------------
 (2) _IrcaInit                                             0     0      0       0
                            _AdcInit
                        _Irca1InitIO
 ---------------------------------------------------------------------------------
 (3) _Irca1InitIO                                          0     0      0       0
 ---------------------------------------------------------------------------------
 (3) _AdcInit                                              0     0      0       0
 ---------------------------------------------------------------------------------
 (1) _PowerDeepSleep                                       0     0      0       0
 ---------------------------------------------------------------------------------
 (1) _OnWakeUp                                             0     0      0    6911
                 _ClearDSWakeUpFlags
              _ClearNetworkInterrupt
                     _MeasureSensors
                       _SendMeasures
 ---------------------------------------------------------------------------------
 (2) _SendMeasures                                       226   226      0    5302
                                              0 BANK1    226   226      0
                        _PayloadInit
                     _PayloadPutByte
                   _PayloadPutString
                     _PayloadPutWord
                   _XBeeCreatePacket
    _XBeeCreateTransmitRequestPacket
                     _XBeeSendPacket
 ---------------------------------------------------------------------------------
 (3) _XBeeCreateTransmitRequestPacket                     15     5     10    1005
                                              0 COMRAM    15     5     10
 ---------------------------------------------------------------------------------
 (3) _PayloadPutWord                                       7     3      4    1004
                                              0 COMRAM     7     3      4
 ---------------------------------------------------------------------------------
 (3) _PayloadPutString                                     7     3      4     861
                                              8 COMRAM     7     3      4
                            _sprintf
                             _strlen
 ---------------------------------------------------------------------------------
 (4) _strlen                                               6     4      2     242
                                              0 COMRAM     6     4      2
 ---------------------------------------------------------------------------------
 (4) _sprintf                                             20    16      4     334
                                              0 COMRAM     8     4      4
 ---------------------------------------------------------------------------------
 (3) _PayloadPutByte                                       4     1      3     566
                                              0 COMRAM     4     1      3
 ---------------------------------------------------------------------------------
 (3) _PayloadInit                                          3     1      2     165
                                              0 COMRAM     3     1      2
 ---------------------------------------------------------------------------------
 (2) _MeasureSensors                                       0     0      0    1609
                        _IrcaMeasure
                     _PowerDownSHT11
                   _PowerUpCO2Sensor
                       _PowerUpSHT11
                       _Sht11Measure
 ---------------------------------------------------------------------------------
 (3) _Sht11Measure                                         3     1      2     996
                                             12 COMRAM     3     1      2
                  _Sht11MeasureParam
 ---------------------------------------------------------------------------------
 (4) _Sht11MeasureParam                                    8     3      5     823
                                              4 COMRAM     8     3      5
                          _Sht11Read
                         _Sht11Start
                         _Sht11Write
 ---------------------------------------------------------------------------------
 (5) _Sht11Write                                           3     3      0      90
                                              1 COMRAM     3     3      0
                        _Delay10TCYx
 ---------------------------------------------------------------------------------
 (5) _Sht11Start                                           0     0      0      15
                        _Delay10TCYx
 ---------------------------------------------------------------------------------
 (5) _Sht11Read                                            3     3      0     105
                                              1 COMRAM     3     3      0
                        _Delay10TCYx
 ---------------------------------------------------------------------------------
 (6) _Delay10TCYx                                          1     1      0      15
                                              0 COMRAM     1     1      0
 ---------------------------------------------------------------------------------
 (3) _PowerUpSHT11                                         0     0      0       0
 ---------------------------------------------------------------------------------
 (3) _PowerUpCO2Sensor                                     0     0      0       0
 ---------------------------------------------------------------------------------
 (3) _PowerDownSHT11                                       0     0      0       0
 ---------------------------------------------------------------------------------
 (3) _IrcaMeasure                                          2     0      2     613
                                             13 COMRAM     2     0      2
                         _AdcConvert
                 _SampleAndHoldReset
 ---------------------------------------------------------------------------------
 (4) _SampleAndHoldReset                                   0     0      0       0
 ---------------------------------------------------------------------------------
 (4) _AdcConvert                                          11     9      2     471
                                              2 COMRAM    11     9      2
                       _AdcCalibrate
                       _AdcReadValue
 ---------------------------------------------------------------------------------
 (5) _AdcReadValue                                         2     0      2       0
                                              0 COMRAM     2     0      2
 ---------------------------------------------------------------------------------
 (5) _AdcCalibrate                                         0     0      0       0
 ---------------------------------------------------------------------------------
 (2) _ClearNetworkInterrupt                                0     0      0       0
 ---------------------------------------------------------------------------------
 (2) _ClearDSWakeUpFlags                                   0     0      0       0
 ---------------------------------------------------------------------------------
 (1) _OnPowerUp                                            0     0      0    6771
          _UnUsedPeriphericalDisable
                           _XBeeJoin
 ---------------------------------------------------------------------------------
 (2) _UnUsedPeriphericalDisable                            0     0      0       0
 ---------------------------------------------------------------------------------
 (1) _OnMclr                                               0     0      0    6786
                     _ClearMclrFlags
                       _Delay10KTCYx
                           _XBeeJoin
 ---------------------------------------------------------------------------------
 (2) _ClearMclrFlags                                       0     0      0       0
 ---------------------------------------------------------------------------------
 (1) _OnDsWdtWakeUp                                        0     0      0    8546
                       _Delay100TCYx
                           _XBeeJoin
                          _XBeeReset
 ---------------------------------------------------------------------------------
 (2) _XBeeJoin                                             0     0      0    6771
                       _Delay10KTCYx
                  _XBeeCommissioning
                          _XBeeReset
                   _XBeeSetSleepMode
 ---------------------------------------------------------------------------------
 (3) _XBeeSetSleepMode                                     3     3      0    2498
                                             13 COMRAM     3     3      0
  _XBeeCreateCompleteATCommandPacket
                   _XBeeCreatePacket
                     _XBeeSendPacket
 ---------------------------------------------------------------------------------
 (3) _XBeeReset                                            0     0      0    1760
          _XBeeCreateATCommandPacket
                   _XBeeCreatePacket
                     _XBeeSendPacket
 ---------------------------------------------------------------------------------
 (4) _XBeeCreateATCommandPacket                            7     2      5     430
                                              0 COMRAM     7     2      5
 ---------------------------------------------------------------------------------
 (3) _XBeeCommissioning                                    3     3      0    2498
                                             13 COMRAM     3     3      0
  _XBeeCreateCompleteATCommandPacket
                   _XBeeCreatePacket
                     _XBeeSendPacket
 ---------------------------------------------------------------------------------
 (3) _XBeeSendPacket                                       6     4      2     526
                                              1 COMRAM     6     4      2
                     _XBeeSerialSend
 ---------------------------------------------------------------------------------
 (4) _XBeeSerialSend                                       1     1      0      22
                                              0 COMRAM     1     1      0
 ---------------------------------------------------------------------------------
 (3) _XBeeCreatePacket                                     2     0      2     804
                                              8 COMRAM     2     0      2
                             _memset
 ---------------------------------------------------------------------------------
 (4) _memset                                               8     2      6     324
                                              0 COMRAM     8     2      6
 ---------------------------------------------------------------------------------
 (4) _XBeeCreateCompleteATCommandPacket                   13     5      8    1098
                                              0 COMRAM    13     5      8
 ---------------------------------------------------------------------------------
 (3) _Delay10KTCYx                                         2     2      0      15
                                              0 COMRAM     2     2      0
 ---------------------------------------------------------------------------------
 (2) _Delay100TCYx                                         1     1      0      15
                                              0 COMRAM     1     1      0
 ---------------------------------------------------------------------------------
 (1) _EnableDeelSleepInterrupt                             0     0      0       0
 ---------------------------------------------------------------------------------
 (1) _DisableInterrupts                                    0     0      0       0
 ---------------------------------------------------------------------------------
 (1) _ClearInterrupts                                      0     0      0       0
 ---------------------------------------------------------------------------------
 (1) _BspInit                                              0     0      0       0
 ---------------------------------------------------------------------------------
 Estimated maximum stack depth 6
 ---------------------------------------------------------------------------------

 Call Graph Graphs:

 _main (ROOT)
   _BspInit
   _ClearInterrupts
   _DisableInterrupts
   _EnableDeelSleepInterrupt
   _OnDsWdtWakeUp
     _Delay100TCYx
     _XBeeJoin
       _Delay10KTCYx
       _XBeeCommissioning
         _XBeeCreateCompleteATCommandPacket
         _XBeeCreatePacket
           _memset
         _XBeeSendPacket
           _XBeeSerialSend
       _XBeeReset
         _XBeeCreateATCommandPacket
         _XBeeCreatePacket
           _memset
         _XBeeSendPacket
           _XBeeSerialSend
       _XBeeSetSleepMode
         _XBeeCreateCompleteATCommandPacket
         _XBeeCreatePacket
           _memset
         _XBeeSendPacket
           _XBeeSerialSend
     _XBeeReset
       _XBeeCreateATCommandPacket
       _XBeeCreatePacket
         _memset
       _XBeeSendPacket
         _XBeeSerialSend
   _OnMclr
     _ClearMclrFlags
     _Delay10KTCYx
     _XBeeJoin
       _Delay10KTCYx
       _XBeeCommissioning
         _XBeeCreateCompleteATCommandPacket
         _XBeeCreatePacket
           _memset
         _XBeeSendPacket
           _XBeeSerialSend
       _XBeeReset
         _XBeeCreateATCommandPacket
         _XBeeCreatePacket
           _memset
         _XBeeSendPacket
           _XBeeSerialSend
       _XBeeSetSleepMode
         _XBeeCreateCompleteATCommandPacket
         _XBeeCreatePacket
           _memset
         _XBeeSendPacket
           _XBeeSerialSend
   _OnPowerUp
     _UnUsedPeriphericalDisable
     _XBeeJoin
       _Delay10KTCYx
       _XBeeCommissioning
         _XBeeCreateCompleteATCommandPacket
         _XBeeCreatePacket
           _memset
         _XBeeSendPacket
           _XBeeSerialSend
       _XBeeReset
         _XBeeCreateATCommandPacket
         _XBeeCreatePacket
           _memset
         _XBeeSendPacket
           _XBeeSerialSend
       _XBeeSetSleepMode
         _XBeeCreateCompleteATCommandPacket
         _XBeeCreatePacket
           _memset
         _XBeeSendPacket
           _XBeeSerialSend
   _OnWakeUp
     _ClearDSWakeUpFlags
     _ClearNetworkInterrupt
     _MeasureSensors
       _IrcaMeasure
         _AdcConvert
           _AdcCalibrate
           _AdcReadValue
         _SampleAndHoldReset
       _PowerDownSHT11
       _PowerUpCO2Sensor
       _PowerUpSHT11
       _Sht11Measure
         _Sht11MeasureParam
           _Sht11Read
             _Delay10TCYx
           _Sht11Start
             _Delay10TCYx
           _Sht11Write
             _Delay10TCYx
     _SendMeasures
       _PayloadInit
       _PayloadPutByte
       _PayloadPutString
         _sprintf
         _strlen
       _PayloadPutWord
       _XBeeCreatePacket
         _memset
       _XBeeCreateTransmitRequestPacket
       _XBeeSendPacket
         _XBeeSerialSend
   _PowerDeepSleep
   _SensorProxyInit
     _IrcaInit
       _AdcInit
       _Irca1InitIO
     _Sht11Init
   _XBeeInit
     _XBeeInterruptInit
     _XBeeSerialInit

 Address spaces:
Name               Size   Autos  Total    Cost      Usage
BIGRAM             EBF      0       0      35        0.0%
BITBANK13          100      0       0      31        0.0%
BANK13             100      0       0      32        0.0%
BITBANK12          100      0       0      29        0.0%
BANK12             100      0       0      30        0.0%
BITBANK11          100      0       0      27        0.0%
BANK11             100      0       0      28        0.0%
BITBANK10          100      0       0      25        0.0%
BANK10             100      0       0      26        0.0%
BITBANK9           100      0       0      23        0.0%
BANK9              100      0       0      24        0.0%
BITBANK8           100      0       0      21        0.0%
BANK8              100      0       0      22        0.0%
BITBANK7           100      0       0      19        0.0%
BANK7              100      0       0      20        0.0%
BITBANK6           100      0       0      17        0.0%
BANK6              100      0       0      18        0.0%
BITBANK5           100      0       0      15        0.0%
BANK5              100      0       0      16        0.0%
BITBANK4           100      0       0      13        0.0%
BANK4              100      0       0      14        0.0%
BITBANK3           100      0       0      11        0.0%
BANK3              100      0       0      12        0.0%
BITBANK2           100      0       0       9        0.0%
BANK2              100      0       0      10        0.0%
BITBANK1           100      0       0       7        0.0%
BANK1              100     E2      E2       8       88.3%
BITBANK14           C0      0       0      33        0.0%
BANK14              C0      0       0      34        0.0%
BITBANK0            A0      0       0       4        0.0%
BANK0               A0      0      7D       5       78.1%
BITCOMRAM           5F      0       0       0        0.0%
COMRAM              5F     10      27       1       41.1%
BITSFR_2             0      0       0      40        0.0%
SFR_2                0      0       0      40        0.0%
BITSFR_1             0      0       0      40        0.0%
SFR_1                0      0       0      40        0.0%
BITSFR               0      0       0      40        0.0%
SFR                  0      0       0      40        0.0%
STACK                0      0       0       2        0.0%
NULL                 0      0       0       0        0.0%
ABS                  0      0     186       6        0.0%
DATA                 0      0     186       3        0.0%
CODE                 0      0       0       0        0.0%


Microchip Technology PIC18 Macro Assembler V1.34 build -361300703 
Symbol Table                                                                                   Wed Dec 16 18:28:00 2015

                        __end_of_XBeeCommissioning 000048                            PayloadPutString@payload 000008  
                            Sht11MeasureParam@mode 000008                                                 l30 000002  
                                               l24 000006                               XBeeSendPacket@packet 000001  
                           Sht11MeasureParam@error 00000B                                       __CFG_CP0$OFF 000000  
                                    ?_Sht11Measure 00000C                                                l122 000042  
                                              l123 000022                                                l143 00003C  
                                              l209 000004                                                l521 00000A  
                                              l370 000062                                                l362 00002A  
                                              l372 00006C                                                l364 00003A  
                                              l366 00004A                                                l376 000078  
                                              l368 000054                                                u525 000064  
                                              u807 000008                                                u817 000004  
                                              u787 000032                                                u797 000004  
                                  ?_ClearMclrFlags 000000                                         Sht11Read@i 000003  
                                    ??_IrcaMeasure 00000F                                                wreg 000FE8  
                                       _TXSTA1bits 000FAD                                               l1301 000014  
                                             l2101 00000E                                               l2103 000016  
                                             l1305 000026                                               l2107 000020  
                                             l2141 000052                                               l2109 000030  
                                             l2301 000012                                               l2223 000052  
                                             l2063 00000A                                               l1335 00000E  
                                             l2303 000028                                               l2081 000030  
                                             l2161 000014                                               l2067 00001C  
                                             l2147 000082                                               l1347 00002C  
                                             l1355 00003A                                               l1339 000018  
                                             l2171 000032                                               l2163 00001A  
                                             l2229 000070                                               l2165 000022  
                                             l2157 00000A                                               l2173 000050  
                                             l2181 00000A                                               l2087 000050  
                                             l1287 000002                                               l1359 000046  
                                             l2175 00006C                                               l2183 000010  
                                             l2263 000032                                               l1297 00000A  
                                             l2257 000012                                               l2275 00006A  
                                             l2269 00004C                                               l1771 000002  
                                             l2459 00001A                                               l1677 000002  
                                             l2485 00007C                                               l2479 00005E  
                                             _IPR1 000F9F                                               _IPR2 000FA2  
                                             _PIE1 000F9D                                               _IPR3 000FA5  
                                             _PIR1 000F9E                                               _PIR2 000FA1  
                                             _PIR3 000FA4                                    __end_of_SENSORS 00000F  
                       ?_UnUsedPeriphericalDisable 000000                             ?_ClearNetworkInterrupt 000000  
                                  ??_OnDsWdtWakeUp 000010                                               _main 000000  
                                  __end_of_AdcInit 00001E                                               fsr1h 000FE2  
                                             fsr2h 000FDA                                               indf1 000FE7  
                                             fsr1l 000FE1                                               indf2 000FDF  
                                             fsr2l 000FD9                                               prodh 000FF4  
                                             prodl 000FF3                                               start 000000* 
                                    __CFG_IESO$OFF 000000                                    __end_of_BspInit 00001A  
                                     ___param_bank 000010                           Sht11MeasureParam@p_value 000004  
                              __end_of_Irca1InitIO 000018                                        Sht11Write@i 000003  
                                      _Delay10TCYx 000000                          __size_of_XBeeSetSleepMode 000000  
                                   ??_Sht11Measure 00000E                                       _BAUDCON1bits 000F7E  
                        __size_of_PayloadPutString 000000                    XBeeCreateATCommandPacket@packet 000000  
                                            ?_main 000000                                              _ADRES 000FC3  
                            __size_of_Delay100TCYx 000000                                   ?_ClearInterrupts 000000  
                            __size_of_Delay10KTCYx 000000                                     __CFG_FCMEN$OFF 000000  
                                            _count 000000                                       Sht11Read@ack 000001  
                                     Sht11Read@val 000002                                  __end_of_CO2OFFSET 000003  
                               _SampleAndHoldReset 000000                                        ?_AdcConvert 000002  
                                   _MeasureSensors 000000                                              tablat 000FF5  
                              __end_of_IrcaMeasure 000038                                              status 000FD8  
                                  __end_of_sprintf 00007C                                   _PowerUpCO2Sensor 000000  
                __end_of_UnUsedPeriphericalDisable 00000C                                   __end_of_XBeeInit 00000C  
                                 __end_of_XBeeJoin 00001E                           __end_of_XBeeCreatePacket 000086  
                                       _Sht11Start 000000                                         _Sht11Write 000000  
                              ?_SampleAndHoldReset 000000                   XBeeCreateTransmitRequestPacket@i 00000C  
                 XBeeCreateTransmitRequestPacket@p 00000D                            __CFG_DSWDTOSC$INTOSCREF 000000  
                                  __initialization 000000                         __size_of_XBeeCommissioning 000000  
                                     _Delay100TCYx 000000                                    Sht11Write@error 000002  
                                     __end_of_main 000086                                    Sht11Write@value 000001  
                                 __end_of_IrcaInit 00000A                                       _Delay10KTCYx 000000  
                                 __end_of_OnWakeUp 000012                                 __size_of_XBeeReset 000000  
                                    ??_PayloadInit 000002                                             ??_main 000010  
                                    __activetblptr 000002                               ??_SampleAndHoldReset 000000  
                       ??_EnableDeelSleepInterrupt 000000                                   _TRANSMIT_OPTIONS 000004  
                           __end_of_MeasureSensors 000026                                          ??_AdcInit 000000  
                                           _ANCON0 000F48                                             _ANCON1 000F49  
                               __size_of_Sht11Init 000000                                 __size_of_Sht11Read 000000  
                                   __CFG_WDTEN$OFF 000000                                             _INTCON 000FF2  
                                           _RCREG1 000FAF                                             _RCSTA1 000FAC  
                                           _SPBRG1 000FB0                                          ??_BspInit 000000  
                                 ??_XBeeSendPacket 000003                                     __CFG_WPCFG$OFF 000000  
                                      _Irca1InitIO 000000                                             _TXREG1 000FAE  
                               __size_of_OnPowerUp 000000                                     __CFG_WPDIS$OFF 000000  
                                           _OnMclr 000000                                   ??_PayloadPutByte 000003  
                           XBeeCreatePacket@packet 000008                                     __CFG_XINST$OFF 000000  
                                 ??_PayloadPutWord 000004                              PayloadPutWord@element 000002  
                                   __CFG_STVREN$ON 000000                                   ??_XBeeSerialInit 000000  
                                 ??_XBeeSerialSend 000000                              PayloadPutWord@payload 000000  
                                           _memset 000000                                             clear_0 000006  
                                           clear_1 000012                                __size_of_AdcConvert 000000  
                                    ?_SendMeasures 000000                                             _strlen 000000  
                         __size_of_SensorProxyInit 000000                                  _DisableInterrupts 000000  
                      __size_of_ClearDSWakeUpFlags 000000                                       __pdataCOMRAM 000000  
                                     __mediumconst 000000*                                       _IrcaMeasure 000000  
                                           tblptrh 000FF7                                             tblptrl 000FF6  
                                           tblptru 000FF8                                 ?_DisableInterrupts 000000  
                              __end_of_PayloadInit 000032                         ?_XBeeCreateATCommandPacket 000000  
                                  ?_MeasureSensors 000000                                          ??_sprintf 000004  
                                __end_of_XBeeReset 000032                                ??_DisableInterrupts 000000  
                                       __accesstop 000000*                           __end_of__initialization 000038  
                             __end_of_Sht11Measure 000048                                        ?_Sht11Start 000000  
                                    ___rparam_used 000001                                        ?_Sht11Write 000000  
           XBeeCreateTransmitRequestPacket@frameId 000002                                     __pcstackCOMRAM 000000  
           XBeeCreateTransmitRequestPacket@payload 000007                                   _XBeeSetSleepMode 000000  
                                 ??_ClearMclrFlags 000000             XBeeCreateTransmitRequestPacket@options 000006  
                                  __CFG_DSWDTPS$M2 000000                                  __end_of_Sht11Init 000012  
                                __end_of_Sht11Read 000062                                     ??_SendMeasures 00000F  
                                 _PayloadPutString 000000                          __end_of_DisableInterrupts 000006  
                                __end_of_OnPowerUp 00000A                                SendMeasures@payload 00007D  
                                  __CFG_OSC$INTOSC 000000                                          ?_XBeeInit 000000  
                                        ?_XBeeJoin 000000                            __size_of_PowerDeepSleep 000000  
                __end_of_XBeeCreateATCommandPacket 000072                            ??_ClearNetworkInterrupt 000000  
                                       __pbssBANK0 000000                                          ?_IrcaInit 000000  
                                  XBeeSendPacket@p 000005      XBeeCreateCompleteATCommandPacket@paramsLength 000007  
                                        ?_OnWakeUp 000000                        ??_UnUsedPeriphericalDisable 000000  
XBeeCreateTransmitRequestPacket@destinationAddress 000003                                            ?_OnMclr 000000  
          XBeeCreateCompleteATCommandPacket@packet 000000                            __size_of_PowerDownSHT11 000000  
          XBeeCreateCompleteATCommandPacket@params 000005                                       ?_Delay10TCYx 000000  
                                          ?_memset 000000                            XBeeCommissioning@params 00000E  
                                      _PayloadInit 000000                                            ?_strlen 000000  
                         __end_of_PowerUpCO2Sensor 000006                               XBeeSetSleepMode@mode 00000D  
                                          _DSWAKEH 000F4B                                            _DSWAKEL 000F4A  
                                       ??_XBeeInit 000001                                         ??_XBeeJoin 000010  
                              __size_of_Sht11Start 000000                                __size_of_Sht11Write 000000  
                                          _SENSORS 00000D                                    __CFG_WDTPS$1024 000000  
                                          _AdcInit 000000                                  ??_SensorProxyInit 000000  
                                     ??_AdcConvert 000004                                         ??_IrcaInit 000000  
                                       ??_OnWakeUp 00000F                                            _BspInit 000000  
                                        _CO2OFFSET 000001                              __end_of_OnDsWdtWakeUp 000012  
                                ?_XBeeCreatePacket 000008                                            __Hparam 000000  
                                  __size_of_OnMclr 000000                                            __Lparam 000000  
                               ??_XBeeCreatePacket 00000A                           __end_of_TRANSMIT_OPTIONS 000005  
                                _XBeeInterruptInit 000000                                      ?_AdcCalibrate 000000  
                                       _joinPacket 000000                                       __psmallconst 000000  
                            __CFG_RTCOSC$INTOSCREF 000000                                 ?_XBeeInterruptInit 000000  
                                          __pcinit 000000                                    __size_of_memset 000000  
                                  Delay10TCYx@unit 000000                                            __ramtop 000000* 
                       __size_of_DisableInterrupts 000000                          _UnUsedPeriphericalDisable 000000  
                                    ?_PowerUpSHT11 000000                                            __ptext0 000000  
                                          __ptext1 000000                                            __ptext2 000000  
                                          __ptext3 000000                                            __ptext4 000000  
                                          __ptext5 000000                                            __ptext6 000000  
                                          __ptext7 000000                                            __ptext8 000000  
                                          __ptext9 000000                                 __end_of_AdcConvert 000082  
                           XBeeSetSleepMode@params 00000E                                    __size_of_strlen 000000  
                                        _T1CONbits 000FCD                                ??_XBeeInterruptInit 000000  
                                          _shtData 000007                                  Sht11Measure@error 00000E  
                            __size_of_Sht11Measure 000000                                            _sprintf 000000  
                              _COORDINATOR_ADDRESS 000005                               end_of_initialization 000038  
                         __size_of_ClearInterrupts 000000                                  PayloadPutWord@lsb 000005  
                                PayloadPutWord@msb 000006                                            memset@c 000002  
                                          memset@n 000004                                            memset@p 000006  
                             __end_of_SendMeasures 0000FE                                      __Lmediumconst 000000* 
                                     ?_Irca1InitIO 000000                                      ?_AdcReadValue 000000  
                        __end_of_XBeeInterruptInit 00000A                        Sht11MeasureParam@p_checksum 000006  
                                   ??_AdcCalibrate 000000                                            postdec1 000FE5  
                                          postdec2 000FDD                                            postinc0 000FEE  
                                          postinc2 000FDE                                   AdcConvert@result 000002  
                                   ??_PowerUpSHT11 000000                                            strlen@s 000000  
                                  IrcaMeasure@data 00000D                                        AdcConvert@i 00000C  
                                        _PORTAbits 000F80                                          _PORTBbits 000F81  
                                     _Sht11Measure 000000                                 PayloadInit@payload 000000  
                                 __CFG_DSBOREN$OFF 000000                                   ??_MeasureSensors 00000F  
                              XBeeSerialSend@value 000000                        __size_of_SampleAndHoldReset 000000  
                                 __CFG_CPUDIV$OSC1 000000                                       ?_IrcaMeasure 00000D  
                           PayloadPutString@buffer 00000D                                          _TRISAbits 000F92  
                                        _TRISBbits 000F93                                          _TRISCbits 000F94  
                                   _PowerDeepSleep 000000                        ??_XBeeCreateATCommandPacket 000005  
                           PayloadPutString@string 00000A                           __end_of_XBeeSetSleepMode 000048  
                         __end_of_PayloadPutString 000052                                       ??_Sht11Start 000001  
                                 __CFG_IOL1WAY$OFF 000000                                     ??_AdcReadValue 000002  
                                     ??_Sht11Write 000001                                          _XBeeReset 000000  
                                   _PowerDownSHT11 000000                                  __CFG_WPEND$PAGE_0 000000  
                        ?_EnableDeelSleepInterrupt 000000                                __CFG_MSSP7B_EN$MSK7 000000  
                                   __end_of_OnMclr 000010                                   Delay100TCYx@unit 000000  
                                     PayloadInit@i 000002                               __size_of_Delay10TCYx 000000  
                                    __pidataCOMRAM 000000                         __end_of_ClearDSWakeUpFlags 00000C  
                                   __end_of_memset 00002E                                   __CFG_DSWDTEN$OFF 000000  
                           __end_of_PowerDeepSleep 000030                                  _Sht11MeasureParam 000000  
                                        _Sht11Init 000000                                          _Sht11Read 000000  
                                   __end_of_strlen 000042                                start_initialization 000000  
                               __end_of_Sht11Start 000036                                 ?_Sht11MeasureParam 000004  
                               __end_of_Sht11Write 000064                                  __size_of_XBeeInit 000000  
                                __size_of_XBeeJoin 000000                                          _OnPowerUp 000000  
                           XBeeSerialInit@baudrate 000000                     __size_of_ClearNetworkInterrupt 000000  
                    __end_of_ClearNetworkInterrupt 000004                                ??_Sht11MeasureParam 000009  
                                __size_of_IrcaInit 000000                             __end_of_PowerDownSHT11 000004  
                                       ?_XBeeReset 000000                                  __size_of_OnWakeUp 000000  
                                         ??_OnMclr 000010                                  ??_ClearInterrupts 000000  
                       __size_of_XBeeInterruptInit 000000                          _XBeeCreateATCommandPacket 000000  
                          __size_of_XBeeSendPacket 000000                                           ??_memset 000006  
                                     ?_PayloadInit 000000                          __end_of_Sht11MeasureParam 0000AE  
                                  _SensorProxyInit 000000                                           ??_strlen 000002  
                          __size_of_PayloadPutByte 000000                            __size_of_PayloadPutWord 000000  
                                ?_PowerUpCO2Sensor 000000                                    ?_PowerDeepSleep 000000  
                                       ?_Sht11Init 000000                                         ?_Sht11Read 000000  
                                      __pbssCOMRAM 000000                                      __pcstackBANK1 000000  
                               ??_PowerUpCO2Sensor 000000                            __size_of_XBeeSerialInit 000000  
                          __size_of_XBeeSerialSend 000000          XBeeCreateTransmitRequestPacket@dataLength 000009  
                            __size_of_SendMeasures 000000                 __size_of_UnUsedPeriphericalDisable 000000  
                                         ?_AdcInit 000000                                         ?_OnPowerUp 000000  
                             __end_of_AdcCalibrate 00000E                                 SendMeasures@packet 000000  
                             __end_of_PowerUpSHT11 000006                                           ?_BspInit 000000  
                                      sprintf@flag 000006                 XBeeCreateCompleteATCommandPacket@i 00000A  
               XBeeCreateCompleteATCommandPacket@p 00000B                                    ?_PowerDownSHT11 000000  
         XBeeCreateCompleteATCommandPacket@command 000003           XBeeCreateCompleteATCommandPacket@frameId 000002  
                             __size_of_Irca1InitIO 000000                                      ?_Delay100TCYx 000000  
                                 _BROADCAST_RADIUS 000003                                      ?_Delay10KTCYx 000000  
                            PayloadPutByte@element 000002                                       _SendMeasures 000000  
                         XBeeCommissioning@command 000001                          __size_of_XBeeCreatePacket 000000  
                                      __smallconst 000000*                             PayloadPutByte@payload 000000  
                             __end_of_AdcReadValue 000010                            __size_of_ClearMclrFlags 000000  
                             __size_of_IrcaMeasure 000000                                           ?_sprintf 000000  
                                 Sht11Measure@data 00000C                                           _LATAbits 000F89  
                                         _LATCbits 000F8B          __end_of_XBeeCreateCompleteATCommandPacket 0000B8  
       __size_of_XBeeCreateCompleteATCommandPacket 000000                ??_XBeeCreateCompleteATCommandPacket 000008  
               ?_XBeeCreateCompleteATCommandPacket 000000                  _XBeeCreateCompleteATCommandPacket 000000  
                                      ??_XBeeReset 00000A                         XBeeCreateATCommandPacket@p 000005  
                                   ??_Delay100TCYx 000000                                           _PIR1bits 000F9E  
                                         _RCONbits 000FD0                            __end_of_SensorProxyInit 00000A  
                                      _DSWAKEHbits 000F4B                                     ??_Delay10KTCYx 000000  
                                      _DSWAKELbits 000F4A                                   XBeeReset@command 000004  
                                         _UCONbits 000F65                         __size_of_Sht11MeasureParam 000000  
                                       _ADCON0bits 000FC2                                         _ADCON1bits 000FC1  
                 XBeeCreateATCommandPacket@command 000003                   XBeeCreateATCommandPacket@frameId 000002  
                                      ??_Sht11Init 000000                                        ??_Sht11Read 000001  
                                 __CFG_WPFP$PAGE_1 000000                                           _XBeeInit 000000  
                                         _XBeeJoin 000000                                        _EUSART_9600 000000  
                           __size_of_OnDsWdtWakeUp 000000                                   Delay10KTCYx@unit 000001  
                                      ??_OnPowerUp 000010                                        _INTCON2bits 000FF1  
                                        copy_data0 00002C                                   __size_of_AdcInit 000000  
                                ?_XBeeSetSleepMode 000000                                           _IrcaInit 000000  
                                         _OnWakeUp 000000                                 ??_XBeeSetSleepMode 00000D  
                                ?_PayloadPutString 000008                                   __size_of_BspInit 000000  
                                       _ANCON0bits 000F48                                 ??_PayloadPutString 00000C  
                                       _ANCON1bits 000F49                                           __Hrparam 000000* 
                                         __Lrparam 000000*                                    _XBeeSendPacket 000000  
                XBeeCommissioning@timesButtonPress 00000D                         __end_of_SampleAndHoldReset 000006  
                                   _PayloadPutByte 000000                                     _PayloadPutWord 000000  
               __size_of_XBeeCreateATCommandPacket 000000                               __size_of_PayloadInit 000000  
                            __size_of_AdcCalibrate 000000                                     _XBeeSerialInit 000000  
                                   _XBeeSerialSend 000000                              __size_of_PowerUpSHT11 000000  
                                         _ircAData 000000*                                          __ptext10 000000  
                                         __ptext11 000000                                           __ptext20 000000  
                                         __ptext12 000000                                           __ptext21 000000  
                                         __ptext13 000000                                           __ptext30 000000  
                                         __ptext22 000000                                           __ptext14 000000  
                                         __ptext31 000000                                           __ptext23 000000  
                                         __ptext15 000000                                           __ptext40 000000  
                                         __ptext32 000000                                           __ptext24 000000  
                                         __ptext16 000000                                           __ptext41 000000  
                                         __ptext33 000000                                           __ptext25 000000  
                                         __ptext17 000000                                           __ptext50 000000  
                                         __ptext42 000000                                           __ptext34 000000  
                                         __ptext26 000000                                           __ptext18 000000  
                                         __ptext51 000000                                           __ptext43 000000  
                                         __ptext35 000000                                           __ptext27 000000  
                                         __ptext19 000000                                           __ptext52 000000  
                                         __ptext44 000000                                           __ptext36 000000  
                                         __ptext28 000000                                           __ptext53 000000  
                                         __ptext45 000000                                           __ptext37 000000  
                                         __ptext29 000000                                           __ptext54 000000  
                                         __ptext46 000000                                           __ptext38 000000  
                                         __ptext55 000000                                           __ptext47 000000  
                                         __ptext39 000000                                           __ptext48 000000  
                                         __ptext49 000000                            XBeeSetSleepMode@command 000007  
            XBeeCreateTransmitRequestPacket@packet 000000            __end_of_XBeeCreateTransmitRequestPacket 0000FE  
         __size_of_XBeeCreateTransmitRequestPacket 000000                  ??_XBeeCreateTransmitRequestPacket 00000A  
                 ?_XBeeCreateTransmitRequestPacket 000000                    _XBeeCreateTransmitRequestPacket 000000  
            XBeeCreateTransmitRequestPacket@radius 000005                                    _ClearInterrupts 000000  
                               _ClearDSWakeUpFlags 000000                                   __size_of_sprintf 000000  
                                         _ircaData 000001                                         _DSCONHbits 000F4D  
                                       _DSCONLbits 000F4C                                      __size_of_main 000000  
                      __end_of_COORDINATOR_ADDRESS 00000D                                ?_ClearDSWakeUpFlags 000000  
                                    _OnDsWdtWakeUp 000000                             __end_of_XBeeSendPacket 0000C0  
                                    ??_Delay10TCYx 000000                                   ?_SensorProxyInit 000000  
                                     _AdcCalibrate 000000                             __end_of_PayloadPutByte 000048  
                                 ??_PowerDeepSleep 000000                             __end_of_PayloadPutWord 000082  
                            __size_of_AdcReadValue 000000                                       _PowerUpSHT11 000000  
                           __end_of_XBeeSerialInit 000016                             __end_of_XBeeSerialSend 00000E  
                                 _XBeeCreatePacket 000000                               ??_ClearDSWakeUpFlags 000000  
                                      _OSCTUNEbits 000F9B                                         _INTCONbits 000FF2  
                                   _ClearMclrFlags 000000                               __end_of_Delay100TCYx 000012  
                                         memset@p1 000000                                   ??_PowerDownSHT11 000000  
                             __end_of_Delay10KTCYx 000018                           __end_of_BROADCAST_RADIUS 000004  
                                        sprintf@ap 000004                                          sprintf@sp 000000  
                          __size_of_MeasureSensors 000000                           _EnableDeelSleepInterrupt 000000* 
                        __size_of_PowerUpCO2Sensor 000000                              _ClearNetworkInterrupt 000000  
                                       _RCSTA1bits 000FAC                                     ?_OnDsWdtWakeUp 000000  
                                     _AdcReadValue 000000                                         _OSCCONbits 000FD3  
                                  ?_XBeeSendPacket 000001                                      AdcConvert@tmp 000008  
                                AdcConvert@channel 000007                                  _XBeeCommissioning 000000  
                                  ?_PayloadPutByte 000000                                    ?_PayloadPutWord 000000  
                               ?_XBeeCommissioning 000000                                         _RTCCFGbits 000F3F  
                              __end_of_Delay10TCYx 000012                                           sprintf@c 000007  
                                         sprintf@f 000002                             __end_of_ClearMclrFlags 00000C  
                                  ?_XBeeSerialInit 000000                            __end_of_ClearInterrupts 00001A  
                                  ?_XBeeSerialSend 000000                                           strlen@cp 000004  
                              ??_XBeeCommissioning 00000D                                         _WDTCONbits 000FC0  
                                       _AdcConvert 000000                                      ??_Irca1InitIO 000000  
