

Microchip Technology PIC18 LITE Macro Assembler V1.34 build -361300703 
                                                                                               Wed Nov 25 12:51:32 2015

Microchip Technology Omniscient Code Generator (Lite mode) build 201502162209
     1                           	processor	18F26J50
     2                           	fnconf	rparam,??,?,0
     3                           	opt	pw 120
     4                           	opt	lm
     5                           	psect	idataCOMRAM,global,class=CODE,delta=1
     6                           	psect	smallconst,global,reloc=2,class=SMALLCONST,delta=1
     7                           	psect	cinit,global,reloc=2,class=CODE,delta=1
     8                           	psect	bssCOMRAM,global,class=COMRAM,space=1,delta=1
     9                           	psect	dataCOMRAM,global,class=COMRAM,space=1,delta=1
    10                           	psect	bssBANK0,global,class=BANK0,space=1,delta=1
    11                           	psect	cstackBANK1,global,class=BANK1,space=1,delta=1
    12                           	psect	cstackCOMRAM,global,class=COMRAM,space=1,delta=1
    13                           	psect	text0,global,reloc=2,class=CODE,delta=1
    14                           	psect	text1,global,reloc=2,class=CODE,delta=1
    15                           	psect	text2,global,reloc=2,class=CODE,delta=1
    16                           	psect	text3,global,reloc=2,class=CODE,delta=1
    17                           	psect	text4,global,reloc=2,class=CODE,delta=1
    18                           	psect	text5,global,reloc=2,class=CODE,delta=1
    19                           	psect	text6,global,reloc=2,class=CODE,delta=1
    20                           	psect	text7,global,reloc=2,class=CODE,delta=1
    21                           	psect	text8,global,reloc=2,class=CODE,delta=1
    22                           	psect	text9,global,reloc=2,class=CODE,delta=1
    23                           	psect	text10,global,reloc=2,class=CODE,delta=1
    24                           	psect	text11,global,reloc=2,class=CODE,delta=1
    25                           	psect	text12,global,reloc=2,class=CODE,delta=1
    26                           	psect	text13,global,reloc=2,class=CODE,delta=1
    27                           	psect	text14,global,reloc=2,class=CODE,delta=1
    28                           	psect	text15,global,reloc=2,class=CODE,delta=1
    29                           	psect	text16,global,reloc=2,class=CODE,delta=1
    30                           	psect	text17,global,reloc=2,class=CODE,delta=1
    31                           	psect	text18,global,reloc=2,class=CODE,delta=1
    32                           	psect	text19,global,reloc=2,class=CODE,delta=1
    33                           	psect	text20,global,reloc=2,class=CODE,delta=1
    34                           	psect	text21,global,reloc=2,class=CODE,delta=1
    35                           	psect	text22,global,reloc=2,class=CODE,delta=1
    36                           	psect	text23,global,reloc=2,class=CODE,delta=1
    37                           	psect	text24,global,reloc=2,class=CODE,delta=1
    38                           	psect	text25,global,reloc=2,class=CODE,delta=1
    39                           	psect	text26,global,reloc=2,class=CODE,delta=1
    40                           	psect	text27,global,reloc=2,class=CODE,delta=1
    41                           	psect	text28,global,reloc=2,class=CODE,delta=1
    42                           	psect	text29,global,reloc=2,class=CODE,delta=1
    43                           	psect	text30,global,reloc=2,class=CODE,delta=1
    44                           	psect	text31,global,reloc=2,class=CODE,delta=1
    45                           	psect	text32,global,reloc=2,class=CODE,delta=1
    46                           	psect	text33,global,reloc=2,class=CODE,delta=1
    47                           	psect	text34,global,reloc=2,class=CODE,delta=1
    48                           	psect	text35,global,reloc=2,class=CODE,delta=1
    49                           	psect	text36,global,reloc=2,class=CODE,delta=1
    50                           	psect	text37,global,reloc=2,class=CODE,delta=1
    51                           	psect	text38,global,reloc=2,class=CODE,delta=1
    52                           	psect	text39,global,reloc=2,class=CODE,delta=1
    53                           	psect	text40,global,reloc=2,class=CODE,delta=1
    54                           	psect	text41,global,reloc=2,class=CODE,delta=1
    55                           	psect	text42,global,reloc=2,class=CODE,delta=1
    56                           	psect	text43,global,reloc=2,class=CODE,delta=1
    57                           	psect	text44,global,reloc=2,class=CODE,delta=1
    58                           	psect	text45,global,reloc=2,class=CODE,delta=1
    59                           	psect	text46,global,reloc=2,class=CODE,delta=1
    60                           	psect	text47,global,reloc=2,class=CODE,delta=1
    61                           	psect	text48,global,reloc=2,class=CODE,delta=1
    62                           	psect	text49,global,reloc=2,class=CODE,delta=1
    63                           	psect	text50,global,reloc=2,class=CODE,delta=1
    64                           	psect	text51,global,reloc=2,class=CODE,delta=1
    65                           	psect	text52,global,reloc=2,class=CODE,delta=1
    66                           	psect	text53,global,reloc=2,class=CODE,delta=1
    67                           	psect	text54,global,reloc=2,class=CODE,delta=1
    68                           	psect	text55,global,reloc=2,class=CODE,delta=1
    69                           	psect	intsave_regs,global,class=BIGRAM,space=1,delta=1
    70                           	psect	rparam,global,class=COMRAM,space=1,delta=1
    71  0000                     
    72                           	psect	idataCOMRAM
    73  001BCC                     __pidataCOMRAM:
    74                           	opt stack 0
    75                           
    76                           ;initializer for _EUSART_9600
    77  001BCC  CF                 	db	207
    78                           
    79                           ;initializer for XBeeCommissioning@command
    80  001BCD  43                 	db	67
    81  001BCE  42                 	db	66
    82  001BCF  00                 	db	0
    83                           
    84                           ;initializer for XBeeReset@command
    85  001BD0  46                 	db	70
    86  001BD1  52                 	db	82
    87  001BD2  00                 	db	0
    88                           
    89                           ;initializer for XBeeSetSleepMode@command
    90  001BD3  53                 	db	83
    91  001BD4  4D                 	db	77
    92  001BD5  00                 	db	0
    93                           
    94                           	psect	smallconst
    95  000F00                     __psmallconst:
    96                           	opt stack 0
    97  000F00  00                 	db	0
    98  000F01                     _CO2OFFSET:
    99                           	opt stack 0
   100  000F01  0034               	dw	52
   101  000F03                     __end_of_CO2OFFSET:
   102                           	opt stack 0
   103  000F03                     _BROADCAST_RADIUS:
   104                           	opt stack 0
   105  000F03  00                 	db	0
   106  000F04                     __end_of_BROADCAST_RADIUS:
   107                           	opt stack 0
   108  000F04                     _TRANSMIT_OPTIONS:
   109                           	opt stack 0
   110  000F04  00                 	db	0
   111  000F05                     __end_of_TRANSMIT_OPTIONS:
   112                           	opt stack 0
   113  000F05                     _COORDINATOR_ADDRESS:
   114                           	opt stack 0
   115  000F05  00                 	db	0
   116  000F06  13                 	db	19
   117  000F07  A2                 	db	162
   118  000F08  00                 	db	0
   119  000F09  40                 	db	64
   120  000F0A  48                 	db	72
   121  000F0B  94                 	db	148
   122  000F0C  94                 	db	148
   123  000F0D                     __end_of_COORDINATOR_ADDRESS:
   124                           	opt stack 0
   125  000F0D                     _SENSORS:
   126                           	opt stack 0
   127  000F0D  53                 	db	83
   128  000F0E  43                 	db	67
   129  000F0F                     __end_of_SENSORS:
   130                           	opt stack 0
   131  0000                     _ANCON0	set	3912
   132  0000                     _ANCON0bits	set	3912
   133  0000                     _ANCON1	set	3913
   134  0000                     _ANCON1bits	set	3913
   135  0000                     _DSCONHbits	set	3917
   136  0000                     _DSCONLbits	set	3916
   137  0000                     _DSWAKEH	set	3915
   138  0000                     _DSWAKEHbits	set	3915
   139  0000                     _DSWAKEL	set	3914
   140  0000                     _DSWAKELbits	set	3914
   141  0000                     _RTCCFGbits	set	3903
   142  0000                     _ADRES	set	4035
   143  0000                     _ADCON0bits	set	4034
   144  0000                     _ADCON1bits	set	4033
   145  0000                     _BAUDCON1bits	set	3966
   146  0000                     _INTCON	set	4082
   147  0000                     _INTCON2bits	set	4081
   148  0000                     _INTCONbits	set	4082
   149  0000                     _IPR1	set	3999
   150  0000                     _IPR2	set	4002
   151  0000                     _IPR3	set	4005
   152  0000                     _LATAbits	set	3977
   153  0000                     _OSCCONbits	set	4051
   154  0000                     _OSCTUNEbits	set	3995
   155  0000                     _PIE1	set	3997
   156  0000                     _PIR1	set	3998
   157  0000                     _PIR1bits	set	3998
   158  0000                     _PIR2	set	4001
   159  0000                     _PIR3	set	4004
   160  0000                     _PORTAbits	set	3968
   161  0000                     _PORTBbits	set	3969
   162  0000                     _RCONbits	set	4048
   163  0000                     _RCREG1	set	4015
   164  0000                     _RCSTA1	set	4012
   165  0000                     _RCSTA1bits	set	4012
   166  0000                     _SPBRG1	set	4016
   167  0000                     _TRISAbits	set	3986
   168  0000                     _TRISBbits	set	3987
   169  0000                     _TRISCbits	set	3988
   170  0000                     _TXREG1	set	4014
   171  0000                     _TXSTA1bits	set	4013
   172  0000                     _UCONbits	set	3941
   173  0000                     _WDTCONbits	set	4032
   174                           
   175                           ; #config settings
   176  000F0F  00                 	db	0	; dummy byte at the end
   177  0000                     
   178                           	psect	cinit
   179  001888                     __pcinit:
   180                           	opt stack 0
   181  001888                     start_initialization:
   182                           	opt stack 0
   183  001888                     __initialization:
   184                           	opt stack 0
   185                           
   186                           ; Clear objects allocated to BANK0 (125 bytes)
   187  001888  EE00  F060         	lfsr	0,__pbssBANK0
   188  00188C  0E7D               	movlw	125
   189  00188E                     clear_0:
   190  00188E  6AEE               	clrf	postinc0,c
   191  001890  06E8               	decf	wreg,f,c
   192  001892  E1FD               	bnz	clear_0
   193                           
   194                           ; Clear objects allocated to COMRAM (11 bytes)
   195  001894  EE00  F011         	lfsr	0,__pbssCOMRAM
   196  001898  0E0B               	movlw	11
   197  00189A                     clear_1:
   198  00189A  6AEE               	clrf	postinc0,c
   199  00189C  06E8               	decf	wreg,f,c
   200  00189E  E1FD               	bnz	clear_1
   201                           
   202                           ; Initialize objects allocated to COMRAM (10 bytes)
   203                           ; load TBLPTR registers with __pidataCOMRAM
   204  0018A0  0ECC               	movlw	low __pidataCOMRAM
   205  0018A2  6EF6               	movwf	tblptrl,c
   206  0018A4  0E1B               	movlw	high __pidataCOMRAM
   207  0018A6  6EF7               	movwf	tblptrh,c
   208  0018A8  0E00               	movlw	low (__pidataCOMRAM shr (0+16))
   209  0018AA  6EF8               	movwf	tblptru,c
   210  0018AC  EE00  F01C         	lfsr	0,__pdataCOMRAM
   211  0018B0  EE10 F00A          	lfsr	1,10
   212  0018B4                     copy_data0:
   213  0018B4  0009               	tblrd		*+
   214  0018B6  CFF5 FFEE          	movff	tablat,postinc0
   215  0018BA  50E5               	movf	postdec1,w,c
   216  0018BC  50E1               	movf	fsr1l,w,c
   217  0018BE  E1FA               	bnz	copy_data0
   218  0018C0                     end_of_initialization:
   219                           	opt stack 0
   220  0018C0                     __end_of__initialization:
   221                           	opt stack 0
   222  0018C0  0E00               	movlw	low (__Lmediumconst shr (0+16))
   223  0018C2  6EF8               	movwf	tblptru,c
   224  0018C4  0100               	movlb	0
   225  0018C6  EFA9  F009         	goto	_main	;jump to C main() function
   226                           tblptru	equ	0xFF8
   227                           tblptrh	equ	0xFF7
   228                           tblptrl	equ	0xFF6
   229                           tablat	equ	0xFF5
   230                           postinc0	equ	0xFEE
   231                           wreg	equ	0xFE8
   232                           postdec1	equ	0xFE5
   233                           fsr1l	equ	0xFE1
   234                           
   235                           	psect	bssCOMRAM
   236  000011                     __pbssCOMRAM:
   237                           	opt stack 0
   238  000011                     _count:
   239                           	opt stack 0
   240  000011                     	ds	1
   241  000012                     _shtData:
   242                           	opt stack 0
   243  000012                     	ds	6
   244  000018                     _co2d1Data:
   245                           	opt stack 0
   246  000018                     	ds	4
   247                           tblptru	equ	0xFF8
   248                           tblptrh	equ	0xFF7
   249                           tblptrl	equ	0xFF6
   250                           tablat	equ	0xFF5
   251                           postinc0	equ	0xFEE
   252                           wreg	equ	0xFE8
   253                           postdec1	equ	0xFE5
   254                           fsr1l	equ	0xFE1
   255                           
   256                           	psect	dataCOMRAM
   257  00001C                     __pdataCOMRAM:
   258                           	opt stack 0
   259  00001C                     _EUSART_9600:
   260                           	opt stack 0
   261  00001C                     	ds	1
   262  00001D                     XBeeCommissioning@command:
   263                           	opt stack 0
   264  00001D                     	ds	3
   265  000020                     XBeeReset@command:
   266                           	opt stack 0
   267  000020                     	ds	3
   268  000023                     XBeeSetSleepMode@command:
   269                           	opt stack 0
   270  000023                     	ds	3
   271                           tblptru	equ	0xFF8
   272                           tblptrh	equ	0xFF7
   273                           tblptrl	equ	0xFF6
   274                           tablat	equ	0xFF5
   275                           postinc0	equ	0xFEE
   276                           wreg	equ	0xFE8
   277                           postdec1	equ	0xFE5
   278                           fsr1l	equ	0xFE1
   279                           
   280                           	psect	bssBANK0
   281  000060                     __pbssBANK0:
   282                           	opt stack 0
   283  000060                     _joinPacket:
   284                           	opt stack 0
   285  000060                     	ds	125
   286                           tblptru	equ	0xFF8
   287                           tblptrh	equ	0xFF7
   288                           tblptrl	equ	0xFF6
   289                           tablat	equ	0xFF5
   290                           postinc0	equ	0xFEE
   291                           wreg	equ	0xFE8
   292                           postdec1	equ	0xFE5
   293                           fsr1l	equ	0xFE1
   294                           
   295                           	psect	cstackBANK1
   296  000100                     __pcstackBANK1:
   297                           	opt stack 0
   298  000100                     SendMeasures@packet:
   299                           	opt stack 0
   300                           
   301                           ; 125 bytes @ 0x0
   302  000100                     	ds	125
   303  00017D                     SendMeasures@payload:
   304                           	opt stack 0
   305                           
   306                           ; 101 bytes @ 0x7D
   307  00017D                     	ds	101
   308                           tblptru	equ	0xFF8
   309                           tblptrh	equ	0xFF7
   310                           tblptrl	equ	0xFF6
   311                           tablat	equ	0xFF5
   312                           postinc0	equ	0xFEE
   313                           wreg	equ	0xFE8
   314                           postdec1	equ	0xFE5
   315                           fsr1l	equ	0xFE1
   316                           
   317                           	psect	cstackCOMRAM
   318  000001                     __pcstackCOMRAM:
   319                           	opt stack 0
   320  000001                     ??_Delay10KTCYx:
   321  000001                     ?_AdcReadValue:
   322                           	opt stack 0
   323  000001                     ?_sprintf:
   324                           	opt stack 0
   325  000001                     ?_strlen:
   326                           	opt stack 0
   327  000001                     XBeeSerialInit@baudrate:
   328                           	opt stack 0
   329  000001                     XBeeSerialSend@value:
   330                           	opt stack 0
   331  000001                     Delay100TCYx@unit:
   332                           	opt stack 0
   333  000001                     Delay10TCYx@unit:
   334                           	opt stack 0
   335  000001                     XBeeCreateTransmitRequestPacket@packet:
   336                           	opt stack 0
   337  000001                     PayloadInit@payload:
   338                           	opt stack 0
   339  000001                     PayloadPutByte@payload:
   340                           	opt stack 0
   341  000001                     PayloadPutWord@payload:
   342                           	opt stack 0
   343  000001                     XBeeCreateCompleteATCommandPacket@packet:
   344                           	opt stack 0
   345  000001                     XBeeCreateATCommandPacket@packet:
   346                           	opt stack 0
   347  000001                     sprintf@sp:
   348                           	opt stack 0
   349  000001                     memset@p1:
   350                           	opt stack 0
   351  000001                     strlen@s:
   352                           	opt stack 0
   353                           
   354                           ; 2 bytes @ 0x0
   355  000001                     	ds	1
   356  000002                     Sht11Write@value:
   357                           	opt stack 0
   358  000002                     Sht11Read@ack:
   359                           	opt stack 0
   360  000002                     Delay10KTCYx@unit:
   361                           	opt stack 0
   362  000002                     XBeeSendPacket@packet:
   363                           	opt stack 0
   364                           
   365                           ; 2 bytes @ 0x1
   366  000002                     	ds	1
   367  000003                     ??_strlen:
   368  000003                     Sht11Write@error:
   369                           	opt stack 0
   370  000003                     Sht11Read@val:
   371                           	opt stack 0
   372  000003                     XBeeCreateTransmitRequestPacket@frameId:
   373                           	opt stack 0
   374  000003                     PayloadInit@i:
   375                           	opt stack 0
   376  000003                     PayloadPutByte@element:
   377                           	opt stack 0
   378  000003                     XBeeCreateCompleteATCommandPacket@frameId:
   379                           	opt stack 0
   380  000003                     XBeeCreateATCommandPacket@frameId:
   381                           	opt stack 0
   382  000003                     AdcConvert@result:
   383                           	opt stack 0
   384  000003                     PayloadPutWord@element:
   385                           	opt stack 0
   386  000003                     sprintf@f:
   387                           	opt stack 0
   388  000003                     memset@c:
   389                           	opt stack 0
   390                           
   391                           ; 2 bytes @ 0x2
   392  000003                     	ds	1
   393  000004                     ??_XBeeSendPacket:
   394  000004                     ??_PayloadPutByte:
   395  000004                     Sht11Write@i:
   396                           	opt stack 0
   397  000004                     Sht11Read@i:
   398                           	opt stack 0
   399  000004                     XBeeCreateTransmitRequestPacket@destinationAddress:
   400                           	opt stack 0
   401  000004                     XBeeCreateCompleteATCommandPacket@command:
   402                           	opt stack 0
   403  000004                     XBeeCreateATCommandPacket@command:
   404                           	opt stack 0
   405                           
   406                           ; 2 bytes @ 0x3
   407  000004                     	ds	1
   408  000005                     ??_AdcConvert:
   409  000005                     ??_PayloadPutWord:
   410  000005                     Sht11MeasureParam@p_value:
   411                           	opt stack 0
   412  000005                     sprintf@ap:
   413                           	opt stack 0
   414  000005                     memset@n:
   415                           	opt stack 0
   416  000005                     strlen@cp:
   417                           	opt stack 0
   418                           
   419                           ; 2 bytes @ 0x4
   420  000005                     	ds	1
   421  000006                     XBeeCreateTransmitRequestPacket@radius:
   422                           	opt stack 0
   423  000006                     PayloadPutWord@lsb:
   424                           	opt stack 0
   425  000006                     XBeeSendPacket@p:
   426                           	opt stack 0
   427  000006                     XBeeCreateCompleteATCommandPacket@params:
   428                           	opt stack 0
   429  000006                     XBeeCreateATCommandPacket@p:
   430                           	opt stack 0
   431                           
   432                           ; 2 bytes @ 0x5
   433  000006                     	ds	1
   434  000007                     XBeeCreateTransmitRequestPacket@options:
   435                           	opt stack 0
   436  000007                     PayloadPutWord@msb:
   437                           	opt stack 0
   438  000007                     sprintf@flag:
   439                           	opt stack 0
   440  000007                     Sht11MeasureParam@p_checksum:
   441                           	opt stack 0
   442  000007                     memset@p:
   443                           	opt stack 0
   444                           
   445                           ; 2 bytes @ 0x6
   446  000007                     	ds	1
   447  000008                     AdcConvert@channel:
   448                           	opt stack 0
   449  000008                     XBeeCreateCompleteATCommandPacket@paramsLength:
   450                           	opt stack 0
   451  000008                     sprintf@c:
   452                           	opt stack 0
   453  000008                     XBeeCreateTransmitRequestPacket@payload:
   454                           	opt stack 0
   455                           
   456                           ; 2 bytes @ 0x7
   457  000008                     	ds	1
   458  000009                     ??_XBeeCreateCompleteATCommandPacket:
   459  000009                     Sht11MeasureParam@mode:
   460                           	opt stack 0
   461  000009                     XBeeCreatePacket@packet:
   462                           	opt stack 0
   463  000009                     PayloadPutString@payload:
   464                           	opt stack 0
   465  000009                     AdcConvert@tmp:
   466                           	opt stack 0
   467                           
   468                           ; 4 bytes @ 0x8
   469  000009                     	ds	1
   470  00000A                     ??_Sht11MeasureParam:
   471  00000A                     XBeeCreateTransmitRequestPacket@dataLength:
   472                           	opt stack 0
   473                           
   474                           ; 1 bytes @ 0x9
   475  00000A                     	ds	1
   476  00000B                     ??_XBeeCreateTransmitRequestPacket:
   477  00000B                     XBeeCreateCompleteATCommandPacket@i:
   478                           	opt stack 0
   479  00000B                     PayloadPutString@string:
   480                           	opt stack 0
   481                           
   482                           ; 2 bytes @ 0xA
   483  00000B                     	ds	1
   484  00000C                     Sht11MeasureParam@error:
   485                           	opt stack 0
   486  00000C                     XBeeCreateCompleteATCommandPacket@p:
   487                           	opt stack 0
   488                           
   489                           ; 2 bytes @ 0xB
   490  00000C                     	ds	1
   491  00000D                     ??_PayloadPutString:
   492  00000D                     AdcConvert@i:
   493                           	opt stack 0
   494  00000D                     XBeeCreateTransmitRequestPacket@i:
   495                           	opt stack 0
   496  00000D                     Sht11Measure@data:
   497                           	opt stack 0
   498                           
   499                           ; 2 bytes @ 0xC
   500  00000D                     	ds	1
   501  00000E                     XBeeCommissioning@timesButtonPress:
   502                           	opt stack 0
   503  00000E                     XBeeSetSleepMode@mode:
   504                           	opt stack 0
   505  00000E                     Co2D1Measure@data:
   506                           	opt stack 0
   507  00000E                     XBeeCreateTransmitRequestPacket@p:
   508                           	opt stack 0
   509  00000E                     PayloadPutString@buffer:
   510                           	opt stack 0
   511                           
   512                           ; 2 bytes @ 0xD
   513  00000E                     	ds	1
   514  00000F                     Sht11Measure@error:
   515                           	opt stack 0
   516  00000F                     XBeeCommissioning@params:
   517                           	opt stack 0
   518  00000F                     XBeeSetSleepMode@params:
   519                           	opt stack 0
   520                           
   521                           ; 2 bytes @ 0xE
   522  00000F                     	ds	1
   523  000010                     
   524                           ; 0 bytes @ 0xF
   525  000010                     	ds	1
   526  000011                     tblptru	equ	0xFF8
   527                           tblptrh	equ	0xFF7
   528                           tblptrl	equ	0xFF6
   529                           tablat	equ	0xFF5
   530                           postinc0	equ	0xFEE
   531                           wreg	equ	0xFE8
   532                           postdec1	equ	0xFE5
   533                           fsr1l	equ	0xFE1
   534                           
   535                           ; 0 bytes @ 0x10
   536 ;;
   537 ;;Main: autosize = 0, tempsize = 0, incstack = 0, save=0
   538 ;;
   539 ;; *************** function _main *****************
   540 ;; Defined at:
   541 ;;		line 10 in file "main.c"
   542 ;; Parameters:    Size  Location     Type
   543 ;;		None
   544 ;; Auto vars:     Size  Location     Type
   545 ;;		None
   546 ;; Return value:  Size  Location     Type
   547 ;;                  2  324[None  ] int 
   548 ;; Registers used:
   549 ;;		wreg, fsr1l, fsr1h, fsr2l, fsr2h, status,2, status,0, tblptrl, tblptrh, tblptru, prodl, prodh, cstack
   550 ;; Tracked objects:
   551 ;;		On entry : 0/0
   552 ;;		On exit  : 0/0
   553 ;;		Unchanged: 0/0
   554 ;; Data sizes:     COMRAM   BANK0   BANK1   BANK2   BANK3   BANK4   BANK5   BANK6   BANK7   BANK8   BANK9  BANK10  BANK1
      +1  BANK12  BANK13  BANK14
   555 ;;      Params:         0       0       0       0       0       0       0       0       0       0       0       0       
      +0       0       0       0
   556 ;;      Locals:         0       0       0       0       0       0       0       0       0       0       0       0       
      +0       0       0       0
   557 ;;      Temps:          0       0       0       0       0       0       0       0       0       0       0       0       
      +0       0       0       0
   558 ;;      Totals:         0       0       0       0       0       0       0       0       0       0       0       0       
      +0       0       0       0
   559 ;;Total ram usage:        0 bytes
   560 ;; Hardware stack levels required when called:    6
   561 ;; This function calls:
   562 ;;		_BspInit
   563 ;;		_ClearInterrupts
   564 ;;		_DisableInterrupts
   565 ;;		_EnableDeepSleepInterrupt
   566 ;;		_OnDsWdtWakeUp
   567 ;;		_OnMclr
   568 ;;		_OnPowerUp
   569 ;;		_OnWakeUp
   570 ;;		_PowerDeepSleep
   571 ;;		_SensorProxyInit
   572 ;;		_XBeeInit
   573 ;; This function is called by:
   574 ;;		Startup code after reset
   575 ;; This function uses a non-reentrant model
   576 ;;
   577                           
   578                           	psect	text0
   579  001352                     __ptext0:
   580                           	opt stack 0
   581  001352                     _main:
   582                           	opt stack 25
   583                           
   584                           ;main.c: 16: BspInit();
   585                           
   586                           ; BSR set to: 15
   587                           ;incstack = 0
   588  001352  EC51  F00D         	call	_BspInit	;wreg free
   589                           
   590                           ;main.c: 17: ClearInterrupts();
   591  001356  EC44  F00D         	call	_ClearInterrupts	;wreg free
   592                           
   593                           ;main.c: 18: DisableInterrupts();
   594  00135A  EC03  F00E         	call	_DisableInterrupts	;wreg free
   595                           
   596                           ;main.c: 19: EnableDeepSleepInterrupt();
   597  00135E  EC00  F00E         	call	_EnableDeepSleepInterrupt	;wreg free
   598                           
   599                           ;main.c: 21: XBeeInit();
   600  001362  ECCE  F00D         	call	_XBeeInit	;wreg free
   601                           
   602                           ;main.c: 23: SensorProxyInit();
   603  001366  ECB2  F00D         	call	_SensorProxyInit	;wreg free
   604  00136A  D000               	goto	l2397
   605  00136C                     l2397:
   606                           
   607                           ;main.c: 29: if (WDTCONbits.DS && DSWAKEHbits.DSINT0) {
   608  00136C  A6C0               	btfss	4032,3,c	;volatile
   609  00136E  D006               	goto	l326
   610  001370  010F               	movlb	15	; () banked
   611  001372  A14B               	btfss	75,0,b	;volatile
   612  001374  D003               	goto	l326
   613                           
   614                           ; BSR set to: 15
   615                           ;main.c: 30: OnWakeUp();
   616  001376  EC7E  F00D         	call	_OnWakeUp	;wreg free
   617                           
   618                           ;main.c: 31: } else if (WDTCONbits.DS && DSWAKELbits.DSMCLR) {
   619  00137A  D029               	goto	l2423
   620  00137C                     l326:
   621  00137C  A6C0               	btfss	4032,3,c	;volatile
   622  00137E  D006               	goto	l328
   623  001380  010F               	movlb	15	; () banked
   624  001382  A54A               	btfss	74,2,b	;volatile
   625  001384  D003               	goto	l328
   626                           
   627                           ; BSR set to: 15
   628                           ;main.c: 32: OnMclr();
   629  001386  ECAA  F00D         	call	_OnMclr	;wreg free
   630                           
   631                           ;main.c: 33: } else if (WDTCONbits.DS && DSWAKELbits.DSWDT) {
   632  00138A  D021               	goto	l2423
   633  00138C                     l328:
   634  00138C  A6C0               	btfss	4032,3,c	;volatile
   635  00138E  D006               	goto	l330
   636  001390  010F               	movlb	15	; () banked
   637  001392  A94A               	btfss	74,4,b	;volatile
   638  001394  D003               	goto	l330
   639                           
   640                           ; BSR set to: 15
   641                           ;main.c: 34: OnDsWdtWakeUp();
   642  001396  EC90  F00D         	call	_OnDsWdtWakeUp	;wreg free
   643                           
   644                           ;main.c: 35: } else if (WDTCONbits.DS && DSWAKELbits.DSULP){
   645  00139A  D019               	goto	l2423
   646  00139C                     l330:
   647  00139C  A6C0               	btfss	4032,3,c	;volatile
   648  00139E  D003               	goto	l332
   649  0013A0  010F               	movlb	15	; () banked
   650  0013A2  BB4A               	btfsc	74,5,b	;volatile
   651  0013A4  D005               	goto	l2417
   652  0013A6                     l332:
   653  0013A6  A6C0               	btfss	4032,3,c	;volatile
   654  0013A8  D005               	goto	l334
   655  0013AA  010F               	movlb	15	; () banked
   656  0013AC  A74A               	btfss	74,3,b	;volatile
   657  0013AE  D002               	goto	l334
   658  0013B0                     l2417:
   659                           
   660                           ; BSR set to: 15
   661                           ;main.c: 39: WDTCONbits.DS = 0;
   662  0013B0  96C0               	bcf	4032,3,c	;volatile
   663                           
   664                           ;main.c: 40: } else if (!WDTCONbits.DS){
   665  0013B2  D00D               	goto	l2423
   666  0013B4                     l334:
   667  0013B4  B6C0               	btfsc	4032,3,c	;volatile
   668  0013B6  D003               	goto	l336
   669                           
   670                           ;main.c: 41: OnPowerUp();
   671  0013B8  ECF5  F00D         	call	_OnPowerUp	;wreg free
   672                           
   673                           ;main.c: 42: } else if (DSWAKELbits.DSFLT){
   674  0013BC  D008               	goto	l2423
   675  0013BE                     l336:
   676  0013BE  010F               	movlb	15	; () banked
   677  0013C0  AF4A               	btfss	74,7,b	;volatile
   678  0013C2  D005               	goto	l2423
   679                           
   680                           ; BSR set to: 15
   681                           ;main.c: 43: WDTCONbits.DS = 0;
   682  0013C4  96C0               	bcf	4032,3,c	;volatile
   683                           
   684                           ;main.c: 44: DSWAKELbits.DSFLT=0;
   685  0013C6  010F               	movlb	15	; () banked
   686  0013C8  9F4A               	bcf	74,7,b	;volatile
   687  0013CA  D7FF               	goto	l340
   688  0013CC  D000               	goto	l2423
   689  0013CE                     l2423:
   690                           
   691                           ;main.c: 46: }
   692                           ;main.c: 47: PowerDeepSleep();
   693  0013CE  ECD3  F00C         	call	_PowerDeepSleep	;wreg free
   694  0013D2  D7CC               	goto	l2397
   695                           
   696                           ;main.c: 52: }
   697                           ;main.c: 53: return 0;
   698                           ;	Return value of _main is never used
   699  0013D4  EF00  F000         	goto	start
   700  0013D8                     __end_of_main:
   701                           	opt stack 0
   702                           tblptru	equ	0xFF8
   703                           tblptrh	equ	0xFF7
   704                           tblptrl	equ	0xFF6
   705                           tablat	equ	0xFF5
   706                           postinc0	equ	0xFEE
   707                           wreg	equ	0xFE8
   708                           postdec1	equ	0xFE5
   709                           fsr1l	equ	0xFE1
   710                           
   711 ;; *************** function _XBeeInit *****************
   712 ;; Defined at:
   713 ;;		line 25 in file "xbee/digi_hw.c"
   714 ;; Parameters:    Size  Location     Type
   715 ;;		None
   716 ;; Auto vars:     Size  Location     Type
   717 ;;		None
   718 ;; Return value:  Size  Location     Type
   719 ;;		None               void
   720 ;; Registers used:
   721 ;;		wreg, status,2, cstack
   722 ;; Tracked objects:
   723 ;;		On entry : 0/0
   724 ;;		On exit  : 0/0
   725 ;;		Unchanged: 0/0
   726 ;; Data sizes:     COMRAM   BANK0   BANK1   BANK2   BANK3   BANK4   BANK5   BANK6   BANK7   BANK8   BANK9  BANK10  BANK1
      +1  BANK12  BANK13  BANK14
   727 ;;      Params:         0       0       0       0       0       0       0       0       0       0       0       0       
      +0       0       0       0
   728 ;;      Locals:         0       0       0       0       0       0       0       0       0       0       0       0       
      +0       0       0       0
   729 ;;      Temps:          0       0       0       0       0       0       0       0       0       0       0       0       
      +0       0       0       0
   730 ;;      Totals:         0       0       0       0       0       0       0       0       0       0       0       0       
      +0       0       0       0
   731 ;;Total ram usage:        0 bytes
   732 ;; Hardware stack levels used:    1
   733 ;; Hardware stack levels required when called:    1
   734 ;; This function calls:
   735 ;;		_XBeeInterruptInit
   736 ;;		_XBeeSerialInit
   737 ;; This function is called by:
   738 ;;		_main
   739 ;; This function uses a non-reentrant model
   740 ;;
   741                           
   742                           	psect	text1
   743  001B9C                     __ptext1:
   744                           	opt stack 0
   745  001B9C                     _XBeeInit:
   746                           	opt stack 29
   747                           
   748                           ;digi_hw.c: 26: XBeeSerialInit(EUSART_9600);
   749                           
   750                           ;incstack = 0
   751  001B9C  501C               	movf	_EUSART_9600,w,c
   752  001B9E  EC6A  F00D         	call	_XBeeSerialInit
   753                           
   754                           ;digi_hw.c: 27: XBeeInterruptInit();
   755  001BA2  ECEB  F00D         	call	_XBeeInterruptInit	;wreg free
   756  001BA6  0012               	return		;funcret
   757  001BA8                     __end_of_XBeeInit:
   758                           	opt stack 0
   759                           tblptru	equ	0xFF8
   760                           tblptrh	equ	0xFF7
   761                           tblptrl	equ	0xFF6
   762                           tablat	equ	0xFF5
   763                           postinc0	equ	0xFEE
   764                           wreg	equ	0xFE8
   765                           postdec1	equ	0xFE5
   766                           fsr1l	equ	0xFE1
   767                           
   768 ;; *************** function _XBeeSerialInit *****************
   769 ;; Defined at:
   770 ;;		line 20 in file "xbee/digi_serial.c"
   771 ;; Parameters:    Size  Location     Type
   772 ;;  baudrate        1    wreg     unsigned char 
   773 ;; Auto vars:     Size  Location     Type
   774 ;;  baudrate        1    0[COMRAM] unsigned char 
   775 ;; Return value:  Size  Location     Type
   776 ;;		None               void
   777 ;; Registers used:
   778 ;;		wreg
   779 ;; Tracked objects:
   780 ;;		On entry : 0/0
   781 ;;		On exit  : 0/0
   782 ;;		Unchanged: 0/0
   783 ;; Data sizes:     COMRAM   BANK0   BANK1   BANK2   BANK3   BANK4   BANK5   BANK6   BANK7   BANK8   BANK9  BANK10  BANK1
      +1  BANK12  BANK13  BANK14
   784 ;;      Params:         0       0       0       0       0       0       0       0       0       0       0       0       
      +0       0       0       0
   785 ;;      Locals:         1       0       0       0       0       0       0       0       0       0       0       0       
      +0       0       0       0
   786 ;;      Temps:          0       0       0       0       0       0       0       0       0       0       0       0       
      +0       0       0       0
   787 ;;      Totals:         1       0       0       0       0       0       0       0       0       0       0       0       
      +0       0       0       0
   788 ;;Total ram usage:        1 bytes
   789 ;; Hardware stack levels used:    1
   790 ;; This function calls:
   791 ;;		Nothing
   792 ;; This function is called by:
   793 ;;		_XBeeInit
   794 ;; This function uses a non-reentrant model
   795 ;;
   796                           
   797                           	psect	text2
   798  001AD4                     __ptext2:
   799                           	opt stack 0
   800  001AD4                     _XBeeSerialInit:
   801                           	opt stack 29
   802                           
   803                           ;incstack = 0
   804                           ;XBeeSerialInit@baudrate stored from wreg
   805  001AD4  6E01               	movwf	XBeeSerialInit@baudrate,c
   806                           
   807                           ;digi_serial.c: 21: TRISCbits.TRISC7 = 1;
   808  001AD6  8E94               	bsf	3988,7,c	;volatile
   809                           
   810                           ;digi_serial.c: 22: TRISCbits.TRISC6 = 0;
   811  001AD8  9C94               	bcf	3988,6,c	;volatile
   812                           
   813                           ;digi_serial.c: 24: RCSTA1bits.CREN = 1;
   814  001ADA  88AC               	bsf	4012,4,c	;volatile
   815                           
   816                           ;digi_serial.c: 25: TXSTA1bits.BRGH = 1;
   817  001ADC  84AD               	bsf	4013,2,c	;volatile
   818                           
   819                           ;digi_serial.c: 27: TXSTA1bits.TXEN = 1;
   820  001ADE  8AAD               	bsf	4013,5,c	;volatile
   821                           
   822                           ;digi_serial.c: 28: RCSTA1bits.SPEN = 1;
   823  001AE0  8EAC               	bsf	4012,7,c	;volatile
   824                           
   825                           ;digi_serial.c: 30: SPBRG1 = baudrate;
   826  001AE2  C001  FFB0         	movff	XBeeSerialInit@baudrate,4016	;volatile
   827                           
   828                           ;digi_serial.c: 32: BAUDCON1bits.BRG16 = 1;
   829  001AE6  867E               	bsf	3966,3,c	;volatile
   830  001AE8  0012               	return		;funcret
   831  001AEA                     __end_of_XBeeSerialInit:
   832                           	opt stack 0
   833                           tblptru	equ	0xFF8
   834                           tblptrh	equ	0xFF7
   835                           tblptrl	equ	0xFF6
   836                           tablat	equ	0xFF5
   837                           postinc0	equ	0xFEE
   838                           wreg	equ	0xFE8
   839                           postdec1	equ	0xFE5
   840                           fsr1l	equ	0xFE1
   841                           
   842 ;; *************** function _XBeeInterruptInit *****************
   843 ;; Defined at:
   844 ;;		line 30 in file "xbee/digi_hw.c"
   845 ;; Parameters:    Size  Location     Type
   846 ;;		None
   847 ;; Auto vars:     Size  Location     Type
   848 ;;		None
   849 ;; Return value:  Size  Location     Type
   850 ;;		None               void
   851 ;; Registers used:
   852 ;;		None
   853 ;; Tracked objects:
   854 ;;		On entry : 0/0
   855 ;;		On exit  : 0/0
   856 ;;		Unchanged: 0/0
   857 ;; Data sizes:     COMRAM   BANK0   BANK1   BANK2   BANK3   BANK4   BANK5   BANK6   BANK7   BANK8   BANK9  BANK10  BANK1
      +1  BANK12  BANK13  BANK14
   858 ;;      Params:         0       0       0       0       0       0       0       0       0       0       0       0       
      +0       0       0       0
   859 ;;      Locals:         0       0       0       0       0       0       0       0       0       0       0       0       
      +0       0       0       0
   860 ;;      Temps:          0       0       0       0       0       0       0       0       0       0       0       0       
      +0       0       0       0
   861 ;;      Totals:         0       0       0       0       0       0       0       0       0       0       0       0       
      +0       0       0       0
   862 ;;Total ram usage:        0 bytes
   863 ;; Hardware stack levels used:    1
   864 ;; This function calls:
   865 ;;		Nothing
   866 ;; This function is called by:
   867 ;;		_XBeeInit
   868 ;; This function uses a non-reentrant model
   869 ;;
   870                           
   871                           	psect	text3
   872  001BD6                     __ptext3:
   873                           	opt stack 0
   874  001BD6                     _XBeeInterruptInit:
   875                           	opt stack 29
   876                           
   877                           ;digi_hw.c: 31: TRISBbits.TRISB0 = 1;
   878                           
   879                           ;incstack = 0
   880  001BD6  8093               	bsf	3987,0,c	;volatile
   881                           
   882                           ;digi_hw.c: 32: INTCON2bits.INTEDG0 = 1;
   883  001BD8  8CF1               	bsf	intcon2,6,c	;volatile
   884                           
   885                           ;digi_hw.c: 33: INTCONbits.INT0IF = 0;
   886  001BDA  92F2               	bcf	intcon,1,c	;volatile
   887                           
   888                           ;digi_hw.c: 34: INTCONbits.INT0IE = 1;
   889  001BDC  88F2               	bsf	intcon,4,c	;volatile
   890  001BDE  0012               	return		;funcret
   891  001BE0                     __end_of_XBeeInterruptInit:
   892                           	opt stack 0
   893                           tblptru	equ	0xFF8
   894                           tblptrh	equ	0xFF7
   895                           tblptrl	equ	0xFF6
   896                           tablat	equ	0xFF5
   897                           intcon	equ	0xFF2
   898                           intcon2	equ	0xFF1
   899                           postinc0	equ	0xFEE
   900                           wreg	equ	0xFE8
   901                           postdec1	equ	0xFE5
   902                           fsr1l	equ	0xFE1
   903                           
   904 ;; *************** function _SensorProxyInit *****************
   905 ;; Defined at:
   906 ;;		line 20 in file "sensor_proxy.c"
   907 ;; Parameters:    Size  Location     Type
   908 ;;		None
   909 ;; Auto vars:     Size  Location     Type
   910 ;;		None
   911 ;; Return value:  Size  Location     Type
   912 ;;		None               void
   913 ;; Registers used:
   914 ;;		wreg, status,2, cstack
   915 ;; Tracked objects:
   916 ;;		On entry : 0/0
   917 ;;		On exit  : 0/0
   918 ;;		Unchanged: 0/0
   919 ;; Data sizes:     COMRAM   BANK0   BANK1   BANK2   BANK3   BANK4   BANK5   BANK6   BANK7   BANK8   BANK9  BANK10  BANK1
      +1  BANK12  BANK13  BANK14
   920 ;;      Params:         0       0       0       0       0       0       0       0       0       0       0       0       
      +0       0       0       0
   921 ;;      Locals:         0       0       0       0       0       0       0       0       0       0       0       0       
      +0       0       0       0
   922 ;;      Temps:          0       0       0       0       0       0       0       0       0       0       0       0       
      +0       0       0       0
   923 ;;      Totals:         0       0       0       0       0       0       0       0       0       0       0       0       
      +0       0       0       0
   924 ;;Total ram usage:        0 bytes
   925 ;; Hardware stack levels used:    1
   926 ;; Hardware stack levels required when called:    2
   927 ;; This function calls:
   928 ;;		_Co2D1Init
   929 ;;		_PowerUpCO2Sensor
   930 ;;		_Sht11Init
   931 ;; This function is called by:
   932 ;;		_main
   933 ;; This function uses a non-reentrant model
   934 ;;
   935                           
   936                           	psect	text4
   937  001B64                     __ptext4:
   938                           	opt stack 0
   939  001B64                     _SensorProxyInit:
   940                           	opt stack 28
   941                           
   942                           ;sensor_proxy.c: 21: Sht11Init();
   943                           
   944                           ;incstack = 0
   945  001B64  EC75  F00D         	call	_Sht11Init	;wreg free
   946                           
   947                           ;sensor_proxy.c: 22: PowerUpCO2Sensor();
   948  001B68  ECFD  F00D         	call	_PowerUpCO2Sensor	;wreg free
   949                           
   950                           ;sensor_proxy.c: 23: Co2D1Init();
   951  001B6C  ECF0  F00D         	call	_Co2D1Init	;wreg free
   952  001B70  0012               	return		;funcret
   953  001B72                     __end_of_SensorProxyInit:
   954                           	opt stack 0
   955                           tblptru	equ	0xFF8
   956                           tblptrh	equ	0xFF7
   957                           tblptrl	equ	0xFF6
   958                           tablat	equ	0xFF5
   959                           intcon	equ	0xFF2
   960                           intcon2	equ	0xFF1
   961                           postinc0	equ	0xFEE
   962                           wreg	equ	0xFE8
   963                           postdec1	equ	0xFE5
   964                           fsr1l	equ	0xFE1
   965                           
   966 ;; *************** function _Sht11Init *****************
   967 ;; Defined at:
   968 ;;		line 32 in file "sht/sht.c"
   969 ;; Parameters:    Size  Location     Type
   970 ;;		None
   971 ;; Auto vars:     Size  Location     Type
   972 ;;		None
   973 ;; Return value:  Size  Location     Type
   974 ;;		None               void
   975 ;; Registers used:
   976 ;;		None
   977 ;; Tracked objects:
   978 ;;		On entry : 0/0
   979 ;;		On exit  : 0/0
   980 ;;		Unchanged: 0/0
   981 ;; Data sizes:     COMRAM   BANK0   BANK1   BANK2   BANK3   BANK4   BANK5   BANK6   BANK7   BANK8   BANK9  BANK10  BANK1
      +1  BANK12  BANK13  BANK14
   982 ;;      Params:         0       0       0       0       0       0       0       0       0       0       0       0       
      +0       0       0       0
   983 ;;      Locals:         0       0       0       0       0       0       0       0       0       0       0       0       
      +0       0       0       0
   984 ;;      Temps:          0       0       0       0       0       0       0       0       0       0       0       0       
      +0       0       0       0
   985 ;;      Totals:         0       0       0       0       0       0       0       0       0       0       0       0       
      +0       0       0       0
   986 ;;Total ram usage:        0 bytes
   987 ;; Hardware stack levels used:    1
   988 ;; This function calls:
   989 ;;		Nothing
   990 ;; This function is called by:
   991 ;;		_SensorProxyInit
   992 ;; This function uses a non-reentrant model
   993 ;;
   994                           
   995                           	psect	text5
   996  001AEA                     __ptext5:
   997                           	opt stack 0
   998  001AEA                     _Sht11Init:
   999                           	opt stack 29
  1000                           
  1001                           ;sht.c: 33: ANCON0bits.PCFG0 = 1;
  1002                           
  1003                           ;incstack = 0
  1004  001AEA  010F               	movlb	15	; () banked
  1005  001AEC  8148               	bsf	72,0,b	;volatile
  1006                           
  1007                           ;sht.c: 34: ANCON0bits.PCFG1 = 1;
  1008  001AEE  010F               	movlb	15	; () banked
  1009  001AF0  8348               	bsf	72,1,b	;volatile
  1010                           
  1011                           ;sht.c: 35: LATAbits.LATA0 = 1;
  1012  001AF2  8089               	bsf	3977,0,c	;volatile
  1013                           
  1014                           ;sht.c: 36: TRISAbits.TRISA1 = 0;
  1015  001AF4  9292               	bcf	3986,1,c	;volatile
  1016                           
  1017                           ;sht.c: 37: TRISAbits.TRISA0 = 0;
  1018  001AF6  9092               	bcf	3986,0,c	;volatile
  1019                           
  1020                           ;sht.c: 38: LATAbits.LATA1 = 0;
  1021  001AF8  9289               	bcf	3977,1,c	;volatile
  1022                           
  1023                           ; BSR set to: 15
  1024  001AFA  0012               	return		;funcret
  1025  001AFC                     __end_of_Sht11Init:
  1026                           	opt stack 0
  1027                           tblptru	equ	0xFF8
  1028                           tblptrh	equ	0xFF7
  1029                           tblptrl	equ	0xFF6
  1030                           tablat	equ	0xFF5
  1031                           intcon	equ	0xFF2
  1032                           intcon2	equ	0xFF1
  1033                           postinc0	equ	0xFEE
  1034                           wreg	equ	0xFE8
  1035                           postdec1	equ	0xFE5
  1036                           fsr1l	equ	0xFE1
  1037                           
  1038 ;; *************** function _Co2D1Init *****************
  1039 ;; Defined at:
  1040 ;;		line 6 in file "co2-d1/co2-d1.c"
  1041 ;; Parameters:    Size  Location     Type
  1042 ;;		None
  1043 ;; Auto vars:     Size  Location     Type
  1044 ;;		None
  1045 ;; Return value:  Size  Location     Type
  1046 ;;		None               void
  1047 ;; Registers used:
  1048 ;;		wreg, status,2, cstack
  1049 ;; Tracked objects:
  1050 ;;		On entry : 0/0
  1051 ;;		On exit  : 0/0
  1052 ;;		Unchanged: 0/0
  1053 ;; Data sizes:     COMRAM   BANK0   BANK1   BANK2   BANK3   BANK4   BANK5   BANK6   BANK7   BANK8   BANK9  BANK10  BANK1
      +1  BANK12  BANK13  BANK14
  1054 ;;      Params:         0       0       0       0       0       0       0       0       0       0       0       0       
      +0       0       0       0
  1055 ;;      Locals:         0       0       0       0       0       0       0       0       0       0       0       0       
      +0       0       0       0
  1056 ;;      Temps:          0       0       0       0       0       0       0       0       0       0       0       0       
      +0       0       0       0
  1057 ;;      Totals:         0       0       0       0       0       0       0       0       0       0       0       0       
      +0       0       0       0
  1058 ;;Total ram usage:        0 bytes
  1059 ;; Hardware stack levels used:    1
  1060 ;; Hardware stack levels required when called:    1
  1061 ;; This function calls:
  1062 ;;		_AdcInit
  1063 ;;		_Co2D1InitIO
  1064 ;; This function is called by:
  1065 ;;		_SensorProxyInit
  1066 ;; This function uses a non-reentrant model
  1067 ;;
  1068                           
  1069                           	psect	text6
  1070  001BE0                     __ptext6:
  1071                           	opt stack 0
  1072  001BE0                     _Co2D1Init:
  1073                           	opt stack 28
  1074                           
  1075                           ;co2-d1.c: 7: AdcInit();
  1076                           
  1077                           ; BSR set to: 15
  1078                           ;incstack = 0
  1079  001BE0  EC26  F00D         	call	_AdcInit	;wreg free
  1080                           
  1081                           ;co2-d1.c: 8: Co2D1InitIO();
  1082  001BE4  ECB9  F00D         	call	_Co2D1InitIO	;wreg free
  1083  001BE8  0012               	return		;funcret
  1084  001BEA                     __end_of_Co2D1Init:
  1085                           	opt stack 0
  1086                           tblptru	equ	0xFF8
  1087                           tblptrh	equ	0xFF7
  1088                           tblptrl	equ	0xFF6
  1089                           tablat	equ	0xFF5
  1090                           intcon	equ	0xFF2
  1091                           intcon2	equ	0xFF1
  1092                           postinc0	equ	0xFEE
  1093                           wreg	equ	0xFE8
  1094                           postdec1	equ	0xFE5
  1095                           fsr1l	equ	0xFE1
  1096                           
  1097 ;; *************** function _Co2D1InitIO *****************
  1098 ;; Defined at:
  1099 ;;		line 16 in file "co2-d1/co2-d1.c"
  1100 ;; Parameters:    Size  Location     Type
  1101 ;;		None
  1102 ;; Auto vars:     Size  Location     Type
  1103 ;;		None
  1104 ;; Return value:  Size  Location     Type
  1105 ;;		None               void
  1106 ;; Registers used:
  1107 ;;		None
  1108 ;; Tracked objects:
  1109 ;;		On entry : 0/0
  1110 ;;		On exit  : 0/0
  1111 ;;		Unchanged: 0/0
  1112 ;; Data sizes:     COMRAM   BANK0   BANK1   BANK2   BANK3   BANK4   BANK5   BANK6   BANK7   BANK8   BANK9  BANK10  BANK1
      +1  BANK12  BANK13  BANK14
  1113 ;;      Params:         0       0       0       0       0       0       0       0       0       0       0       0       
      +0       0       0       0
  1114 ;;      Locals:         0       0       0       0       0       0       0       0       0       0       0       0       
      +0       0       0       0
  1115 ;;      Temps:          0       0       0       0       0       0       0       0       0       0       0       0       
      +0       0       0       0
  1116 ;;      Totals:         0       0       0       0       0       0       0       0       0       0       0       0       
      +0       0       0       0
  1117 ;;Total ram usage:        0 bytes
  1118 ;; Hardware stack levels used:    1
  1119 ;; This function calls:
  1120 ;;		Nothing
  1121 ;; This function is called by:
  1122 ;;		_Co2D1Init
  1123 ;; This function uses a non-reentrant model
  1124 ;;
  1125                           
  1126                           	psect	text7
  1127  001B72                     __ptext7:
  1128                           	opt stack 0
  1129  001B72                     _Co2D1InitIO:
  1130                           	opt stack 28
  1131                           
  1132                           ;co2-d1.c: 17: ANCON1bits.PCFG10 = 0;
  1133                           
  1134                           ;incstack = 0
  1135  001B72  010F               	movlb	15	; () banked
  1136  001B74  9549               	bcf	73,2,b	;volatile
  1137                           
  1138                           ;co2-d1.c: 18: TRISBbits.TRISB1 = 1;
  1139  001B76  8293               	bsf	3987,1,c	;volatile
  1140                           
  1141                           ;co2-d1.c: 19: ANCON1bits.PCFG9 = 0;
  1142  001B78  010F               	movlb	15	; () banked
  1143  001B7A  9349               	bcf	73,1,b	;volatile
  1144                           
  1145                           ;co2-d1.c: 20: TRISBbits.TRISB3 = 1;
  1146  001B7C  8693               	bsf	3987,3,c	;volatile
  1147                           
  1148                           ; BSR set to: 15
  1149  001B7E  0012               	return		;funcret
  1150  001B80                     __end_of_Co2D1InitIO:
  1151                           	opt stack 0
  1152                           tblptru	equ	0xFF8
  1153                           tblptrh	equ	0xFF7
  1154                           tblptrl	equ	0xFF6
  1155                           tablat	equ	0xFF5
  1156                           intcon	equ	0xFF2
  1157                           intcon2	equ	0xFF1
  1158                           postinc0	equ	0xFEE
  1159                           wreg	equ	0xFE8
  1160                           postdec1	equ	0xFE5
  1161                           fsr1l	equ	0xFE1
  1162                           
  1163 ;; *************** function _AdcInit *****************
  1164 ;; Defined at:
  1165 ;;		line 14 in file "adc/averaged_adc.c"
  1166 ;; Parameters:    Size  Location     Type
  1167 ;;		None
  1168 ;; Auto vars:     Size  Location     Type
  1169 ;;		None
  1170 ;; Return value:  Size  Location     Type
  1171 ;;		None               void
  1172 ;; Registers used:
  1173 ;;		wreg, status,2
  1174 ;; Tracked objects:
  1175 ;;		On entry : 0/0
  1176 ;;		On exit  : 0/0
  1177 ;;		Unchanged: 0/0
  1178 ;; Data sizes:     COMRAM   BANK0   BANK1   BANK2   BANK3   BANK4   BANK5   BANK6   BANK7   BANK8   BANK9  BANK10  BANK1
      +1  BANK12  BANK13  BANK14
  1179 ;;      Params:         0       0       0       0       0       0       0       0       0       0       0       0       
      +0       0       0       0
  1180 ;;      Locals:         0       0       0       0       0       0       0       0       0       0       0       0       
      +0       0       0       0
  1181 ;;      Temps:          0       0       0       0       0       0       0       0       0       0       0       0       
      +0       0       0       0
  1182 ;;      Totals:         0       0       0       0       0       0       0       0       0       0       0       0       
      +0       0       0       0
  1183 ;;Total ram usage:        0 bytes
  1184 ;; Hardware stack levels used:    1
  1185 ;; This function calls:
  1186 ;;		Nothing
  1187 ;; This function is called by:
  1188 ;;		_Co2D1Init
  1189 ;; This function uses a non-reentrant model
  1190 ;;
  1191                           
  1192                           	psect	text8
  1193  001A4C                     __ptext8:
  1194                           	opt stack 0
  1195  001A4C                     _AdcInit:
  1196                           	opt stack 28
  1197                           
  1198                           ;averaged_adc.c: 15: ADCON0bits.VCFG = 0;
  1199                           
  1200                           ; BSR set to: 15
  1201                           ;incstack = 0
  1202  001A4C  0E3F               	movlw	-193
  1203  001A4E  16C2               	andwf	4034,f,c	;volatile
  1204                           
  1205                           ;averaged_adc.c: 16: ADCON1bits.ADFM = 1;
  1206  001A50  8EC1               	bsf	4033,7,c	;volatile
  1207                           
  1208                           ;averaged_adc.c: 17: ADCON1bits.ACQT = 0;
  1209  001A52  96C1               	bcf	4033,3,c	;volatile
  1210  001A54  98C1               	bcf	4033,4,c	;volatile
  1211  001A56  9AC1               	bcf	4033,5,c	;volatile
  1212                           
  1213                           ;averaged_adc.c: 18: ADCON1bits.ADCS = 0;
  1214  001A58  90C1               	bcf	4033,0,c	;volatile
  1215  001A5A  92C1               	bcf	4033,1,c	;volatile
  1216  001A5C  94C1               	bcf	4033,2,c	;volatile
  1217                           
  1218                           ;averaged_adc.c: 19: ANCON1bits.VBGEN = 0;
  1219  001A5E  010F               	movlb	15	; () banked
  1220  001A60  9F49               	bcf	73,7,b	;volatile
  1221                           
  1222                           ; BSR set to: 15
  1223                           ;averaged_adc.c: 20: ANCON1bits.VBG2EN = 0;
  1224  001A62  010F               	movlb	15	; () banked
  1225  001A64  9D49               	bcf	73,6,b	;volatile
  1226                           
  1227                           ; BSR set to: 15
  1228                           ;averaged_adc.c: 21: ADCON0bits.ADON = 0;
  1229  001A66  90C2               	bcf	4034,0,c	;volatile
  1230                           
  1231                           ; BSR set to: 15
  1232  001A68  0012               	return		;funcret
  1233  001A6A                     __end_of_AdcInit:
  1234                           	opt stack 0
  1235                           tblptru	equ	0xFF8
  1236                           tblptrh	equ	0xFF7
  1237                           tblptrl	equ	0xFF6
  1238                           tablat	equ	0xFF5
  1239                           intcon	equ	0xFF2
  1240                           intcon2	equ	0xFF1
  1241                           postinc0	equ	0xFEE
  1242                           wreg	equ	0xFE8
  1243                           postdec1	equ	0xFE5
  1244                           fsr1l	equ	0xFE1
  1245                           
  1246 ;; *************** function _PowerDeepSleep *****************
  1247 ;; Defined at:
  1248 ;;		line 255 in file "power.c"
  1249 ;; Parameters:    Size  Location     Type
  1250 ;;		None
  1251 ;; Auto vars:     Size  Location     Type
  1252 ;;		None
  1253 ;; Return value:  Size  Location     Type
  1254 ;;		None               void
  1255 ;; Registers used:
  1256 ;;		wreg, status,2
  1257 ;; Tracked objects:
  1258 ;;		On entry : 0/0
  1259 ;;		On exit  : 0/0
  1260 ;;		Unchanged: 0/0
  1261 ;; Data sizes:     COMRAM   BANK0   BANK1   BANK2   BANK3   BANK4   BANK5   BANK6   BANK7   BANK8   BANK9  BANK10  BANK1
      +1  BANK12  BANK13  BANK14
  1262 ;;      Params:         0       0       0       0       0       0       0       0       0       0       0       0       
      +0       0       0       0
  1263 ;;      Locals:         0       0       0       0       0       0       0       0       0       0       0       0       
      +0       0       0       0
  1264 ;;      Temps:          0       0       0       0       0       0       0       0       0       0       0       0       
      +0       0       0       0
  1265 ;;      Totals:         0       0       0       0       0       0       0       0       0       0       0       0       
      +0       0       0       0
  1266 ;;Total ram usage:        0 bytes
  1267 ;; Hardware stack levels used:    1
  1268 ;; This function calls:
  1269 ;;		Nothing
  1270 ;; This function is called by:
  1271 ;;		_main
  1272 ;; This function uses a non-reentrant model
  1273 ;;
  1274                           
  1275                           	psect	text9
  1276  0019A6                     __ptext9:
  1277                           	opt stack 0
  1278  0019A6                     _PowerDeepSleep:
  1279                           	opt stack 30
  1280                           
  1281                           ;power.c: 256: DSWAKEL = 0;
  1282                           
  1283                           ; BSR set to: 15
  1284                           ;incstack = 0
  1285  0019A6  0E00               	movlw	0
  1286  0019A8  010F               	movlb	15	; () banked
  1287  0019AA  6F4A               	movwf	74,b	;volatile
  1288                           
  1289                           ;power.c: 257: DSWAKEH = 0;
  1290  0019AC  0E00               	movlw	0
  1291  0019AE  010F               	movlb	15	; () banked
  1292  0019B0  6F4B               	movwf	75,b	;volatile
  1293                           
  1294                           ; BSR set to: 15
  1295                           ;power.c: 259: RCONbits.PD = 0;
  1296  0019B2  94D0               	bcf	4048,2,c	;volatile
  1297                           
  1298                           ; BSR set to: 15
  1299                           ;power.c: 260: DSCONLbits.ULPWDIS = 0;
  1300  0019B4  010F               	movlb	15	; () banked
  1301  0019B6  954C               	bcf	76,2,b	;volatile
  1302                           
  1303                           ; BSR set to: 15
  1304                           ;power.c: 261: DSCONLbits.DSBOR = 0;
  1305  0019B8  010F               	movlb	15	; () banked
  1306  0019BA  934C               	bcf	76,1,b	;volatile
  1307                           
  1308                           ; BSR set to: 15
  1309                           ;power.c: 262: DSCONHbits.DSULPEN = 0;
  1310  0019BC  010F               	movlb	15	; () banked
  1311  0019BE  934D               	bcf	77,1,b	;volatile
  1312                           
  1313                           ; BSR set to: 15
  1314                           ;power.c: 263: DSCONHbits.RTCWDIS = 1;
  1315  0019C0  010F               	movlb	15	; () banked
  1316  0019C2  814D               	bsf	77,0,b	;volatile
  1317                           
  1318                           ; BSR set to: 15
  1319                           ;power.c: 264: WDTCONbits.DS = 0;
  1320  0019C4  96C0               	bcf	4032,3,c	;volatile
  1321                           
  1322                           ; BSR set to: 15
  1323                           ;power.c: 265: INTCONbits.GIE = 0;
  1324  0019C6  9EF2               	bcf	intcon,7,c	;volatile
  1325                           
  1326                           ; BSR set to: 15
  1327                           ;power.c: 266: WDTCONbits.SWDTEN = 0;
  1328  0019C8  90C0               	bcf	4032,0,c	;volatile
  1329                           
  1330                           ; BSR set to: 15
  1331                           ;power.c: 267: WDTCONbits.REGSLP = 1;
  1332  0019CA  8EC0               	bsf	4032,7,c	;volatile
  1333                           
  1334                           ; BSR set to: 15
  1335                           ;power.c: 268: OSCCONbits.IDLEN = 0;
  1336  0019CC  9ED3               	bcf	4051,7,c	;volatile
  1337                           
  1338                           ; BSR set to: 15
  1339                           ;power.c: 269: DSCONHbits.DSEN = 1;
  1340  0019CE  010F               	movlb	15	; () banked
  1341  0019D0  8F4D               	bsf	77,7,b	;volatile
  1342  0019D2  0003               	sleep		;# 
  1343  0019D4  0012               	return		;funcret
  1344  0019D6                     __end_of_PowerDeepSleep:
  1345                           	opt stack 0
  1346                           tblptru	equ	0xFF8
  1347                           tblptrh	equ	0xFF7
  1348                           tblptrl	equ	0xFF6
  1349                           tablat	equ	0xFF5
  1350                           intcon	equ	0xFF2
  1351                           intcon2	equ	0xFF1
  1352                           postinc0	equ	0xFEE
  1353                           wreg	equ	0xFE8
  1354                           postdec1	equ	0xFE5
  1355                           fsr1l	equ	0xFE1
  1356                           
  1357 ;; *************** function _OnWakeUp *****************
  1358 ;; Defined at:
  1359 ;;		line 28 in file "opController.c"
  1360 ;; Parameters:    Size  Location     Type
  1361 ;;		None
  1362 ;; Auto vars:     Size  Location     Type
  1363 ;;		None
  1364 ;; Return value:  Size  Location     Type
  1365 ;;		None               void
  1366 ;; Registers used:
  1367 ;;		wreg, fsr1l, fsr1h, fsr2l, fsr2h, status,2, status,0, tblptrl, tblptrh, tblptru, prodl, prodh, cstack
  1368 ;; Tracked objects:
  1369 ;;		On entry : 0/0
  1370 ;;		On exit  : 0/0
  1371 ;;		Unchanged: 0/0
  1372 ;; Data sizes:     COMRAM   BANK0   BANK1   BANK2   BANK3   BANK4   BANK5   BANK6   BANK7   BANK8   BANK9  BANK10  BANK1
      +1  BANK12  BANK13  BANK14
  1373 ;;      Params:         0       0       0       0       0       0       0       0       0       0       0       0       
      +0       0       0       0
  1374 ;;      Locals:         0       0       0       0       0       0       0       0       0       0       0       0       
      +0       0       0       0
  1375 ;;      Temps:          0       0       0       0       0       0       0       0       0       0       0       0       
      +0       0       0       0
  1376 ;;      Totals:         0       0       0       0       0       0       0       0       0       0       0       0       
      +0       0       0       0
  1377 ;;Total ram usage:        0 bytes
  1378 ;; Hardware stack levels used:    1
  1379 ;; Hardware stack levels required when called:    5
  1380 ;; This function calls:
  1381 ;;		_ClearDSWakeUpFlags
  1382 ;;		_ClearNetworkInterrupt
  1383 ;;		_MeasureSensors
  1384 ;;		_SendMeasures
  1385 ;; This function is called by:
  1386 ;;		_main
  1387 ;; This function uses a non-reentrant model
  1388 ;;
  1389                           
  1390                           	psect	text10
  1391  001AFC                     __ptext10:
  1392                           	opt stack 0
  1393  001AFC                     _OnWakeUp:
  1394                           	opt stack 25
  1395                           
  1396                           ;opController.c: 30: ClearDSWakeUpFlags();
  1397                           
  1398                           ;incstack = 0
  1399  001AFC  ECD4  F00D         	call	_ClearDSWakeUpFlags	;wreg free
  1400                           
  1401                           ;opController.c: 32: ClearNetworkInterrupt();
  1402  001B00  EC08  F00E         	call	_ClearNetworkInterrupt	;wreg free
  1403                           
  1404                           ;opController.c: 34: MeasureSensors();
  1405  001B04  EC02  F00D         	call	_MeasureSensors	;wreg free
  1406                           
  1407                           ;opController.c: 36: SendMeasures();
  1408  001B08  EC88  F007         	call	_SendMeasures	;wreg free
  1409  001B0C  0012               	return		;funcret
  1410  001B0E                     __end_of_OnWakeUp:
  1411                           	opt stack 0
  1412                           tblptru	equ	0xFF8
  1413                           tblptrh	equ	0xFF7
  1414                           tblptrl	equ	0xFF6
  1415                           tablat	equ	0xFF5
  1416                           intcon	equ	0xFF2
  1417                           intcon2	equ	0xFF1
  1418                           postinc0	equ	0xFEE
  1419                           wreg	equ	0xFE8
  1420                           postdec1	equ	0xFE5
  1421                           fsr1l	equ	0xFE1
  1422                           
  1423 ;; *************** function _SendMeasures *****************
  1424 ;; Defined at:
  1425 ;;		line 24 in file "network_proxy.c"
  1426 ;; Parameters:    Size  Location     Type
  1427 ;;		None
  1428 ;; Auto vars:     Size  Location     Type
  1429 ;;  packet        125    0[BANK1 ] struct XBeePacket
  1430 ;;  payload       101  125[BANK1 ] struct Payload
  1431 ;; Return value:  Size  Location     Type
  1432 ;;		None               void
  1433 ;; Registers used:
  1434 ;;		wreg, fsr1l, fsr1h, fsr2l, fsr2h, status,2, status,0, tblptrl, tblptrh, tblptru, prodl, prodh, cstack
  1435 ;; Tracked objects:
  1436 ;;		On entry : 0/0
  1437 ;;		On exit  : 0/0
  1438 ;;		Unchanged: 0/0
  1439 ;; Data sizes:     COMRAM   BANK0   BANK1   BANK2   BANK3   BANK4   BANK5   BANK6   BANK7   BANK8   BANK9  BANK10  BANK1
      +1  BANK12  BANK13  BANK14
  1440 ;;      Params:         0       0       0       0       0       0       0       0       0       0       0       0       
      +0       0       0       0
  1441 ;;      Locals:         0       0     226       0       0       0       0       0       0       0       0       0       
      +0       0       0       0
  1442 ;;      Temps:          0       0       0       0       0       0       0       0       0       0       0       0       
      +0       0       0       0
  1443 ;;      Totals:         0       0     226       0       0       0       0       0       0       0       0       0       
      +0       0       0       0
  1444 ;;Total ram usage:      226 bytes
  1445 ;; Hardware stack levels used:    1
  1446 ;; Hardware stack levels required when called:    2
  1447 ;; This function calls:
  1448 ;;		_PayloadInit
  1449 ;;		_PayloadPutByte
  1450 ;;		_PayloadPutString
  1451 ;;		_PayloadPutWord
  1452 ;;		_XBeeCreatePacket
  1453 ;;		_XBeeCreateTransmitRequestPacket
  1454 ;;		_XBeeSendPacket
  1455 ;; This function is called by:
  1456 ;;		_OnWakeUp
  1457 ;; This function uses a non-reentrant model
  1458 ;;
  1459                           
  1460                           	psect	text11
  1461  000F10                     __ptext11:
  1462                           	opt stack 0
  1463  000F10                     _SendMeasures:
  1464                           	opt stack 27
  1465                           
  1466                           ;network_proxy.c: 25: XBeePacket packet;
  1467                           ;network_proxy.c: 26: Payload payload;
  1468                           ;network_proxy.c: 27: XBeeCreatePacket(&packet);
  1469                           
  1470                           ;incstack = 0
  1471  000F10  0E00               	movlw	low SendMeasures@packet
  1472  000F12  6E09               	movwf	XBeeCreatePacket@packet,c
  1473  000F14  0E01               	movlw	high SendMeasures@packet
  1474  000F16  6E0A               	movwf	XBeeCreatePacket@packet+1,c
  1475  000F18  ECEC  F009         	call	_XBeeCreatePacket	;wreg free
  1476                           
  1477                           ;network_proxy.c: 28: PayloadInit(&payload);
  1478  000F1C  0E7D               	movlw	low SendMeasures@payload
  1479  000F1E  6E01               	movwf	PayloadInit@payload,c
  1480  000F20  0E01               	movlw	high SendMeasures@payload
  1481  000F22  6E02               	movwf	PayloadInit@payload+1,c
  1482  000F24  ECA1  F00C         	call	_PayloadInit	;wreg free
  1483                           
  1484                           ;network_proxy.c: 29: PayloadPutByte(&payload, 1);
  1485  000F28  0E7D               	movlw	low SendMeasures@payload
  1486  000F2A  6E01               	movwf	PayloadPutByte@payload,c
  1487  000F2C  0E01               	movlw	high SendMeasures@payload
  1488  000F2E  6E02               	movwf	PayloadPutByte@payload+1,c
  1489  000F30  0E01               	movlw	1
  1490  000F32  6E03               	movwf	PayloadPutByte@element,c
  1491  000F34  ECB4  F00B         	call	_PayloadPutByte	;wreg free
  1492                           
  1493                           ;network_proxy.c: 30: PayloadPutByte(&payload, sizeof(SENSORS));
  1494  000F38  0E7D               	movlw	low SendMeasures@payload
  1495  000F3A  6E01               	movwf	PayloadPutByte@payload,c
  1496  000F3C  0E01               	movlw	high SendMeasures@payload
  1497  000F3E  6E02               	movwf	PayloadPutByte@payload+1,c
  1498  000F40  0E02               	movlw	2
  1499  000F42  6E03               	movwf	PayloadPutByte@element,c
  1500  000F44  ECB4  F00B         	call	_PayloadPutByte	;wreg free
  1501                           
  1502                           ;network_proxy.c: 31: PayloadPutString(&payload, SENSORS);
  1503  000F48  0E7D               	movlw	low SendMeasures@payload
  1504  000F4A  6E09               	movwf	PayloadPutString@payload,c
  1505  000F4C  0E01               	movlw	high SendMeasures@payload
  1506  000F4E  6E0A               	movwf	PayloadPutString@payload+1,c
  1507  000F50  0E0D               	movlw	low _SENSORS
  1508  000F52  6E0B               	movwf	PayloadPutString@string,c
  1509  000F54  0E0F               	movlw	high _SENSORS
  1510  000F56  6E0C               	movwf	PayloadPutString@string+1,c
  1511  000F58  EC8B  F00B         	call	_PayloadPutString	;wreg free
  1512                           
  1513                           ;network_proxy.c: 32: PayloadPutWord(&payload, shtData.temperature.i);
  1514  000F5C  0E7D               	movlw	low SendMeasures@payload
  1515  000F5E  6E01               	movwf	PayloadPutWord@payload,c
  1516  000F60  0E01               	movlw	high SendMeasures@payload
  1517  000F62  6E02               	movwf	PayloadPutWord@payload+1,c
  1518  000F64  C012  F003         	movff	_shtData,PayloadPutWord@element
  1519  000F68  C013  F004         	movff	_shtData+1,PayloadPutWord@element+1
  1520  000F6C  EC2F  F00A         	call	_PayloadPutWord	;wreg free
  1521                           
  1522                           ;network_proxy.c: 33: PayloadPutWord(&payload, shtData.humidity.i);
  1523  000F70  0E7D               	movlw	low SendMeasures@payload
  1524  000F72  6E01               	movwf	PayloadPutWord@payload,c
  1525  000F74  0E01               	movlw	high SendMeasures@payload
  1526  000F76  6E02               	movwf	PayloadPutWord@payload+1,c
  1527  000F78  C014  F003         	movff	_shtData+2,PayloadPutWord@element
  1528  000F7C  C015  F004         	movff	_shtData+3,PayloadPutWord@element+1
  1529  000F80  EC2F  F00A         	call	_PayloadPutWord	;wreg free
  1530                           
  1531                           ;network_proxy.c: 34: PayloadPutWord(&payload, co2d1Data.co2sense);
  1532  000F84  0E7D               	movlw	low SendMeasures@payload
  1533  000F86  6E01               	movwf	PayloadPutWord@payload,c
  1534  000F88  0E01               	movlw	high SendMeasures@payload
  1535  000F8A  6E02               	movwf	PayloadPutWord@payload+1,c
  1536  000F8C  C01A  F003         	movff	_co2d1Data+2,PayloadPutWord@element
  1537  000F90  C01B  F004         	movff	_co2d1Data+3,PayloadPutWord@element+1
  1538  000F94  EC2F  F00A         	call	_PayloadPutWord	;wreg free
  1539                           
  1540                           ;network_proxy.c: 35: PayloadPutWord(&payload, co2d1Data.co2ref);
  1541  000F98  0E7D               	movlw	low SendMeasures@payload
  1542  000F9A  6E01               	movwf	PayloadPutWord@payload,c
  1543  000F9C  0E01               	movlw	high SendMeasures@payload
  1544  000F9E  6E02               	movwf	PayloadPutWord@payload+1,c
  1545  000FA0  C018  F003         	movff	_co2d1Data,PayloadPutWord@element
  1546  000FA4  C019  F004         	movff	_co2d1Data+1,PayloadPutWord@element+1
  1547  000FA8  EC2F  F00A         	call	_PayloadPutWord	;wreg free
  1548                           
  1549                           ;network_proxy.c: 36: PayloadPutWord(&payload, shtData.temperature.i);
  1550  000FAC  0E7D               	movlw	low SendMeasures@payload
  1551  000FAE  6E01               	movwf	PayloadPutWord@payload,c
  1552  000FB0  0E01               	movlw	high SendMeasures@payload
  1553  000FB2  6E02               	movwf	PayloadPutWord@payload+1,c
  1554  000FB4  C012  F003         	movff	_shtData,PayloadPutWord@element
  1555  000FB8  C013  F004         	movff	_shtData+1,PayloadPutWord@element+1
  1556  000FBC  EC2F  F00A         	call	_PayloadPutWord	;wreg free
  1557                           
  1558                           ;network_proxy.c: 37: PayloadPutWord(&payload, CO2OFFSET);
  1559  000FC0  0E7D               	movlw	low SendMeasures@payload
  1560  000FC2  6E01               	movwf	PayloadPutWord@payload,c
  1561  000FC4  0E01               	movlw	high SendMeasures@payload
  1562  000FC6  6E02               	movwf	PayloadPutWord@payload+1,c
  1563  000FC8  0E01               	movlw	low _CO2OFFSET
  1564  000FCA  6EF6               	movwf	tblptrl,c
  1565  000FCC                     	if	1	;There is more than 1 active tblptr byte
  1566  000FCC  0E0F               	movlw	high _CO2OFFSET
  1567  000FCE  6EF7               	movwf	tblptrh,c
  1568  000FD0                     	endif
  1569  000FD0                     	if	0	;There are less than 3 active tblptr bytes
  1570  000FD0                     	endif
  1571  000FD0  0009               	tblrd		*+
  1572  000FD2  CFF5 F003          	movff	tablat,PayloadPutWord@element
  1573  000FD6  000A               	tblrd		*-
  1574  000FD8  CFF5 F004          	movff	tablat,PayloadPutWord@element+1
  1575  000FDC  EC2F  F00A         	call	_PayloadPutWord	;wreg free
  1576                           
  1577                           ;network_proxy.c: 38: XBeeCreateTransmitRequestPacket(&packet, 0x06, (uint8_t*) COORDINA
      +                          TOR_ADDRESS,
  1578                           ;network_proxy.c: 39: BROADCAST_RADIUS, TRANSMIT_OPTIONS, payload.data, payload.size);
  1579  000FE0  0E00               	movlw	low SendMeasures@packet
  1580  000FE2  6E01               	movwf	XBeeCreateTransmitRequestPacket@packet,c
  1581  000FE4  0E01               	movlw	high SendMeasures@packet
  1582  000FE6  6E02               	movwf	XBeeCreateTransmitRequestPacket@packet+1,c
  1583  000FE8  0E06               	movlw	6
  1584  000FEA  6E03               	movwf	XBeeCreateTransmitRequestPacket@frameId,c
  1585  000FEC  0E05               	movlw	low _COORDINATOR_ADDRESS
  1586  000FEE  6E04               	movwf	XBeeCreateTransmitRequestPacket@destinationAddress,c
  1587  000FF0  0E0F               	movlw	high _COORDINATOR_ADDRESS
  1588  000FF2  6E05               	movwf	XBeeCreateTransmitRequestPacket@destinationAddress+1,c
  1589  000FF4  0E03               	movlw	low _BROADCAST_RADIUS
  1590  000FF6  6EF6               	movwf	tblptrl,c
  1591  000FF8                     	if	1	;There is more than 1 active tblptr byte
  1592  000FF8  0E0F               	movlw	high _BROADCAST_RADIUS
  1593  000FFA  6EF7               	movwf	tblptrh,c
  1594  000FFC                     	endif
  1595  000FFC                     	if	0	;There are less than 3 active tblptr bytes
  1596  000FFC                     	endif
  1597  000FFC  0008               	tblrd		*
  1598  000FFE  CFF5 F006          	movff	tablat,XBeeCreateTransmitRequestPacket@radius
  1599  001002  0E04               	movlw	low _TRANSMIT_OPTIONS
  1600  001004  6EF6               	movwf	tblptrl,c
  1601  001006                     	if	1	;There is more than 1 active tblptr byte
  1602  001006  0E0F               	movlw	high _TRANSMIT_OPTIONS
  1603  001008  6EF7               	movwf	tblptrh,c
  1604  00100A                     	endif
  1605  00100A                     	if	0	;There are less than 3 active tblptr bytes
  1606  00100A                     	endif
  1607  00100A  0008               	tblrd		*
  1608  00100C  CFF5 F007          	movff	tablat,XBeeCreateTransmitRequestPacket@options
  1609  001010  0E7D               	movlw	low SendMeasures@payload
  1610  001012  6E08               	movwf	XBeeCreateTransmitRequestPacket@payload,c
  1611  001014  0E01               	movlw	high SendMeasures@payload
  1612  001016  6E09               	movwf	XBeeCreateTransmitRequestPacket@payload+1,c
  1613  001018  C1E1  F00A         	movff	SendMeasures@payload+100,XBeeCreateTransmitRequestPacket@dataLength
  1614  00101C  EC17  F008         	call	_XBeeCreateTransmitRequestPacket	;wreg free
  1615                           
  1616                           ;network_proxy.c: 40: XBeeSendPacket(&packet);
  1617  001020  0E00               	movlw	low SendMeasures@packet
  1618  001022  6E02               	movwf	XBeeSendPacket@packet,c
  1619  001024  0E01               	movlw	high SendMeasures@packet
  1620  001026  6E03               	movwf	XBeeSendPacket@packet+1,c
  1621  001028  EC96  F008         	call	_XBeeSendPacket	;wreg free
  1622  00102C  0012               	return		;funcret
  1623  00102E                     __end_of_SendMeasures:
  1624                           	opt stack 0
  1625                           tblptru	equ	0xFF8
  1626                           tblptrh	equ	0xFF7
  1627                           tblptrl	equ	0xFF6
  1628                           tablat	equ	0xFF5
  1629                           intcon	equ	0xFF2
  1630                           intcon2	equ	0xFF1
  1631                           postinc0	equ	0xFEE
  1632                           wreg	equ	0xFE8
  1633                           postdec1	equ	0xFE5
  1634                           fsr1l	equ	0xFE1
  1635                           
  1636 ;; *************** function _XBeeCreateTransmitRequestPacket *****************
  1637 ;; Defined at:
  1638 ;;		line 22 in file "xbee/digi_transmit_request.c"
  1639 ;; Parameters:    Size  Location     Type
  1640 ;;  packet          2    0[COMRAM] PTR struct XBeePacket
  1641 ;;		 -> SendMeasures@packet(125), 
  1642 ;;  frameId         1    2[COMRAM] unsigned char 
  1643 ;;  destinationA    2    3[COMRAM] PTR unsigned char 
  1644 ;;		 -> COORDINATOR_ADDRESS(8), 
  1645 ;;  radius          1    5[COMRAM] unsigned char 
  1646 ;;  options         1    6[COMRAM] unsigned char 
  1647 ;;  payload         2    7[COMRAM] PTR unsigned char 
  1648 ;;		 -> SendMeasures@payload(101), 
  1649 ;;  dataLength      1    9[COMRAM] unsigned char 
  1650 ;; Auto vars:     Size  Location     Type
  1651 ;;  p               2   13[COMRAM] PTR unsigned char 
  1652 ;;		 -> packet.frame.reserved(2), packet.frame.payload(97), packet.frame.destinationAddress(8), XBeeCreateTransmitReques
      +tPacket@packet.frame(116), 
  1653 ;;  i               1   12[COMRAM] unsigned char 
  1654 ;; Return value:  Size  Location     Type
  1655 ;;		None               void
  1656 ;; Registers used:
  1657 ;;		wreg, fsr1l, fsr1h, fsr2l, fsr2h, status,2, status,0, tblptrl, tblptrh, tblptru
  1658 ;; Tracked objects:
  1659 ;;		On entry : 0/0
  1660 ;;		On exit  : 0/0
  1661 ;;		Unchanged: 0/0
  1662 ;; Data sizes:     COMRAM   BANK0   BANK1   BANK2   BANK3   BANK4   BANK5   BANK6   BANK7   BANK8   BANK9  BANK10  BANK1
      +1  BANK12  BANK13  BANK14
  1663 ;;      Params:        10       0       0       0       0       0       0       0       0       0       0       0       
      +0       0       0       0
  1664 ;;      Locals:         3       0       0       0       0       0       0       0       0       0       0       0       
      +0       0       0       0
  1665 ;;      Temps:          2       0       0       0       0       0       0       0       0       0       0       0       
      +0       0       0       0
  1666 ;;      Totals:        15       0       0       0       0       0       0       0       0       0       0       0       
      +0       0       0       0
  1667 ;;Total ram usage:       15 bytes
  1668 ;; Hardware stack levels used:    1
  1669 ;; This function calls:
  1670 ;;		Nothing
  1671 ;; This function is called by:
  1672 ;;		_SendMeasures
  1673 ;; This function uses a non-reentrant model
  1674 ;;
  1675                           
  1676                           	psect	text12
  1677  00102E                     __ptext12:
  1678                           	opt stack 0
  1679  00102E                     _XBeeCreateTransmitRequestPacket:
  1680                           	opt stack 28
  1681                           
  1682                           ;digi_transmit_request.c: 25: uint8_t* p = packet->frame.transmitRequest.destinationAddr
      +                          ess;
  1683                           
  1684                           ;incstack = 0
  1685  00102E  0E02               	movlw	2
  1686  001030  2401               	addwf	XBeeCreateTransmitRequestPacket@packet,w,c
  1687  001032  6E0E               	movwf	XBeeCreateTransmitRequestPacket@p,c
  1688  001034  0E00               	movlw	0
  1689  001036  2002               	addwfc	XBeeCreateTransmitRequestPacket@packet+1,w,c
  1690  001038  6E0F               	movwf	XBeeCreateTransmitRequestPacket@p+1,c
  1691                           
  1692                           ;digi_transmit_request.c: 26: uint8_t i = 0x08;
  1693  00103A  0E08               	movlw	8
  1694  00103C  6E0D               	movwf	XBeeCreateTransmitRequestPacket@i,c
  1695                           
  1696                           ;digi_transmit_request.c: 27: while (i--) {
  1697  00103E  D010               	goto	l2203
  1698  001040                     l2197:
  1699                           
  1700                           ;digi_transmit_request.c: 28: *p++ = *destinationAddress++;
  1701  001040  C004  FFF6         	movff	XBeeCreateTransmitRequestPacket@destinationAddress,tblptrl
  1702  001044  C005  FFF7         	movff	XBeeCreateTransmitRequestPacket@destinationAddress+1,tblptrh
  1703  001048                     	if	0	;tblptru may be non-zero
  1704  001048                     	endif
  1705  001048                     	if	0	;tblptru may be non-zero
  1706  001048                     	endif
  1707  001048  C00E  FFD9         	movff	XBeeCreateTransmitRequestPacket@p,fsr2l
  1708  00104C  C00F  FFDA         	movff	XBeeCreateTransmitRequestPacket@p+1,fsr2h
  1709  001050  0008               	tblrd		*
  1710  001052  CFF5 FFDF          	movff	tablat,indf2
  1711  001056  4A04               	infsnz	XBeeCreateTransmitRequestPacket@destinationAddress,f,c
  1712  001058  2A05               	incf	XBeeCreateTransmitRequestPacket@destinationAddress+1,f,c
  1713  00105A  4A0E               	infsnz	XBeeCreateTransmitRequestPacket@p,f,c
  1714  00105C  2A0F               	incf	XBeeCreateTransmitRequestPacket@p+1,f,c
  1715  00105E  D000               	goto	l2203
  1716  001060                     l2203:
  1717  001060  060D               	decf	XBeeCreateTransmitRequestPacket@i,f,c
  1718  001062  280D               	incf	XBeeCreateTransmitRequestPacket@i,w,c
  1719  001064  A4D8               	btfss	status,2,c
  1720  001066  D7EC               	goto	l2197
  1721                           
  1722                           ;digi_transmit_request.c: 29: }
  1723                           ;digi_transmit_request.c: 30: p = packet->frame.transmitRequest.payload;
  1724  001068  0E0E               	movlw	14
  1725  00106A  2401               	addwf	XBeeCreateTransmitRequestPacket@packet,w,c
  1726  00106C  6E0E               	movwf	XBeeCreateTransmitRequestPacket@p,c
  1727  00106E  0E00               	movlw	0
  1728  001070  2002               	addwfc	XBeeCreateTransmitRequestPacket@packet+1,w,c
  1729  001072  6E0F               	movwf	XBeeCreateTransmitRequestPacket@p+1,c
  1730                           
  1731                           ;digi_transmit_request.c: 31: i = dataLength;
  1732  001074  C00A  F00D         	movff	XBeeCreateTransmitRequestPacket@dataLength,XBeeCreateTransmitRequestPacket@i
  1733                           
  1734                           ;digi_transmit_request.c: 32: while (i--) {
  1735  001078  D00F               	goto	l2215
  1736  00107A                     l2209:
  1737                           
  1738                           ;digi_transmit_request.c: 33: *p++ = *payload++;
  1739  00107A  C008  FFD9         	movff	XBeeCreateTransmitRequestPacket@payload,fsr2l
  1740  00107E  C009  FFDA         	movff	XBeeCreateTransmitRequestPacket@payload+1,fsr2h
  1741  001082  C00E  FFE1         	movff	XBeeCreateTransmitRequestPacket@p,fsr1l
  1742  001086  C00F  FFE2         	movff	XBeeCreateTransmitRequestPacket@p+1,fsr1h
  1743  00108A  CFDF FFE7          	movff	indf2,indf1
  1744  00108E  4A08               	infsnz	XBeeCreateTransmitRequestPacket@payload,f,c
  1745  001090  2A09               	incf	XBeeCreateTransmitRequestPacket@payload+1,f,c
  1746  001092  4A0E               	infsnz	XBeeCreateTransmitRequestPacket@p,f,c
  1747  001094  2A0F               	incf	XBeeCreateTransmitRequestPacket@p+1,f,c
  1748  001096  D000               	goto	l2215
  1749  001098                     l2215:
  1750  001098  060D               	decf	XBeeCreateTransmitRequestPacket@i,f,c
  1751  00109A  280D               	incf	XBeeCreateTransmitRequestPacket@i,w,c
  1752  00109C  A4D8               	btfss	status,2,c
  1753  00109E  D7ED               	goto	l2209
  1754                           
  1755                           ;digi_transmit_request.c: 34: }
  1756                           ;digi_transmit_request.c: 35: p = packet->frame.transmitRequest.reserved;
  1757  0010A0  0E0A               	movlw	10
  1758  0010A2  2401               	addwf	XBeeCreateTransmitRequestPacket@packet,w,c
  1759  0010A4  6E0E               	movwf	XBeeCreateTransmitRequestPacket@p,c
  1760  0010A6  0E00               	movlw	0
  1761  0010A8  2002               	addwfc	XBeeCreateTransmitRequestPacket@packet+1,w,c
  1762  0010AA  6E0F               	movwf	XBeeCreateTransmitRequestPacket@p+1,c
  1763                           
  1764                           ;digi_transmit_request.c: 36: *p++ = 0xFF;
  1765  0010AC  C00E  FFD9         	movff	XBeeCreateTransmitRequestPacket@p,fsr2l
  1766  0010B0  C00F  FFDA         	movff	XBeeCreateTransmitRequestPacket@p+1,fsr2h
  1767  0010B4  0EFF               	movlw	255
  1768  0010B6  6EDF               	movwf	indf2,c
  1769  0010B8  4A0E               	infsnz	XBeeCreateTransmitRequestPacket@p,f,c
  1770  0010BA  2A0F               	incf	XBeeCreateTransmitRequestPacket@p+1,f,c
  1771                           
  1772                           ;digi_transmit_request.c: 37: *p++ = 0xFE;
  1773  0010BC  C00E  FFD9         	movff	XBeeCreateTransmitRequestPacket@p,fsr2l
  1774  0010C0  C00F  FFDA         	movff	XBeeCreateTransmitRequestPacket@p+1,fsr2h
  1775  0010C4  0EFE               	movlw	254
  1776  0010C6  6EDF               	movwf	indf2,c
  1777  0010C8  4A0E               	infsnz	XBeeCreateTransmitRequestPacket@p,f,c
  1778  0010CA  2A0F               	incf	XBeeCreateTransmitRequestPacket@p+1,f,c
  1779                           
  1780                           ;digi_transmit_request.c: 38: packet->frame.transmitRequest.bcastRadius = radius;
  1781  0010CC  EE20 F00C          	lfsr	2,12
  1782  0010D0  5001               	movf	XBeeCreateTransmitRequestPacket@packet,w,c
  1783  0010D2  26D9               	addwf	fsr2l,f,c
  1784  0010D4  5002               	movf	XBeeCreateTransmitRequestPacket@packet+1,w,c
  1785  0010D6  22DA               	addwfc	fsr2h,f,c
  1786  0010D8  C006  FFDF         	movff	XBeeCreateTransmitRequestPacket@radius,indf2
  1787                           
  1788                           ;digi_transmit_request.c: 39: packet->frame.transmitRequest.options = options;
  1789  0010DC  EE20 F00D          	lfsr	2,13
  1790  0010E0  5001               	movf	XBeeCreateTransmitRequestPacket@packet,w,c
  1791  0010E2  26D9               	addwf	fsr2l,f,c
  1792  0010E4  5002               	movf	XBeeCreateTransmitRequestPacket@packet+1,w,c
  1793  0010E6  22DA               	addwfc	fsr2h,f,c
  1794  0010E8  C007  FFDF         	movff	XBeeCreateTransmitRequestPacket@options,indf2
  1795                           
  1796                           ;digi_transmit_request.c: 40: packet->apiId = TRANSMIT_REQUEST;
  1797  0010EC  C001  FFD9         	movff	XBeeCreateTransmitRequestPacket@packet,fsr2l
  1798  0010F0  C002  FFDA         	movff	XBeeCreateTransmitRequestPacket@packet+1,fsr2h
  1799  0010F4  0E10               	movlw	16
  1800  0010F6  6EDF               	movwf	indf2,c
  1801                           
  1802                           ;digi_transmit_request.c: 41: packet->frame.transmitRequest.frameId = frameId;
  1803  0010F8  EE20 F001          	lfsr	2,1
  1804  0010FC  5001               	movf	XBeeCreateTransmitRequestPacket@packet,w,c
  1805  0010FE  26D9               	addwf	fsr2l,f,c
  1806  001100  5002               	movf	XBeeCreateTransmitRequestPacket@packet+1,w,c
  1807  001102  22DA               	addwfc	fsr2h,f,c
  1808  001104  C003  FFDF         	movff	XBeeCreateTransmitRequestPacket@frameId,indf2
  1809                           
  1810                           ;digi_transmit_request.c: 42: packet->length = 0x0E + dataLength;
  1811  001108  500A               	movf	XBeeCreateTransmitRequestPacket@dataLength,w,c
  1812  00110A  6E0B               	movwf	??_XBeeCreateTransmitRequestPacket& (0+255),c
  1813  00110C  6A0C               	clrf	(??_XBeeCreateTransmitRequestPacket+1)& (0+255),c
  1814  00110E  0E0E               	movlw	14
  1815  001110  260B               	addwf	??_XBeeCreateTransmitRequestPacket,f,c
  1816  001112  0E00               	movlw	0
  1817  001114  220C               	addwfc	??_XBeeCreateTransmitRequestPacket+1,f,c
  1818  001116  EE20 F075          	lfsr	2,117
  1819  00111A  5001               	movf	XBeeCreateTransmitRequestPacket@packet,w,c
  1820  00111C  26D9               	addwf	fsr2l,f,c
  1821  00111E  5002               	movf	XBeeCreateTransmitRequestPacket@packet+1,w,c
  1822  001120  22DA               	addwfc	fsr2h,f,c
  1823  001122  C00B  FFDE         	movff	??_XBeeCreateTransmitRequestPacket,postinc2
  1824  001126  C00C  FFDD         	movff	??_XBeeCreateTransmitRequestPacket+1,postdec2
  1825  00112A  0012               	return		;funcret
  1826  00112C                     __end_of_XBeeCreateTransmitRequestPacket:
  1827                           	opt stack 0
  1828                           tblptru	equ	0xFF8
  1829                           tblptrh	equ	0xFF7
  1830                           tblptrl	equ	0xFF6
  1831                           tablat	equ	0xFF5
  1832                           intcon	equ	0xFF2
  1833                           intcon2	equ	0xFF1
  1834                           postinc0	equ	0xFEE
  1835                           wreg	equ	0xFE8
  1836                           indf1	equ	0xFE7
  1837                           postdec1	equ	0xFE5
  1838                           fsr1h	equ	0xFE2
  1839                           fsr1l	equ	0xFE1
  1840                           indf2	equ	0xFDF
  1841                           postinc2	equ	0xFDE
  1842                           postdec2	equ	0xFDD
  1843                           fsr2h	equ	0xFDA
  1844                           fsr2l	equ	0xFD9
  1845                           status	equ	0xFD8
  1846                           
  1847 ;; *************** function _PayloadPutWord *****************
  1848 ;; Defined at:
  1849 ;;		line 46 in file "xbee/payload.c"
  1850 ;; Parameters:    Size  Location     Type
  1851 ;;  payload         2    0[COMRAM] PTR struct Payload
  1852 ;;		 -> SendMeasures@payload(101), 
  1853 ;;  element         2    2[COMRAM] const unsigned int 
  1854 ;; Auto vars:     Size  Location     Type
  1855 ;;  msb             1    6[COMRAM] unsigned char 
  1856 ;;  lsb             1    5[COMRAM] unsigned char 
  1857 ;; Return value:  Size  Location     Type
  1858 ;;		None               void
  1859 ;; Registers used:
  1860 ;;		wreg, fsr2l, fsr2h, status,2, status,0, prodl, prodh
  1861 ;; Tracked objects:
  1862 ;;		On entry : 0/0
  1863 ;;		On exit  : 0/0
  1864 ;;		Unchanged: 0/0
  1865 ;; Data sizes:     COMRAM   BANK0   BANK1   BANK2   BANK3   BANK4   BANK5   BANK6   BANK7   BANK8   BANK9  BANK10  BANK1
      +1  BANK12  BANK13  BANK14
  1866 ;;      Params:         4       0       0       0       0       0       0       0       0       0       0       0       
      +0       0       0       0
  1867 ;;      Locals:         2       0       0       0       0       0       0       0       0       0       0       0       
      +0       0       0       0
  1868 ;;      Temps:          1       0       0       0       0       0       0       0       0       0       0       0       
      +0       0       0       0
  1869 ;;      Totals:         7       0       0       0       0       0       0       0       0       0       0       0       
      +0       0       0       0
  1870 ;;Total ram usage:        7 bytes
  1871 ;; Hardware stack levels used:    1
  1872 ;; This function calls:
  1873 ;;		Nothing
  1874 ;; This function is called by:
  1875 ;;		_SendMeasures
  1876 ;; This function uses a non-reentrant model
  1877 ;;
  1878                           
  1879                           	psect	text13
  1880  00145E                     __ptext13:
  1881                           	opt stack 0
  1882  00145E                     _PayloadPutWord:
  1883                           	opt stack 28
  1884                           
  1885                           ;payload.c: 47: uint8_t lsb = (uint8_t)element;
  1886                           
  1887                           ;incstack = 0
  1888  00145E  C003  F006         	movff	PayloadPutWord@element,PayloadPutWord@lsb
  1889                           
  1890                           ;payload.c: 48: uint8_t msb = (uint8_t)(element >> 8);
  1891  001462  5004               	movf	PayloadPutWord@element+1,w,c
  1892  001464  6E07               	movwf	PayloadPutWord@msb,c
  1893                           
  1894                           ;payload.c: 49: if (payload->size < 100 - 2) {
  1895  001466  EE20 F064          	lfsr	2,100
  1896  00146A  5001               	movf	PayloadPutWord@payload,w,c
  1897  00146C  26D9               	addwf	fsr2l,f,c
  1898  00146E  5002               	movf	PayloadPutWord@payload+1,w,c
  1899  001470  22DA               	addwfc	fsr2h,f,c
  1900  001472  0E62               	movlw	98
  1901  001474  60DF               	cpfslt	indf2,c
  1902  001476  0012               	return	
  1903                           
  1904                           ;payload.c: 50: payload->data[payload->size++] = msb;
  1905  001478  EE20 F064          	lfsr	2,100
  1906  00147C  5001               	movf	PayloadPutWord@payload,w,c
  1907  00147E  26D9               	addwf	fsr2l,f,c
  1908  001480  5002               	movf	PayloadPutWord@payload+1,w,c
  1909  001482  22DA               	addwfc	fsr2h,f,c
  1910  001484  50DF               	movf	indf2,w,c
  1911  001486  6E05               	movwf	??_PayloadPutWord& (0+255),c
  1912  001488  5005               	movf	??_PayloadPutWord,w,c
  1913  00148A  0D01               	mullw	1
  1914  00148C  50F3               	movf	prodl,w,c
  1915  00148E  2401               	addwf	PayloadPutWord@payload,w,c
  1916  001490  6ED9               	movwf	fsr2l,c
  1917  001492  50F4               	movf	prodh,w,c
  1918  001494  2002               	addwfc	PayloadPutWord@payload+1,w,c
  1919  001496  6EDA               	movwf	fsr2h,c
  1920  001498  C007  FFDF         	movff	PayloadPutWord@msb,indf2
  1921  00149C  EE20 F064          	lfsr	2,100
  1922  0014A0  5001               	movf	PayloadPutWord@payload,w,c
  1923  0014A2  26D9               	addwf	fsr2l,f,c
  1924  0014A4  5002               	movf	PayloadPutWord@payload+1,w,c
  1925  0014A6  22DA               	addwfc	fsr2h,f,c
  1926  0014A8  2ADF               	incf	indf2,f,c
  1927                           
  1928                           ;payload.c: 51: payload->data[payload->size++] = lsb;
  1929  0014AA  EE20 F064          	lfsr	2,100
  1930  0014AE  5001               	movf	PayloadPutWord@payload,w,c
  1931  0014B0  26D9               	addwf	fsr2l,f,c
  1932  0014B2  5002               	movf	PayloadPutWord@payload+1,w,c
  1933  0014B4  22DA               	addwfc	fsr2h,f,c
  1934  0014B6  50DF               	movf	indf2,w,c
  1935  0014B8  6E05               	movwf	??_PayloadPutWord& (0+255),c
  1936  0014BA  5005               	movf	??_PayloadPutWord,w,c
  1937  0014BC  0D01               	mullw	1
  1938  0014BE  50F3               	movf	prodl,w,c
  1939  0014C0  2401               	addwf	PayloadPutWord@payload,w,c
  1940  0014C2  6ED9               	movwf	fsr2l,c
  1941  0014C4  50F4               	movf	prodh,w,c
  1942  0014C6  2002               	addwfc	PayloadPutWord@payload+1,w,c
  1943  0014C8  6EDA               	movwf	fsr2h,c
  1944  0014CA  C006  FFDF         	movff	PayloadPutWord@lsb,indf2
  1945  0014CE  EE20 F064          	lfsr	2,100
  1946  0014D2  5001               	movf	PayloadPutWord@payload,w,c
  1947  0014D4  26D9               	addwf	fsr2l,f,c
  1948  0014D6  5002               	movf	PayloadPutWord@payload+1,w,c
  1949  0014D8  22DA               	addwfc	fsr2h,f,c
  1950  0014DA  2ADF               	incf	indf2,f,c
  1951  0014DC  0012               	return	
  1952  0014DE  0012               	return		;funcret
  1953  0014E0                     __end_of_PayloadPutWord:
  1954                           	opt stack 0
  1955                           tblptru	equ	0xFF8
  1956                           tblptrh	equ	0xFF7
  1957                           tblptrl	equ	0xFF6
  1958                           tablat	equ	0xFF5
  1959                           prodh	equ	0xFF4
  1960                           prodl	equ	0xFF3
  1961                           intcon	equ	0xFF2
  1962                           intcon2	equ	0xFF1
  1963                           postinc0	equ	0xFEE
  1964                           wreg	equ	0xFE8
  1965                           indf1	equ	0xFE7
  1966                           postdec1	equ	0xFE5
  1967                           fsr1h	equ	0xFE2
  1968                           fsr1l	equ	0xFE1
  1969                           indf2	equ	0xFDF
  1970                           postinc2	equ	0xFDE
  1971                           postdec2	equ	0xFDD
  1972                           fsr2h	equ	0xFDA
  1973                           fsr2l	equ	0xFD9
  1974                           status	equ	0xFD8
  1975                           
  1976 ;; *************** function _PayloadPutString *****************
  1977 ;; Defined at:
  1978 ;;		line 69 in file "xbee/payload.c"
  1979 ;; Parameters:    Size  Location     Type
  1980 ;;  payload         2    8[COMRAM] PTR struct Payload
  1981 ;;		 -> SendMeasures@payload(101), 
  1982 ;;  string          2   10[COMRAM] PTR const unsigned char 
  1983 ;;		 -> SENSORS(2), 
  1984 ;; Auto vars:     Size  Location     Type
  1985 ;;  buffer          2   13[COMRAM] PTR unsigned char 
  1986 ;;		 -> payload.data(100), SendMeasures@payload(101), 
  1987 ;; Return value:  Size  Location     Type
  1988 ;;		None               void
  1989 ;; Registers used:
  1990 ;;		wreg, fsr2l, fsr2h, status,2, status,0, tblptrl, tblptrh, tblptru, prodl, prodh, cstack
  1991 ;; Tracked objects:
  1992 ;;		On entry : 0/0
  1993 ;;		On exit  : 0/0
  1994 ;;		Unchanged: 0/0
  1995 ;; Data sizes:     COMRAM   BANK0   BANK1   BANK2   BANK3   BANK4   BANK5   BANK6   BANK7   BANK8   BANK9  BANK10  BANK1
      +1  BANK12  BANK13  BANK14
  1996 ;;      Params:         4       0       0       0       0       0       0       0       0       0       0       0       
      +0       0       0       0
  1997 ;;      Locals:         2       0       0       0       0       0       0       0       0       0       0       0       
      +0       0       0       0
  1998 ;;      Temps:          1       0       0       0       0       0       0       0       0       0       0       0       
      +0       0       0       0
  1999 ;;      Totals:         7       0       0       0       0       0       0       0       0       0       0       0       
      +0       0       0       0
  2000 ;;Total ram usage:        7 bytes
  2001 ;; Hardware stack levels used:    1
  2002 ;; Hardware stack levels required when called:    1
  2003 ;; This function calls:
  2004 ;;		_sprintf
  2005 ;;		_strlen
  2006 ;; This function is called by:
  2007 ;;		_SendMeasures
  2008 ;; This function uses a non-reentrant model
  2009 ;;
  2010                           
  2011                           	psect	text14
  2012  001716                     __ptext14:
  2013                           	opt stack 0
  2014  001716                     _PayloadPutString:
  2015                           	opt stack 27
  2016                           
  2017                           ;payload.c: 70: char* buffer = (char*) &payload->data[payload->size];
  2018                           
  2019                           ;incstack = 0
  2020  001716  EE20 F064          	lfsr	2,100
  2021  00171A  5009               	movf	PayloadPutString@payload,w,c
  2022  00171C  26D9               	addwf	fsr2l,f,c
  2023  00171E  500A               	movf	PayloadPutString@payload+1,w,c
  2024  001720  22DA               	addwfc	fsr2h,f,c
  2025  001722  50DF               	movf	indf2,w,c
  2026  001724  6E0D               	movwf	??_PayloadPutString& (0+255),c
  2027  001726  500D               	movf	??_PayloadPutString,w,c
  2028  001728  0D01               	mullw	1
  2029  00172A  50F3               	movf	prodl,w,c
  2030  00172C  2409               	addwf	PayloadPutString@payload,w,c
  2031  00172E  6E0E               	movwf	PayloadPutString@buffer,c
  2032  001730  50F4               	movf	prodh,w,c
  2033  001732  200A               	addwfc	PayloadPutString@payload+1,w,c
  2034  001734  6E0F               	movwf	PayloadPutString@buffer+1,c
  2035                           
  2036                           ;payload.c: 71: sprintf(buffer, (const char*) string);
  2037  001736  C00E  F001         	movff	PayloadPutString@buffer,sprintf@sp
  2038  00173A  C00F  F002         	movff	PayloadPutString@buffer+1,sprintf@sp+1
  2039  00173E  C00B  F003         	movff	PayloadPutString@string,sprintf@f
  2040  001742  C00C  F004         	movff	PayloadPutString@string+1,sprintf@f+1
  2041  001746  ECB1  F00A         	call	_sprintf	;wreg free
  2042                           
  2043                           ;payload.c: 72: payload->size += strlen((char*)string);
  2044  00174A  C00B  F001         	movff	PayloadPutString@string,strlen@s
  2045  00174E  C00C  F002         	movff	PayloadPutString@string+1,strlen@s+1
  2046  001752  EC65  F00C         	call	_strlen	;wreg free
  2047  001756  EE20 F064          	lfsr	2,100
  2048  00175A  5009               	movf	PayloadPutString@payload,w,c
  2049  00175C  26D9               	addwf	fsr2l,f,c
  2050  00175E  500A               	movf	PayloadPutString@payload+1,w,c
  2051  001760  22DA               	addwfc	fsr2h,f,c
  2052  001762  5001               	movf	?_strlen,w,c
  2053  001764  26DF               	addwf	indf2,f,c
  2054  001766  0012               	return		;funcret
  2055  001768                     __end_of_PayloadPutString:
  2056                           	opt stack 0
  2057                           tblptru	equ	0xFF8
  2058                           tblptrh	equ	0xFF7
  2059                           tblptrl	equ	0xFF6
  2060                           tablat	equ	0xFF5
  2061                           prodh	equ	0xFF4
  2062                           prodl	equ	0xFF3
  2063                           intcon	equ	0xFF2
  2064                           intcon2	equ	0xFF1
  2065                           postinc0	equ	0xFEE
  2066                           wreg	equ	0xFE8
  2067                           indf1	equ	0xFE7
  2068                           postdec1	equ	0xFE5
  2069                           fsr1h	equ	0xFE2
  2070                           fsr1l	equ	0xFE1
  2071                           indf2	equ	0xFDF
  2072                           postinc2	equ	0xFDE
  2073                           postdec2	equ	0xFDD
  2074                           fsr2h	equ	0xFDA
  2075                           fsr2l	equ	0xFD9
  2076                           status	equ	0xFD8
  2077                           
  2078 ;; *************** function _strlen *****************
  2079 ;; Defined at:
  2080 ;;		line 4 in file "C:\Program Files (x86)\Microchip\xc8\v1.34\sources\common\strlen.c"
  2081 ;; Parameters:    Size  Location     Type
  2082 ;;  s               2    0[COMRAM] PTR const unsigned char 
  2083 ;;		 -> SENSORS(2), 
  2084 ;; Auto vars:     Size  Location     Type
  2085 ;;  cp              2    4[COMRAM] PTR const unsigned char 
  2086 ;;		 -> SENSORS(2), 
  2087 ;; Return value:  Size  Location     Type
  2088 ;;                  2    0[COMRAM] unsigned int 
  2089 ;; Registers used:
  2090 ;;		wreg, status,2, status,0, tblptrl, tblptrh, tblptru
  2091 ;; Tracked objects:
  2092 ;;		On entry : 0/0
  2093 ;;		On exit  : 0/0
  2094 ;;		Unchanged: 0/0
  2095 ;; Data sizes:     COMRAM   BANK0   BANK1   BANK2   BANK3   BANK4   BANK5   BANK6   BANK7   BANK8   BANK9  BANK10  BANK1
      +1  BANK12  BANK13  BANK14
  2096 ;;      Params:         2       0       0       0       0       0       0       0       0       0       0       0       
      +0       0       0       0
  2097 ;;      Locals:         2       0       0       0       0       0       0       0       0       0       0       0       
      +0       0       0       0
  2098 ;;      Temps:          2       0       0       0       0       0       0       0       0       0       0       0       
      +0       0       0       0
  2099 ;;      Totals:         6       0       0       0       0       0       0       0       0       0       0       0       
      +0       0       0       0
  2100 ;;Total ram usage:        6 bytes
  2101 ;; Hardware stack levels used:    1
  2102 ;; This function calls:
  2103 ;;		Nothing
  2104 ;; This function is called by:
  2105 ;;		_PayloadPutString
  2106 ;;		_PayloadPutRAMString
  2107 ;; This function uses a non-reentrant model
  2108 ;;
  2109                           
  2110                           	psect	text15
  2111  0018CA                     __ptext15:
  2112                           	opt stack 0
  2113  0018CA                     _strlen:
  2114                           	opt stack 27
  2115                           
  2116                           ;incstack = 0
  2117  0018CA  C001  F005         	movff	strlen@s,strlen@cp
  2118  0018CE  C002  F006         	movff	strlen@s+1,strlen@cp+1
  2119  0018D2  D003               	goto	l2129
  2120  0018D4                     l2127:
  2121  0018D4  4A05               	infsnz	strlen@cp,f,c
  2122  0018D6  2A06               	incf	strlen@cp+1,f,c
  2123  0018D8  D000               	goto	l2129
  2124  0018DA                     l2129:
  2125  0018DA  C005  FFF6         	movff	strlen@cp,tblptrl
  2126  0018DE  C006  FFF7         	movff	strlen@cp+1,tblptrh
  2127  0018E2                     	if	0	;tblptru may be non-zero
  2128  0018E2                     	endif
  2129  0018E2                     	if	0	;tblptru may be non-zero
  2130  0018E2                     	endif
  2131  0018E2  0008               	tblrd		*
  2132  0018E4  50F5               	movf	tablat,w,c
  2133  0018E6  0900               	iorlw	0
  2134  0018E8  A4D8               	btfss	status,2,c
  2135  0018EA  D7F4               	goto	l2127
  2136  0018EC  C001  F003         	movff	strlen@s,??_strlen
  2137  0018F0  C002  F004         	movff	strlen@s+1,??_strlen+1
  2138  0018F4  1E03               	comf	??_strlen,f,c
  2139  0018F6  1E04               	comf	??_strlen+1,f,c
  2140  0018F8  4A03               	infsnz	??_strlen,f,c
  2141  0018FA  2A04               	incf	??_strlen+1,f,c
  2142  0018FC  5005               	movf	strlen@cp,w,c
  2143  0018FE  2403               	addwf	??_strlen,w,c
  2144  001900  6E01               	movwf	?_strlen,c
  2145  001902  5006               	movf	strlen@cp+1,w,c
  2146  001904  2004               	addwfc	??_strlen+1,w,c
  2147  001906  6E02               	movwf	?_strlen+1,c
  2148  001908  0012               	return	
  2149  00190A  0012               	return		;funcret
  2150  00190C                     __end_of_strlen:
  2151                           	opt stack 0
  2152                           tblptru	equ	0xFF8
  2153                           tblptrh	equ	0xFF7
  2154                           tblptrl	equ	0xFF6
  2155                           tablat	equ	0xFF5
  2156                           prodh	equ	0xFF4
  2157                           prodl	equ	0xFF3
  2158                           intcon	equ	0xFF2
  2159                           intcon2	equ	0xFF1
  2160                           postinc0	equ	0xFEE
  2161                           wreg	equ	0xFE8
  2162                           indf1	equ	0xFE7
  2163                           postdec1	equ	0xFE5
  2164                           fsr1h	equ	0xFE2
  2165                           fsr1l	equ	0xFE1
  2166                           indf2	equ	0xFDF
  2167                           postinc2	equ	0xFDE
  2168                           postdec2	equ	0xFDD
  2169                           fsr2h	equ	0xFDA
  2170                           fsr2l	equ	0xFD9
  2171                           status	equ	0xFD8
  2172                           
  2173 ;; *************** function _sprintf *****************
  2174 ;; Defined at:
  2175 ;;		line 492 in file "C:\Program Files (x86)\Microchip\xc8\v1.34\sources\common\doprnt.c"
  2176 ;; Parameters:    Size  Location     Type
  2177 ;;  sp              2    0[COMRAM] PTR unsigned char 
  2178 ;;		 -> payload.data(100), SendMeasures@payload(101), 
  2179 ;;  f               2    2[COMRAM] PTR const unsigned char 
  2180 ;;		 -> SENSORS(2), 
  2181 ;; Auto vars:     Size  Location     Type
  2182 ;;  tmpval          4    0        struct .
  2183 ;;  cp              3    0        PTR const unsigned char 
  2184 ;;  ap              2    4[COMRAM] PTR void [1]
  2185 ;;		 -> ?_sprintf(2), 
  2186 ;;  len             2    0        unsigned int 
  2187 ;;  val             2    0        unsigned int 
  2188 ;;  c               1    7[COMRAM] char 
  2189 ;;  flag            1    6[COMRAM] unsigned char 
  2190 ;;  prec            1    0        char 
  2191 ;; Return value:  Size  Location     Type
  2192 ;;                  2    0[COMRAM] int 
  2193 ;; Registers used:
  2194 ;;		wreg, fsr2l, fsr2h, status,2, status,0, tblptrl, tblptrh, tblptru
  2195 ;; Tracked objects:
  2196 ;;		On entry : 0/0
  2197 ;;		On exit  : 0/0
  2198 ;;		Unchanged: 0/0
  2199 ;; Data sizes:     COMRAM   BANK0   BANK1   BANK2   BANK3   BANK4   BANK5   BANK6   BANK7   BANK8   BANK9  BANK10  BANK1
      +1  BANK12  BANK13  BANK14
  2200 ;;      Params:         4       0       0       0       0       0       0       0       0       0       0       0       
      +0       0       0       0
  2201 ;;      Locals:         4       0       0       0       0       0       0       0       0       0       0       0       
      +0       0       0       0
  2202 ;;      Temps:          0       0       0       0       0       0       0       0       0       0       0       0       
      +0       0       0       0
  2203 ;;      Totals:         8       0       0       0       0       0       0       0       0       0       0       0       
      +0       0       0       0
  2204 ;;Total ram usage:        8 bytes
  2205 ;; Hardware stack levels used:    1
  2206 ;; This function calls:
  2207 ;;		Nothing
  2208 ;; This function is called by:
  2209 ;;		_PayloadPutString
  2210 ;; This function uses a non-reentrant model
  2211 ;;
  2212                           
  2213                           	psect	text16
  2214  001562                     __ptext16:
  2215                           	opt stack 0
  2216  001562                     _sprintf:
  2217                           	opt stack 27
  2218                           
  2219                           ;doprnt.c: 494: va_list ap;
  2220                           ;doprnt.c: 499: signed char c;
  2221                           ;doprnt.c: 506: signed char prec;
  2222                           ;doprnt.c: 508: unsigned char flag;
  2223                           ;doprnt.c: 523: union {
  2224                           ;doprnt.c: 524: unsigned long vd;
  2225                           ;doprnt.c: 525: double integ;
  2226                           ;doprnt.c: 526: } tmpval;
  2227                           ;doprnt.c: 528: unsigned int val;
  2228                           ;doprnt.c: 529: unsigned len;
  2229                           ;doprnt.c: 530: const char * cp;
  2230                           ;doprnt.c: 533: *ap = __va_start();
  2231                           
  2232                           ;incstack = 0
  2233  001562  0E05               	movlw	low (?_sprintf+4)
  2234  001564  6E05               	movwf	sprintf@ap,c
  2235  001566  0E00               	movlw	high (?_sprintf+4)
  2236  001568  6E06               	movwf	sprintf@ap+1,c
  2237                           
  2238                           ;doprnt.c: 536: while(c = *f++) {
  2239  00156A  D023               	goto	l2119
  2240  00156C                     l2103:
  2241                           
  2242                           ;doprnt.c: 538: if(c != '%')
  2243  00156C  0E25               	movlw	37
  2244  00156E  1808               	xorwf	sprintf@c,w,c
  2245  001570  B4D8               	btfsc	status,2,c
  2246  001572  D004               	goto	l2109
  2247  001574  D007               	goto	l2111
  2248  001576                     l2107:
  2249  001576  4A01               	infsnz	sprintf@sp,f,c
  2250  001578  2A02               	incf	sprintf@sp+1,f,c
  2251                           
  2252                           ;doprnt.c: 542: continue;
  2253  00157A  D01B               	goto	l2119
  2254  00157C                     l2109:
  2255                           
  2256                           ;doprnt.c: 543: }
  2257                           ;doprnt.c: 548: flag = 0;
  2258  00157C  0E00               	movlw	0
  2259  00157E  6E07               	movwf	sprintf@flag,c
  2260                           
  2261                           ;doprnt.c: 635: switch(c = *f++) {
  2262  001580  D009               	goto	l2117
  2263                           
  2264                           ;doprnt.c: 638: goto alldone;
  2265                           
  2266                           ;doprnt.c: 637: case 0:
  2267  001582  D025               	goto	l2121
  2268  001584                     l2111:
  2269                           
  2270                           ;doprnt.c: 809: ((*sp++ = (c)));
  2271  001584  C001  FFD9         	movff	sprintf@sp,fsr2l
  2272  001588  C002  FFDA         	movff	sprintf@sp+1,fsr2h
  2273  00158C  C008  FFDF         	movff	sprintf@c,indf2
  2274  001590  D7F2               	goto	l2107
  2275                           
  2276                           ;doprnt.c: 822: }
  2277                           
  2278                           ;doprnt.c: 810: continue;
  2279  001592  D00F               	goto	l2119
  2280  001594                     l2117:
  2281  001594  C003  FFF6         	movff	sprintf@f,tblptrl
  2282  001598  C004  FFF7         	movff	sprintf@f+1,tblptrh
  2283  00159C  4A03               	infsnz	sprintf@f,f,c
  2284  00159E  2A04               	incf	sprintf@f+1,f,c
  2285  0015A0                     	if	0	;tblptru may be non-zero
  2286  0015A0                     	endif
  2287  0015A0                     	if	0	;tblptru may be non-zero
  2288  0015A0                     	endif
  2289  0015A0  0008               	tblrd		*
  2290  0015A2  CFF5 F008          	movff	tablat,sprintf@c
  2291  0015A6  5008               	movf	sprintf@c,w,c
  2292                           
  2293                           ; Switch size 1, requested type "space"
  2294                           ; Number of cases is 1, Range of values is 0 to 0
  2295                           ; switch strategies available:
  2296                           ; Name         Instructions Cycles
  2297                           ; simple_byte            4     3 (average)
  2298                           ;	Chosen strategy is simple_byte
  2299  0015A8  0A00               	xorlw	0	; case 0
  2300  0015AA  B4D8               	btfsc	status,2,c
  2301  0015AC  D010               	goto	l2121
  2302  0015AE  D7EA               	goto	l2111
  2303  0015B0  D000               	goto	l2119
  2304  0015B2                     l2119:
  2305  0015B2  C003  FFF6         	movff	sprintf@f,tblptrl
  2306  0015B6  C004  FFF7         	movff	sprintf@f+1,tblptrh
  2307  0015BA  4A03               	infsnz	sprintf@f,f,c
  2308  0015BC  2A04               	incf	sprintf@f+1,f,c
  2309  0015BE                     	if	0	;tblptru may be non-zero
  2310  0015BE                     	endif
  2311  0015BE                     	if	0	;tblptru may be non-zero
  2312  0015BE                     	endif
  2313  0015BE  0008               	tblrd		*
  2314  0015C0  CFF5 F008          	movff	tablat,sprintf@c
  2315  0015C4  5008               	movf	sprintf@c,w,c
  2316  0015C6  B4D8               	btfsc	status,2,c
  2317  0015C8  D002               	goto	l2121
  2318  0015CA  D7D0               	goto	l2103
  2319  0015CC  D000               	goto	l2121
  2320  0015CE                     l2121:
  2321                           
  2322                           ;doprnt.c: 1538: *sp = 0;
  2323  0015CE  C001  FFD9         	movff	sprintf@sp,fsr2l
  2324  0015D2  C002  FFDA         	movff	sprintf@sp+1,fsr2h
  2325  0015D6  0E00               	movlw	0
  2326  0015D8  6EDF               	movwf	indf2,c
  2327  0015DA  0012               	return	
  2328                           
  2329                           ;doprnt.c: 1540: return 0;
  2330                           ;	Return value of _sprintf is never used
  2331  0015DC  0012               	return		;funcret
  2332  0015DE                     __end_of_sprintf:
  2333                           	opt stack 0
  2334                           tblptru	equ	0xFF8
  2335                           tblptrh	equ	0xFF7
  2336                           tblptrl	equ	0xFF6
  2337                           tablat	equ	0xFF5
  2338                           prodh	equ	0xFF4
  2339                           prodl	equ	0xFF3
  2340                           intcon	equ	0xFF2
  2341                           intcon2	equ	0xFF1
  2342                           postinc0	equ	0xFEE
  2343                           wreg	equ	0xFE8
  2344                           indf1	equ	0xFE7
  2345                           postdec1	equ	0xFE5
  2346                           fsr1h	equ	0xFE2
  2347                           fsr1l	equ	0xFE1
  2348                           indf2	equ	0xFDF
  2349                           postinc2	equ	0xFDE
  2350                           postdec2	equ	0xFDD
  2351                           fsr2h	equ	0xFDA
  2352                           fsr2l	equ	0xFD9
  2353                           status	equ	0xFD8
  2354                           
  2355 ;; *************** function _PayloadPutByte *****************
  2356 ;; Defined at:
  2357 ;;		line 36 in file "xbee/payload.c"
  2358 ;; Parameters:    Size  Location     Type
  2359 ;;  payload         2    0[COMRAM] PTR struct Payload
  2360 ;;		 -> SendMeasures@payload(101), 
  2361 ;;  element         1    2[COMRAM] const unsigned char 
  2362 ;; Auto vars:     Size  Location     Type
  2363 ;;		None
  2364 ;; Return value:  Size  Location     Type
  2365 ;;		None               void
  2366 ;; Registers used:
  2367 ;;		wreg, fsr2l, fsr2h, status,2, status,0, prodl, prodh
  2368 ;; Tracked objects:
  2369 ;;		On entry : 0/0
  2370 ;;		On exit  : 0/0
  2371 ;;		Unchanged: 0/0
  2372 ;; Data sizes:     COMRAM   BANK0   BANK1   BANK2   BANK3   BANK4   BANK5   BANK6   BANK7   BANK8   BANK9  BANK10  BANK1
      +1  BANK12  BANK13  BANK14
  2373 ;;      Params:         3       0       0       0       0       0       0       0       0       0       0       0       
      +0       0       0       0
  2374 ;;      Locals:         0       0       0       0       0       0       0       0       0       0       0       0       
      +0       0       0       0
  2375 ;;      Temps:          1       0       0       0       0       0       0       0       0       0       0       0       
      +0       0       0       0
  2376 ;;      Totals:         4       0       0       0       0       0       0       0       0       0       0       0       
      +0       0       0       0
  2377 ;;Total ram usage:        4 bytes
  2378 ;; Hardware stack levels used:    1
  2379 ;; This function calls:
  2380 ;;		Nothing
  2381 ;; This function is called by:
  2382 ;;		_SendMeasures
  2383 ;;		_PayloadAppend
  2384 ;; This function uses a non-reentrant model
  2385 ;;
  2386                           
  2387                           	psect	text17
  2388  001768                     __ptext17:
  2389                           	opt stack 0
  2390  001768                     _PayloadPutByte:
  2391                           	opt stack 28
  2392                           
  2393                           ;payload.c: 37: if (payload->size < 100 - 1) {
  2394                           
  2395                           ;incstack = 0
  2396  001768  EE20 F064          	lfsr	2,100
  2397  00176C  5001               	movf	PayloadPutByte@payload,w,c
  2398  00176E  26D9               	addwf	fsr2l,f,c
  2399  001770  5002               	movf	PayloadPutByte@payload+1,w,c
  2400  001772  22DA               	addwfc	fsr2h,f,c
  2401  001774  0E63               	movlw	99
  2402  001776  60DF               	cpfslt	indf2,c
  2403  001778  0012               	return	
  2404                           
  2405                           ;payload.c: 38: payload->data[payload->size] = element;
  2406  00177A  EE20 F064          	lfsr	2,100
  2407  00177E  5001               	movf	PayloadPutByte@payload,w,c
  2408  001780  26D9               	addwf	fsr2l,f,c
  2409  001782  5002               	movf	PayloadPutByte@payload+1,w,c
  2410  001784  22DA               	addwfc	fsr2h,f,c
  2411  001786  50DF               	movf	indf2,w,c
  2412  001788  6E04               	movwf	??_PayloadPutByte& (0+255),c
  2413  00178A  5004               	movf	??_PayloadPutByte,w,c
  2414  00178C  0D01               	mullw	1
  2415  00178E  50F3               	movf	prodl,w,c
  2416  001790  2401               	addwf	PayloadPutByte@payload,w,c
  2417  001792  6ED9               	movwf	fsr2l,c
  2418  001794  50F4               	movf	prodh,w,c
  2419  001796  2002               	addwfc	PayloadPutByte@payload+1,w,c
  2420  001798  6EDA               	movwf	fsr2h,c
  2421  00179A  C003  FFDF         	movff	PayloadPutByte@element,indf2
  2422                           
  2423                           ;payload.c: 39: payload->size++;
  2424  00179E  EE20 F064          	lfsr	2,100
  2425  0017A2  5001               	movf	PayloadPutByte@payload,w,c
  2426  0017A4  26D9               	addwf	fsr2l,f,c
  2427  0017A6  5002               	movf	PayloadPutByte@payload+1,w,c
  2428  0017A8  22DA               	addwfc	fsr2h,f,c
  2429  0017AA  2ADF               	incf	indf2,f,c
  2430  0017AC  0012               	return	
  2431  0017AE  0012               	return		;funcret
  2432  0017B0                     __end_of_PayloadPutByte:
  2433                           	opt stack 0
  2434                           tblptru	equ	0xFF8
  2435                           tblptrh	equ	0xFF7
  2436                           tblptrl	equ	0xFF6
  2437                           tablat	equ	0xFF5
  2438                           prodh	equ	0xFF4
  2439                           prodl	equ	0xFF3
  2440                           intcon	equ	0xFF2
  2441                           intcon2	equ	0xFF1
  2442                           postinc0	equ	0xFEE
  2443                           wreg	equ	0xFE8
  2444                           indf1	equ	0xFE7
  2445                           postdec1	equ	0xFE5
  2446                           fsr1h	equ	0xFE2
  2447                           fsr1l	equ	0xFE1
  2448                           indf2	equ	0xFDF
  2449                           postinc2	equ	0xFDE
  2450                           postdec2	equ	0xFDD
  2451                           fsr2h	equ	0xFDA
  2452                           fsr2l	equ	0xFD9
  2453                           status	equ	0xFD8
  2454                           
  2455 ;; *************** function _PayloadInit *****************
  2456 ;; Defined at:
  2457 ;;		line 25 in file "xbee/payload.c"
  2458 ;; Parameters:    Size  Location     Type
  2459 ;;  payload         2    0[COMRAM] PTR struct Payload
  2460 ;;		 -> SendMeasures@payload(101), 
  2461 ;; Auto vars:     Size  Location     Type
  2462 ;;  i               1    2[COMRAM] unsigned char 
  2463 ;; Return value:  Size  Location     Type
  2464 ;;		None               void
  2465 ;; Registers used:
  2466 ;;		wreg, fsr2l, fsr2h, status,2, status,0, prodl, prodh
  2467 ;; Tracked objects:
  2468 ;;		On entry : 0/0
  2469 ;;		On exit  : 0/0
  2470 ;;		Unchanged: 0/0
  2471 ;; Data sizes:     COMRAM   BANK0   BANK1   BANK2   BANK3   BANK4   BANK5   BANK6   BANK7   BANK8   BANK9  BANK10  BANK1
      +1  BANK12  BANK13  BANK14
  2472 ;;      Params:         2       0       0       0       0       0       0       0       0       0       0       0       
      +0       0       0       0
  2473 ;;      Locals:         1       0       0       0       0       0       0       0       0       0       0       0       
      +0       0       0       0
  2474 ;;      Temps:          0       0       0       0       0       0       0       0       0       0       0       0       
      +0       0       0       0
  2475 ;;      Totals:         3       0       0       0       0       0       0       0       0       0       0       0       
      +0       0       0       0
  2476 ;;Total ram usage:        3 bytes
  2477 ;; Hardware stack levels used:    1
  2478 ;; This function calls:
  2479 ;;		Nothing
  2480 ;; This function is called by:
  2481 ;;		_SendMeasures
  2482 ;; This function uses a non-reentrant model
  2483 ;;
  2484                           
  2485                           	psect	text18
  2486  001942                     __ptext18:
  2487                           	opt stack 0
  2488  001942                     _PayloadInit:
  2489                           	opt stack 28
  2490                           
  2491                           ;payload.c: 26: uint8_t i = 100 - 1;
  2492                           
  2493                           ;incstack = 0
  2494  001942  0E63               	movlw	99
  2495  001944  6E03               	movwf	PayloadInit@i,c
  2496                           
  2497                           ;payload.c: 27: payload->size = 0;
  2498  001946  EE20 F064          	lfsr	2,100
  2499  00194A  5001               	movf	PayloadInit@payload,w,c
  2500  00194C  26D9               	addwf	fsr2l,f,c
  2501  00194E  5002               	movf	PayloadInit@payload+1,w,c
  2502  001950  22DA               	addwfc	fsr2h,f,c
  2503  001952  D008               	goto	L1
  2504  001954                     l2241:
  2505                           
  2506                           ;payload.c: 29: payload->data[i] = (0);
  2507  001954  5003               	movf	PayloadInit@i,w,c
  2508  001956  0D01               	mullw	1
  2509  001958  50F3               	movf	prodl,w,c
  2510  00195A  2401               	addwf	PayloadInit@payload,w,c
  2511  00195C  6ED9               	movwf	fsr2l,c
  2512  00195E  50F4               	movf	prodh,w,c
  2513  001960  2002               	addwfc	PayloadInit@payload+1,w,c
  2514  001962  6EDA               	movwf	fsr2h,c
  2515  001964                     L1:
  2516  001964  0E00               	movlw	0
  2517  001966  6EDF               	movwf	indf2,c
  2518  001968  D000               	goto	l2243
  2519  00196A                     l2243:
  2520  00196A  0603               	decf	PayloadInit@i,f,c
  2521  00196C  2803               	incf	PayloadInit@i,w,c
  2522  00196E  A4D8               	btfss	status,2,c
  2523  001970  D7F1               	goto	l2241
  2524  001972  0012               	return		;funcret
  2525  001974                     __end_of_PayloadInit:
  2526                           	opt stack 0
  2527                           tblptru	equ	0xFF8
  2528                           tblptrh	equ	0xFF7
  2529                           tblptrl	equ	0xFF6
  2530                           tablat	equ	0xFF5
  2531                           prodh	equ	0xFF4
  2532                           prodl	equ	0xFF3
  2533                           intcon	equ	0xFF2
  2534                           intcon2	equ	0xFF1
  2535                           postinc0	equ	0xFEE
  2536                           wreg	equ	0xFE8
  2537                           indf1	equ	0xFE7
  2538                           postdec1	equ	0xFE5
  2539                           fsr1h	equ	0xFE2
  2540                           fsr1l	equ	0xFE1
  2541                           indf2	equ	0xFDF
  2542                           postinc2	equ	0xFDE
  2543                           postdec2	equ	0xFDD
  2544                           fsr2h	equ	0xFDA
  2545                           fsr2l	equ	0xFD9
  2546                           status	equ	0xFD8
  2547                           
  2548 ;; *************** function _MeasureSensors *****************
  2549 ;; Defined at:
  2550 ;;		line 26 in file "sensor_proxy.c"
  2551 ;; Parameters:    Size  Location     Type
  2552 ;;		None
  2553 ;; Auto vars:     Size  Location     Type
  2554 ;;		None
  2555 ;; Return value:  Size  Location     Type
  2556 ;;		None               void
  2557 ;; Registers used:
  2558 ;;		wreg, fsr2l, fsr2h, status,2, status,0, cstack
  2559 ;; Tracked objects:
  2560 ;;		On entry : 0/0
  2561 ;;		On exit  : 0/0
  2562 ;;		Unchanged: 0/0
  2563 ;; Data sizes:     COMRAM   BANK0   BANK1   BANK2   BANK3   BANK4   BANK5   BANK6   BANK7   BANK8   BANK9  BANK10  BANK1
      +1  BANK12  BANK13  BANK14
  2564 ;;      Params:         0       0       0       0       0       0       0       0       0       0       0       0       
      +0       0       0       0
  2565 ;;      Locals:         0       0       0       0       0       0       0       0       0       0       0       0       
      +0       0       0       0
  2566 ;;      Temps:          0       0       0       0       0       0       0       0       0       0       0       0       
      +0       0       0       0
  2567 ;;      Totals:         0       0       0       0       0       0       0       0       0       0       0       0       
      +0       0       0       0
  2568 ;;Total ram usage:        0 bytes
  2569 ;; Hardware stack levels used:    1
  2570 ;; Hardware stack levels required when called:    4
  2571 ;; This function calls:
  2572 ;;		_Co2D1Measure
  2573 ;;		_PowerDownSHT11
  2574 ;;		_PowerUpCO2Sensor
  2575 ;;		_PowerUpSHT11
  2576 ;;		_Sht11Measure
  2577 ;; This function is called by:
  2578 ;;		_OnWakeUp
  2579 ;; This function uses a non-reentrant model
  2580 ;;
  2581                           
  2582                           	psect	text19
  2583  001A04                     __ptext19:
  2584                           	opt stack 0
  2585  001A04                     _MeasureSensors:
  2586                           	opt stack 25
  2587                           
  2588                           ;sensor_proxy.c: 28: PowerUpSHT11();
  2589                           
  2590                           ;incstack = 0
  2591  001A04  ECFA  F00D         	call	_PowerUpSHT11	;wreg free
  2592                           
  2593                           ;sensor_proxy.c: 29: Sht11Measure(&shtData);
  2594  001A08  0E12               	movlw	low _shtData
  2595  001A0A  6E0D               	movwf	Sht11Measure@data,c
  2596  001A0C  0E00               	movlw	high _shtData
  2597  001A0E  6E0E               	movwf	Sht11Measure@data+1,c
  2598  001A10  ECD8  F00B         	call	_Sht11Measure	;wreg free
  2599                           
  2600                           ;sensor_proxy.c: 30: PowerDownSHT11();
  2601  001A14  EC06  F00E         	call	_PowerDownSHT11	;wreg free
  2602                           
  2603                           ;sensor_proxy.c: 32: PowerUpCO2Sensor();
  2604  001A18  ECFD  F00D         	call	_PowerUpCO2Sensor	;wreg free
  2605                           
  2606                           ;sensor_proxy.c: 33: Co2D1Measure(&co2d1Data);
  2607  001A1C  0E18               	movlw	low _co2d1Data
  2608  001A1E  6E0E               	movwf	Co2D1Measure@data,c
  2609  001A20  0E00               	movlw	high _co2d1Data
  2610  001A22  6E0F               	movwf	Co2D1Measure@data+1,c
  2611  001A24  EC15  F00D         	call	_Co2D1Measure	;wreg free
  2612  001A28  0012               	return		;funcret
  2613  001A2A                     __end_of_MeasureSensors:
  2614                           	opt stack 0
  2615                           tblptru	equ	0xFF8
  2616                           tblptrh	equ	0xFF7
  2617                           tblptrl	equ	0xFF6
  2618                           tablat	equ	0xFF5
  2619                           prodh	equ	0xFF4
  2620                           prodl	equ	0xFF3
  2621                           intcon	equ	0xFF2
  2622                           intcon2	equ	0xFF1
  2623                           postinc0	equ	0xFEE
  2624                           wreg	equ	0xFE8
  2625                           indf1	equ	0xFE7
  2626                           postdec1	equ	0xFE5
  2627                           fsr1h	equ	0xFE2
  2628                           fsr1l	equ	0xFE1
  2629                           indf2	equ	0xFDF
  2630                           postinc2	equ	0xFDE
  2631                           postdec2	equ	0xFDD
  2632                           fsr2h	equ	0xFDA
  2633                           fsr2l	equ	0xFD9
  2634                           status	equ	0xFD8
  2635                           
  2636 ;; *************** function _Sht11Measure *****************
  2637 ;; Defined at:
  2638 ;;		line 41 in file "sht/sht.c"
  2639 ;; Parameters:    Size  Location     Type
  2640 ;;  data            2   12[COMRAM] PTR struct .
  2641 ;;		 -> shtData(6), 
  2642 ;; Auto vars:     Size  Location     Type
  2643 ;;  error           1   14[COMRAM] unsigned char 
  2644 ;; Return value:  Size  Location     Type
  2645 ;;                  1    wreg      unsigned char 
  2646 ;; Registers used:
  2647 ;;		wreg, fsr2l, fsr2h, status,2, status,0, cstack
  2648 ;; Tracked objects:
  2649 ;;		On entry : 0/0
  2650 ;;		On exit  : 0/0
  2651 ;;		Unchanged: 0/0
  2652 ;; Data sizes:     COMRAM   BANK0   BANK1   BANK2   BANK3   BANK4   BANK5   BANK6   BANK7   BANK8   BANK9  BANK10  BANK1
      +1  BANK12  BANK13  BANK14
  2653 ;;      Params:         2       0       0       0       0       0       0       0       0       0       0       0       
      +0       0       0       0
  2654 ;;      Locals:         1       0       0       0       0       0       0       0       0       0       0       0       
      +0       0       0       0
  2655 ;;      Temps:          0       0       0       0       0       0       0       0       0       0       0       0       
      +0       0       0       0
  2656 ;;      Totals:         3       0       0       0       0       0       0       0       0       0       0       0       
      +0       0       0       0
  2657 ;;Total ram usage:        3 bytes
  2658 ;; Hardware stack levels used:    1
  2659 ;; Hardware stack levels required when called:    3
  2660 ;; This function calls:
  2661 ;;		_Sht11MeasureParam
  2662 ;; This function is called by:
  2663 ;;		_MeasureSensors
  2664 ;; This function uses a non-reentrant model
  2665 ;;
  2666                           
  2667                           	psect	text20
  2668  0017B0                     __ptext20:
  2669                           	opt stack 0
  2670  0017B0                     _Sht11Measure:
  2671                           	opt stack 25
  2672                           
  2673                           ;sht.c: 42: uint8_t error = 0;
  2674                           
  2675                           ;incstack = 0
  2676  0017B0  0E00               	movlw	0
  2677  0017B2  6E0F               	movwf	Sht11Measure@error,c
  2678                           
  2679                           ;sht.c: 44: error += Sht11MeasureParam(&data->temperature.i, &data->tempChk,
  2680                           ;sht.c: 45: 0x03);
  2681  0017B4  C00D  F005         	movff	Sht11Measure@data,Sht11MeasureParam@p_value
  2682  0017B8  C00E  F006         	movff	Sht11Measure@data+1,Sht11MeasureParam@p_value+1
  2683  0017BC  0E04               	movlw	4
  2684  0017BE  240D               	addwf	Sht11Measure@data,w,c
  2685  0017C0  6E07               	movwf	Sht11MeasureParam@p_checksum,c
  2686  0017C2  0E00               	movlw	0
  2687  0017C4  200E               	addwfc	Sht11Measure@data+1,w,c
  2688  0017C6  6E08               	movwf	Sht11MeasureParam@p_checksum+1,c
  2689  0017C8  0E03               	movlw	3
  2690  0017CA  6E09               	movwf	Sht11MeasureParam@mode,c
  2691  0017CC  EC52  F009         	call	_Sht11MeasureParam	;wreg free
  2692  0017D0  260F               	addwf	Sht11Measure@error,f,c
  2693                           
  2694                           ;sht.c: 46: error += Sht11MeasureParam(&data->humidity.i, &data->humiChk,
  2695                           ;sht.c: 47: 0x05);
  2696  0017D2  0E02               	movlw	2
  2697  0017D4  240D               	addwf	Sht11Measure@data,w,c
  2698  0017D6  6E05               	movwf	Sht11MeasureParam@p_value,c
  2699  0017D8  0E00               	movlw	0
  2700  0017DA  200E               	addwfc	Sht11Measure@data+1,w,c
  2701  0017DC  6E06               	movwf	Sht11MeasureParam@p_value+1,c
  2702  0017DE  0E05               	movlw	5
  2703  0017E0  240D               	addwf	Sht11Measure@data,w,c
  2704  0017E2  6E07               	movwf	Sht11MeasureParam@p_checksum,c
  2705  0017E4  0E00               	movlw	0
  2706  0017E6  200E               	addwfc	Sht11Measure@data+1,w,c
  2707  0017E8  6E08               	movwf	Sht11MeasureParam@p_checksum+1,c
  2708  0017EA  0E05               	movlw	5
  2709  0017EC  6E09               	movwf	Sht11MeasureParam@mode,c
  2710  0017EE  EC52  F009         	call	_Sht11MeasureParam	;wreg free
  2711  0017F2  260F               	addwf	Sht11Measure@error,f,c
  2712  0017F4  0012               	return	
  2713                           
  2714                           ;sht.c: 48: return error;
  2715                           ;	Return value of _Sht11Measure is never used
  2716  0017F6  0012               	return		;funcret
  2717  0017F8                     __end_of_Sht11Measure:
  2718                           	opt stack 0
  2719                           tblptru	equ	0xFF8
  2720                           tblptrh	equ	0xFF7
  2721                           tblptrl	equ	0xFF6
  2722                           tablat	equ	0xFF5
  2723                           prodh	equ	0xFF4
  2724                           prodl	equ	0xFF3
  2725                           intcon	equ	0xFF2
  2726                           intcon2	equ	0xFF1
  2727                           postinc0	equ	0xFEE
  2728                           wreg	equ	0xFE8
  2729                           indf1	equ	0xFE7
  2730                           postdec1	equ	0xFE5
  2731                           fsr1h	equ	0xFE2
  2732                           fsr1l	equ	0xFE1
  2733                           indf2	equ	0xFDF
  2734                           postinc2	equ	0xFDE
  2735                           postdec2	equ	0xFDD
  2736                           fsr2h	equ	0xFDA
  2737                           fsr2l	equ	0xFD9
  2738                           status	equ	0xFD8
  2739                           
  2740 ;; *************** function _Sht11MeasureParam *****************
  2741 ;; Defined at:
  2742 ;;		line 124 in file "sht/sht.c"
  2743 ;; Parameters:    Size  Location     Type
  2744 ;;  p_value         2    4[COMRAM] PTR unsigned int 
  2745 ;;		 -> shtData.humidity(2), shtData.temperature(2), shtData(6), 
  2746 ;;  p_checksum      2    6[COMRAM] PTR unsigned char 
  2747 ;;		 -> shtData(6), 
  2748 ;;  mode            1    8[COMRAM] unsigned char 
  2749 ;; Auto vars:     Size  Location     Type
  2750 ;;  error           1   11[COMRAM] unsigned char 
  2751 ;; Return value:  Size  Location     Type
  2752 ;;                  1    wreg      unsigned char 
  2753 ;; Registers used:
  2754 ;;		wreg, fsr2l, fsr2h, status,2, status,0, cstack
  2755 ;; Tracked objects:
  2756 ;;		On entry : 0/0
  2757 ;;		On exit  : 0/0
  2758 ;;		Unchanged: 0/0
  2759 ;; Data sizes:     COMRAM   BANK0   BANK1   BANK2   BANK3   BANK4   BANK5   BANK6   BANK7   BANK8   BANK9  BANK10  BANK1
      +1  BANK12  BANK13  BANK14
  2760 ;;      Params:         5       0       0       0       0       0       0       0       0       0       0       0       
      +0       0       0       0
  2761 ;;      Locals:         1       0       0       0       0       0       0       0       0       0       0       0       
      +0       0       0       0
  2762 ;;      Temps:          2       0       0       0       0       0       0       0       0       0       0       0       
      +0       0       0       0
  2763 ;;      Totals:         8       0       0       0       0       0       0       0       0       0       0       0       
      +0       0       0       0
  2764 ;;Total ram usage:        8 bytes
  2765 ;; Hardware stack levels used:    1
  2766 ;; Hardware stack levels required when called:    2
  2767 ;; This function calls:
  2768 ;;		_Sht11Read
  2769 ;;		_Sht11Start
  2770 ;;		_Sht11Write
  2771 ;; This function is called by:
  2772 ;;		_Sht11Measure
  2773 ;; This function uses a non-reentrant model
  2774 ;;
  2775                           
  2776                           	psect	text21
  2777  0012A4                     __ptext21:
  2778                           	opt stack 0
  2779  0012A4                     _Sht11MeasureParam:
  2780                           	opt stack 25
  2781                           
  2782                           ;sht.c: 125: uint8_t error = 0;
  2783                           
  2784                           ;incstack = 0
  2785  0012A4  0E00               	movlw	0
  2786  0012A6  6E0C               	movwf	Sht11MeasureParam@error,c
  2787                           
  2788                           ;sht.c: 126: TRISAbits.TRISA0 = 0;
  2789  0012A8  9092               	bcf	3986,0,c	;volatile
  2790                           
  2791                           ;sht.c: 127: LATAbits.LATA0 = 1;
  2792  0012AA  8089               	bsf	3977,0,c	;volatile
  2793                           
  2794                           ;sht.c: 128: Sht11Start();
  2795  0012AC  EC86  F00C         	call	_Sht11Start	;wreg free
  2796                           
  2797                           ;sht.c: 129: switch (mode) {
  2798  0012B0  D009               	goto	l2053
  2799  0012B2                     l2047:
  2800  0012B2  0E03               	movlw	3
  2801  0012B4  EC28  F00B         	call	_Sht11Write
  2802  0012B8  D003               	goto	L2
  2803  0012BA                     l2049:
  2804  0012BA  0E05               	movlw	5
  2805  0012BC  EC28  F00B         	call	_Sht11Write
  2806  0012C0                     L2:
  2807  0012C0  260C               	addwf	Sht11MeasureParam@error,f,c
  2808                           
  2809                           ;sht.c: 135: }
  2810                           
  2811                           ;sht.c: 134: default: break;
  2812                           
  2813                           ;sht.c: 133: break;
  2814  0012C2  D008               	goto	l2055
  2815  0012C4                     l2053:
  2816  0012C4  5009               	movf	Sht11MeasureParam@mode,w,c
  2817                           
  2818                           ; Switch size 1, requested type "space"
  2819                           ; Number of cases is 2, Range of values is 3 to 5
  2820                           ; switch strategies available:
  2821                           ; Name         Instructions Cycles
  2822                           ; simple_byte            7     4 (average)
  2823                           ;	Chosen strategy is simple_byte
  2824  0012C6  0A03               	xorlw	3	; case 3
  2825  0012C8  B4D8               	btfsc	status,2,c
  2826  0012CA  D7F3               	goto	l2047
  2827  0012CC  0A06               	xorlw	6	; case 5
  2828  0012CE  B4D8               	btfsc	status,2,c
  2829  0012D0  D7F4               	goto	l2049
  2830  0012D2  D000               	goto	l2055
  2831  0012D4                     l2055:
  2832                           
  2833                           ;sht.c: 136: _delay(10);
  2834  0012D4  0E03               	movlw	3
  2835  0012D6                     u787:
  2836  0012D6  2EE8               	decfsz	wreg,f,c
  2837  0012D8  D7FE               	goto	u787
  2838  0012DA  F000               	nop	
  2839                           
  2840                           ;sht.c: 137: TRISAbits.TRISA0 = 1;
  2841  0012DC  8092               	bsf	3986,0,c	;volatile
  2842                           
  2843                           ;sht.c: 138: while (PORTAbits.RA0 == 1);
  2844  0012DE  D000               	goto	l107
  2845  0012E0                     l107:
  2846  0012E0  B080               	btfsc	3968,0,c	;volatile
  2847  0012E2  D7FE               	goto	l107
  2848                           
  2849                           ;sht.c: 140: *(p_value) = Sht11Read(1);
  2850  0012E4  0E01               	movlw	1
  2851  0012E6  EC5A  F00B         	call	_Sht11Read
  2852  0012EA  6E0A               	movwf	??_Sht11MeasureParam& (0+255),c
  2853  0012EC  6A0B               	clrf	(??_Sht11MeasureParam+1)& (0+255),c
  2854  0012EE  C005  FFD9         	movff	Sht11MeasureParam@p_value,fsr2l
  2855  0012F2  C006  FFDA         	movff	Sht11MeasureParam@p_value+1,fsr2h
  2856  0012F6  C00A  FFDE         	movff	??_Sht11MeasureParam,postinc2
  2857  0012FA  C00B  FFDD         	movff	??_Sht11MeasureParam+1,postdec2
  2858                           
  2859                           ;sht.c: 141: *(p_value) = *(p_value) << 8;
  2860  0012FE  C005  FFD9         	movff	Sht11MeasureParam@p_value,fsr2l
  2861  001302  C006  FFDA         	movff	Sht11MeasureParam@p_value+1,fsr2h
  2862  001306  CFDE F00A          	movff	postinc2,??_Sht11MeasureParam
  2863  00130A  CFDD F00B          	movff	postdec2,??_Sht11MeasureParam+1
  2864  00130E  C00A  F00B         	movff	??_Sht11MeasureParam,??_Sht11MeasureParam+1
  2865  001312  6A0A               	clrf	??_Sht11MeasureParam,c
  2866  001314  C005  FFD9         	movff	Sht11MeasureParam@p_value,fsr2l
  2867  001318  C006  FFDA         	movff	Sht11MeasureParam@p_value+1,fsr2h
  2868  00131C  C00A  FFDE         	movff	??_Sht11MeasureParam,postinc2
  2869  001320  C00B  FFDD         	movff	??_Sht11MeasureParam+1,postdec2
  2870                           
  2871                           ;sht.c: 142: *(p_value) += Sht11Read(1);
  2872  001324  0E01               	movlw	1
  2873  001326  EC5A  F00B         	call	_Sht11Read
  2874  00132A  6E0A               	movwf	??_Sht11MeasureParam& (0+255),c
  2875  00132C  500A               	movf	??_Sht11MeasureParam,w,c
  2876  00132E  C005  FFD9         	movff	Sht11MeasureParam@p_value,fsr2l
  2877  001332  C006  FFDA         	movff	Sht11MeasureParam@p_value+1,fsr2h
  2878  001336  26DE               	addwf	postinc2,f,c
  2879  001338  0E00               	movlw	0
  2880  00133A  22DD               	addwfc	postdec2,f,c
  2881                           
  2882                           ;sht.c: 143: *p_checksum = Sht11Read(0);
  2883  00133C  0E00               	movlw	0
  2884  00133E  EC5A  F00B         	call	_Sht11Read
  2885  001342  C007  FFD9         	movff	Sht11MeasureParam@p_checksum,fsr2l
  2886  001346  C008  FFDA         	movff	Sht11MeasureParam@p_checksum+1,fsr2h
  2887  00134A  6EDF               	movwf	indf2,c
  2888                           
  2889                           ;sht.c: 145: return error;
  2890  00134C  500C               	movf	Sht11MeasureParam@error,w,c
  2891  00134E  0012               	return	
  2892  001350  0012               	return		;funcret
  2893  001352                     __end_of_Sht11MeasureParam:
  2894                           	opt stack 0
  2895                           tblptru	equ	0xFF8
  2896                           tblptrh	equ	0xFF7
  2897                           tblptrl	equ	0xFF6
  2898                           tablat	equ	0xFF5
  2899                           prodh	equ	0xFF4
  2900                           prodl	equ	0xFF3
  2901                           intcon	equ	0xFF2
  2902                           intcon2	equ	0xFF1
  2903                           postinc0	equ	0xFEE
  2904                           wreg	equ	0xFE8
  2905                           indf1	equ	0xFE7
  2906                           postdec1	equ	0xFE5
  2907                           fsr1h	equ	0xFE2
  2908                           fsr1l	equ	0xFE1
  2909                           indf2	equ	0xFDF
  2910                           postinc2	equ	0xFDE
  2911                           postdec2	equ	0xFDD
  2912                           fsr2h	equ	0xFDA
  2913                           fsr2l	equ	0xFD9
  2914                           status	equ	0xFD8
  2915                           
  2916 ;; *************** function _Sht11Write *****************
  2917 ;; Defined at:
  2918 ;;		line 51 in file "sht/sht.c"
  2919 ;; Parameters:    Size  Location     Type
  2920 ;;  value           1    wreg     unsigned char 
  2921 ;; Auto vars:     Size  Location     Type
  2922 ;;  value           1    1[COMRAM] unsigned char 
  2923 ;;  i               1    3[COMRAM] unsigned char 
  2924 ;;  error           1    2[COMRAM] unsigned char 
  2925 ;; Return value:  Size  Location     Type
  2926 ;;                  1    wreg      unsigned char 
  2927 ;; Registers used:
  2928 ;;		wreg, status,2, status,0, cstack
  2929 ;; Tracked objects:
  2930 ;;		On entry : 0/0
  2931 ;;		On exit  : 0/0
  2932 ;;		Unchanged: 0/0
  2933 ;; Data sizes:     COMRAM   BANK0   BANK1   BANK2   BANK3   BANK4   BANK5   BANK6   BANK7   BANK8   BANK9  BANK10  BANK1
      +1  BANK12  BANK13  BANK14
  2934 ;;      Params:         0       0       0       0       0       0       0       0       0       0       0       0       
      +0       0       0       0
  2935 ;;      Locals:         3       0       0       0       0       0       0       0       0       0       0       0       
      +0       0       0       0
  2936 ;;      Temps:          0       0       0       0       0       0       0       0       0       0       0       0       
      +0       0       0       0
  2937 ;;      Totals:         3       0       0       0       0       0       0       0       0       0       0       0       
      +0       0       0       0
  2938 ;;Total ram usage:        3 bytes
  2939 ;; Hardware stack levels used:    1
  2940 ;; Hardware stack levels required when called:    1
  2941 ;; This function calls:
  2942 ;;		_Delay10TCYx
  2943 ;; This function is called by:
  2944 ;;		_Sht11MeasureParam
  2945 ;; This function uses a non-reentrant model
  2946 ;;
  2947                           
  2948                           	psect	text22
  2949  001650                     __ptext22:
  2950                           	opt stack 0
  2951  001650                     _Sht11Write:
  2952                           	opt stack 25
  2953                           
  2954                           ;incstack = 0
  2955                           ;Sht11Write@value stored from wreg
  2956  001650  6E02               	movwf	Sht11Write@value,c
  2957                           
  2958                           ;sht.c: 52: uint8_t i, error = 0;
  2959  001652  0E00               	movlw	0
  2960  001654  6E03               	movwf	Sht11Write@error,c
  2961                           
  2962                           ;sht.c: 54: for (i = 0x80; i > 0; i /= 2) {
  2963  001656  0E80               	movlw	128
  2964  001658  6E04               	movwf	Sht11Write@i,c
  2965  00165A                     l1263:
  2966  00165A  5004               	movf	Sht11Write@i,w,c
  2967  00165C  B4D8               	btfsc	status,2,c
  2968  00165E  D019               	goto	l86
  2969  001660  D001               	goto	l1267
  2970  001662  D017               	goto	l86
  2971  001664                     l1267:
  2972                           
  2973                           ;sht.c: 55: if (i & value) {
  2974  001664  5004               	movf	Sht11Write@i,w,c
  2975  001666  1402               	andwf	Sht11Write@value,w,c
  2976  001668  0900               	iorlw	0
  2977  00166A  B4D8               	btfsc	status,2,c
  2978  00166C  D002               	goto	l87
  2979                           
  2980                           ;sht.c: 56: LATAbits.LATA0 = 1;
  2981  00166E  8089               	bsf	3977,0,c	;volatile
  2982                           
  2983                           ;sht.c: 57: } else {
  2984  001670  D002               	goto	l1271
  2985  001672                     l87:
  2986                           
  2987                           ;sht.c: 58: LATAbits.LATA0 = 0;
  2988  001672  9089               	bcf	3977,0,c	;volatile
  2989  001674  D000               	goto	l1271
  2990  001676                     l1271:
  2991                           
  2992                           ;sht.c: 59: }
  2993                           ;sht.c: 60: Delay10TCYx(10);
  2994  001676  0E0A               	movlw	10
  2995  001678  EC87  F00D         	call	_Delay10TCYx
  2996                           
  2997                           ;sht.c: 61: LATAbits.LATA1 = 1;
  2998  00167C  8289               	bsf	3977,1,c	;volatile
  2999                           
  3000                           ;sht.c: 62: Delay10TCYx(10);
  3001  00167E  0E0A               	movlw	10
  3002  001680  EC87  F00D         	call	_Delay10TCYx
  3003                           
  3004                           ;sht.c: 63: LATAbits.LATA1 = 0;
  3005  001684  9289               	bcf	3977,1,c	;volatile
  3006                           
  3007                           ;sht.c: 64: Delay10TCYx(10);
  3008  001686  0E0A               	movlw	10
  3009  001688  EC87  F00D         	call	_Delay10TCYx
  3010  00168C  90D8               	bcf	status,0,c
  3011  00168E  3204               	rrcf	Sht11Write@i,f,c
  3012  001690  D7E4               	goto	l1263
  3013  001692                     l86:
  3014                           
  3015                           ;sht.c: 65: }
  3016                           ;sht.c: 66: LATAbits.LATA0 = 1;
  3017  001692  8089               	bsf	3977,0,c	;volatile
  3018                           
  3019                           ;sht.c: 67: Delay10TCYx(10);
  3020  001694  0E0A               	movlw	10
  3021  001696  EC87  F00D         	call	_Delay10TCYx
  3022                           
  3023                           ;sht.c: 68: LATAbits.LATA1 = 1;
  3024  00169A  8289               	bsf	3977,1,c	;volatile
  3025                           
  3026                           ;sht.c: 69: Delay10TCYx(10);
  3027  00169C  0E0A               	movlw	10
  3028  00169E  EC87  F00D         	call	_Delay10TCYx
  3029                           
  3030                           ;sht.c: 71: TRISAbits.TRISA0 = 1;
  3031  0016A2  8092               	bsf	3986,0,c	;volatile
  3032                           
  3033                           ;sht.c: 73: error = PORTAbits.RA0;
  3034  0016A4  0E00               	movlw	0
  3035  0016A6  B080               	btfsc	3968,0,c	;volatile
  3036  0016A8  0E01               	movlw	1
  3037  0016AA  6E03               	movwf	Sht11Write@error,c
  3038                           
  3039                           ;sht.c: 74: LATAbits.LATA1 = 0;
  3040  0016AC  9289               	bcf	3977,1,c	;volatile
  3041                           
  3042                           ;sht.c: 75: return error;
  3043  0016AE  5003               	movf	Sht11Write@error,w,c
  3044  0016B0  0012               	return	
  3045  0016B2  0012               	return		;funcret
  3046  0016B4                     __end_of_Sht11Write:
  3047                           	opt stack 0
  3048                           tblptru	equ	0xFF8
  3049                           tblptrh	equ	0xFF7
  3050                           tblptrl	equ	0xFF6
  3051                           tablat	equ	0xFF5
  3052                           prodh	equ	0xFF4
  3053                           prodl	equ	0xFF3
  3054                           intcon	equ	0xFF2
  3055                           intcon2	equ	0xFF1
  3056                           postinc0	equ	0xFEE
  3057                           wreg	equ	0xFE8
  3058                           indf1	equ	0xFE7
  3059                           postdec1	equ	0xFE5
  3060                           fsr1h	equ	0xFE2
  3061                           fsr1l	equ	0xFE1
  3062                           indf2	equ	0xFDF
  3063                           postinc2	equ	0xFDE
  3064                           postdec2	equ	0xFDD
  3065                           fsr2h	equ	0xFDA
  3066                           fsr2l	equ	0xFD9
  3067                           status	equ	0xFD8
  3068                           
  3069 ;; *************** function _Sht11Start *****************
  3070 ;; Defined at:
  3071 ;;		line 107 in file "sht/sht.c"
  3072 ;; Parameters:    Size  Location     Type
  3073 ;;		None
  3074 ;; Auto vars:     Size  Location     Type
  3075 ;;		None
  3076 ;; Return value:  Size  Location     Type
  3077 ;;		None               void
  3078 ;; Registers used:
  3079 ;;		wreg, cstack
  3080 ;; Tracked objects:
  3081 ;;		On entry : 0/0
  3082 ;;		On exit  : 0/0
  3083 ;;		Unchanged: 0/0
  3084 ;; Data sizes:     COMRAM   BANK0   BANK1   BANK2   BANK3   BANK4   BANK5   BANK6   BANK7   BANK8   BANK9  BANK10  BANK1
      +1  BANK12  BANK13  BANK14
  3085 ;;      Params:         0       0       0       0       0       0       0       0       0       0       0       0       
      +0       0       0       0
  3086 ;;      Locals:         0       0       0       0       0       0       0       0       0       0       0       0       
      +0       0       0       0
  3087 ;;      Temps:          0       0       0       0       0       0       0       0       0       0       0       0       
      +0       0       0       0
  3088 ;;      Totals:         0       0       0       0       0       0       0       0       0       0       0       0       
      +0       0       0       0
  3089 ;;Total ram usage:        0 bytes
  3090 ;; Hardware stack levels used:    1
  3091 ;; Hardware stack levels required when called:    1
  3092 ;; This function calls:
  3093 ;;		_Delay10TCYx
  3094 ;; This function is called by:
  3095 ;;		_Sht11MeasureParam
  3096 ;; This function uses a non-reentrant model
  3097 ;;
  3098                           
  3099                           	psect	text23
  3100  00190C                     __ptext23:
  3101                           	opt stack 0
  3102  00190C                     _Sht11Start:
  3103                           	opt stack 25
  3104                           
  3105                           ;sht.c: 108: LATAbits.LATA0 = 1;
  3106                           
  3107                           ;incstack = 0
  3108  00190C  8089               	bsf	3977,0,c	;volatile
  3109                           
  3110                           ;sht.c: 109: LATAbits.LATA1 = 0;
  3111  00190E  9289               	bcf	3977,1,c	;volatile
  3112                           
  3113                           ;sht.c: 110: Delay10TCYx(10);
  3114  001910  0E0A               	movlw	10
  3115  001912  EC87  F00D         	call	_Delay10TCYx
  3116                           
  3117                           ;sht.c: 111: LATAbits.LATA1 = 1;
  3118  001916  8289               	bsf	3977,1,c	;volatile
  3119                           
  3120                           ;sht.c: 112: Delay10TCYx(10);
  3121  001918  0E0A               	movlw	10
  3122  00191A  EC87  F00D         	call	_Delay10TCYx
  3123                           
  3124                           ;sht.c: 113: LATAbits.LATA0 = 0;
  3125  00191E  9089               	bcf	3977,0,c	;volatile
  3126                           
  3127                           ;sht.c: 114: Delay10TCYx(10);
  3128  001920  0E0A               	movlw	10
  3129  001922  EC87  F00D         	call	_Delay10TCYx
  3130                           
  3131                           ;sht.c: 115: LATAbits.LATA1 = 0;
  3132  001926  9289               	bcf	3977,1,c	;volatile
  3133                           
  3134                           ;sht.c: 116: Delay10TCYx(10);
  3135  001928  0E0A               	movlw	10
  3136  00192A  EC87  F00D         	call	_Delay10TCYx
  3137                           
  3138                           ;sht.c: 117: LATAbits.LATA1 = 1;
  3139  00192E  8289               	bsf	3977,1,c	;volatile
  3140                           
  3141                           ;sht.c: 118: Delay10TCYx(10);
  3142  001930  0E0A               	movlw	10
  3143  001932  EC87  F00D         	call	_Delay10TCYx
  3144                           
  3145                           ;sht.c: 119: LATAbits.LATA0 = 1;
  3146  001936  8089               	bsf	3977,0,c	;volatile
  3147                           
  3148                           ;sht.c: 120: Delay10TCYx(10);
  3149  001938  0E0A               	movlw	10
  3150  00193A  EC87  F00D         	call	_Delay10TCYx
  3151                           
  3152                           ;sht.c: 121: LATAbits.LATA1 = 0;
  3153  00193E  9289               	bcf	3977,1,c	;volatile
  3154  001940  0012               	return		;funcret
  3155  001942                     __end_of_Sht11Start:
  3156                           	opt stack 0
  3157                           tblptru	equ	0xFF8
  3158                           tblptrh	equ	0xFF7
  3159                           tblptrl	equ	0xFF6
  3160                           tablat	equ	0xFF5
  3161                           prodh	equ	0xFF4
  3162                           prodl	equ	0xFF3
  3163                           intcon	equ	0xFF2
  3164                           intcon2	equ	0xFF1
  3165                           postinc0	equ	0xFEE
  3166                           wreg	equ	0xFE8
  3167                           indf1	equ	0xFE7
  3168                           postdec1	equ	0xFE5
  3169                           fsr1h	equ	0xFE2
  3170                           fsr1l	equ	0xFE1
  3171                           indf2	equ	0xFDF
  3172                           postinc2	equ	0xFDE
  3173                           postdec2	equ	0xFDD
  3174                           fsr2h	equ	0xFDA
  3175                           fsr2l	equ	0xFD9
  3176                           status	equ	0xFD8
  3177                           
  3178 ;; *************** function _Sht11Read *****************
  3179 ;; Defined at:
  3180 ;;		line 78 in file "sht/sht.c"
  3181 ;; Parameters:    Size  Location     Type
  3182 ;;  ack             1    wreg     unsigned char 
  3183 ;; Auto vars:     Size  Location     Type
  3184 ;;  ack             1    1[COMRAM] unsigned char 
  3185 ;;  i               1    3[COMRAM] unsigned char 
  3186 ;;  val             1    2[COMRAM] unsigned char 
  3187 ;; Return value:  Size  Location     Type
  3188 ;;                  1    wreg      unsigned char 
  3189 ;; Registers used:
  3190 ;;		wreg, status,2, status,0, cstack
  3191 ;; Tracked objects:
  3192 ;;		On entry : 0/0
  3193 ;;		On exit  : 0/0
  3194 ;;		Unchanged: 0/0
  3195 ;; Data sizes:     COMRAM   BANK0   BANK1   BANK2   BANK3   BANK4   BANK5   BANK6   BANK7   BANK8   BANK9  BANK10  BANK1
      +1  BANK12  BANK13  BANK14
  3196 ;;      Params:         0       0       0       0       0       0       0       0       0       0       0       0       
      +0       0       0       0
  3197 ;;      Locals:         3       0       0       0       0       0       0       0       0       0       0       0       
      +0       0       0       0
  3198 ;;      Temps:          0       0       0       0       0       0       0       0       0       0       0       0       
      +0       0       0       0
  3199 ;;      Totals:         3       0       0       0       0       0       0       0       0       0       0       0       
      +0       0       0       0
  3200 ;;Total ram usage:        3 bytes
  3201 ;; Hardware stack levels used:    1
  3202 ;; Hardware stack levels required when called:    1
  3203 ;; This function calls:
  3204 ;;		_Delay10TCYx
  3205 ;; This function is called by:
  3206 ;;		_Sht11MeasureParam
  3207 ;; This function uses a non-reentrant model
  3208 ;;
  3209                           
  3210                           	psect	text24
  3211  0016B4                     __ptext24:
  3212                           	opt stack 0
  3213  0016B4                     _Sht11Read:
  3214                           	opt stack 25
  3215                           
  3216                           ;incstack = 0
  3217                           ;Sht11Read@ack stored from wreg
  3218  0016B4  6E02               	movwf	Sht11Read@ack,c
  3219                           
  3220                           ;sht.c: 79: uint8_t i, val = 0;
  3221  0016B6  0E00               	movlw	0
  3222  0016B8  6E03               	movwf	Sht11Read@val,c
  3223                           
  3224                           ;sht.c: 80: TRISAbits.TRISA0 = 1;
  3225  0016BA  8092               	bsf	3986,0,c	;volatile
  3226                           
  3227                           ;sht.c: 81: LATAbits.LATA0 = 1;
  3228  0016BC  8089               	bsf	3977,0,c	;volatile
  3229                           
  3230                           ;sht.c: 82: for (i = 0x80; i > 0; i /= 2)
  3231  0016BE  0E80               	movlw	128
  3232  0016C0  6E04               	movwf	Sht11Read@i,c
  3233  0016C2                     l1301:
  3234  0016C2  5004               	movf	Sht11Read@i,w,c
  3235  0016C4  B4D8               	btfsc	status,2,c
  3236  0016C6  D013               	goto	l1321
  3237  0016C8  D001               	goto	l1305
  3238  0016CA  D011               	goto	l1321
  3239  0016CC                     l1305:
  3240                           
  3241                           ;sht.c: 83: {
  3242                           ;sht.c: 84: Delay10TCYx(10);
  3243  0016CC  0E0A               	movlw	10
  3244  0016CE  EC87  F00D         	call	_Delay10TCYx
  3245                           
  3246                           ;sht.c: 85: LATAbits.LATA1 = 1;
  3247  0016D2  8289               	bsf	3977,1,c	;volatile
  3248                           
  3249                           ;sht.c: 86: if (PORTAbits.RA0) {
  3250  0016D4  A080               	btfss	3968,0,c	;volatile
  3251  0016D6  D004               	goto	l1313
  3252                           
  3253                           ;sht.c: 87: val = (val | i);
  3254  0016D8  5003               	movf	Sht11Read@val,w,c
  3255  0016DA  1004               	iorwf	Sht11Read@i,w,c
  3256  0016DC  6E03               	movwf	Sht11Read@val,c
  3257  0016DE  D000               	goto	l1313
  3258  0016E0                     l1313:
  3259                           
  3260                           ;sht.c: 88: }
  3261                           ;sht.c: 89: Delay10TCYx(10);
  3262  0016E0  0E0A               	movlw	10
  3263  0016E2  EC87  F00D         	call	_Delay10TCYx
  3264                           
  3265                           ;sht.c: 90: LATAbits.LATA1 = 0;
  3266  0016E6  9289               	bcf	3977,1,c	;volatile
  3267  0016E8  90D8               	bcf	status,0,c
  3268  0016EA  3204               	rrcf	Sht11Read@i,f,c
  3269  0016EC  D7EA               	goto	l1301
  3270  0016EE                     l1321:
  3271                           
  3272                           ;sht.c: 91: }
  3273                           ;sht.c: 93: if (ack) {
  3274  0016EE  5002               	movf	Sht11Read@ack,w,c
  3275  0016F0  B4D8               	btfsc	status,2,c
  3276  0016F2  D003               	goto	l1325
  3277                           
  3278                           ;sht.c: 94: TRISAbits.TRISA0 = 0;
  3279  0016F4  9092               	bcf	3986,0,c	;volatile
  3280                           
  3281                           ;sht.c: 95: LATAbits.LATA0 = 0;
  3282  0016F6  9089               	bcf	3977,0,c	;volatile
  3283  0016F8  D000               	goto	l1325
  3284  0016FA                     l1325:
  3285                           
  3286                           ;sht.c: 96: }
  3287                           ;sht.c: 97: Delay10TCYx(10);
  3288  0016FA  0E0A               	movlw	10
  3289  0016FC  EC87  F00D         	call	_Delay10TCYx
  3290                           
  3291                           ;sht.c: 98: LATAbits.LATA1 = 1;
  3292  001700  8289               	bsf	3977,1,c	;volatile
  3293                           
  3294                           ;sht.c: 99: Delay10TCYx(10);
  3295  001702  0E0A               	movlw	10
  3296  001704  EC87  F00D         	call	_Delay10TCYx
  3297                           
  3298                           ;sht.c: 100: LATAbits.LATA1 = 0;
  3299  001708  9289               	bcf	3977,1,c	;volatile
  3300                           
  3301                           ;sht.c: 101: Delay10TCYx(10);
  3302  00170A  0E0A               	movlw	10
  3303  00170C  EC87  F00D         	call	_Delay10TCYx
  3304                           
  3305                           ;sht.c: 102: return val;
  3306  001710  5003               	movf	Sht11Read@val,w,c
  3307  001712  0012               	return	
  3308  001714  0012               	return		;funcret
  3309  001716                     __end_of_Sht11Read:
  3310                           	opt stack 0
  3311                           tblptru	equ	0xFF8
  3312                           tblptrh	equ	0xFF7
  3313                           tblptrl	equ	0xFF6
  3314                           tablat	equ	0xFF5
  3315                           prodh	equ	0xFF4
  3316                           prodl	equ	0xFF3
  3317                           intcon	equ	0xFF2
  3318                           intcon2	equ	0xFF1
  3319                           postinc0	equ	0xFEE
  3320                           wreg	equ	0xFE8
  3321                           indf1	equ	0xFE7
  3322                           postdec1	equ	0xFE5
  3323                           fsr1h	equ	0xFE2
  3324                           fsr1l	equ	0xFE1
  3325                           indf2	equ	0xFDF
  3326                           postinc2	equ	0xFDE
  3327                           postdec2	equ	0xFDD
  3328                           fsr2h	equ	0xFDA
  3329                           fsr2l	equ	0xFD9
  3330                           status	equ	0xFD8
  3331                           
  3332 ;; *************** function _Delay10TCYx *****************
  3333 ;; Defined at:
  3334 ;;		line 8 in file "C:\Program Files (x86)\Microchip\xc8\v1.34\sources\pic18\d10tcyx.c"
  3335 ;; Parameters:    Size  Location     Type
  3336 ;;  unit            1    wreg     unsigned char 
  3337 ;; Auto vars:     Size  Location     Type
  3338 ;;  unit            1    0[COMRAM] unsigned char 
  3339 ;; Return value:  Size  Location     Type
  3340 ;;		None               void
  3341 ;; Registers used:
  3342 ;;		wreg
  3343 ;; Tracked objects:
  3344 ;;		On entry : 0/0
  3345 ;;		On exit  : 0/0
  3346 ;;		Unchanged: 0/0
  3347 ;; Data sizes:     COMRAM   BANK0   BANK1   BANK2   BANK3   BANK4   BANK5   BANK6   BANK7   BANK8   BANK9  BANK10  BANK1
      +1  BANK12  BANK13  BANK14
  3348 ;;      Params:         0       0       0       0       0       0       0       0       0       0       0       0       
      +0       0       0       0
  3349 ;;      Locals:         1       0       0       0       0       0       0       0       0       0       0       0       
      +0       0       0       0
  3350 ;;      Temps:          0       0       0       0       0       0       0       0       0       0       0       0       
      +0       0       0       0
  3351 ;;      Totals:         1       0       0       0       0       0       0       0       0       0       0       0       
      +0       0       0       0
  3352 ;;Total ram usage:        1 bytes
  3353 ;; Hardware stack levels used:    1
  3354 ;; This function calls:
  3355 ;;		Nothing
  3356 ;; This function is called by:
  3357 ;;		_Sht11Write
  3358 ;;		_Sht11Read
  3359 ;;		_Sht11Start
  3360 ;; This function uses a non-reentrant model
  3361 ;;
  3362                           
  3363                           	psect	text25
  3364  001B0E                     __ptext25:
  3365                           	opt stack 0
  3366  001B0E                     _Delay10TCYx:
  3367                           	opt stack 25
  3368                           
  3369                           ;incstack = 0
  3370                           ;Delay10TCYx@unit stored from wreg
  3371  001B0E  6E01               	movwf	Delay10TCYx@unit,c
  3372  001B10  0E03               	movlw	3
  3373  001B12                     u797:
  3374  001B12  2EE8               	decfsz	wreg,f,c
  3375  001B14  D7FE               	goto	u797
  3376  001B16  F000               	nop	
  3377  001B18  2E01               	decfsz	Delay10TCYx@unit,f,c
  3378  001B1A  D7FA               	goto	l1253
  3379  001B1C  0012               	return	
  3380  001B1E  0012               	return		;funcret
  3381  001B20                     __end_of_Delay10TCYx:
  3382                           	opt stack 0
  3383                           tblptru	equ	0xFF8
  3384                           tblptrh	equ	0xFF7
  3385                           tblptrl	equ	0xFF6
  3386                           tablat	equ	0xFF5
  3387                           prodh	equ	0xFF4
  3388                           prodl	equ	0xFF3
  3389                           intcon	equ	0xFF2
  3390                           intcon2	equ	0xFF1
  3391                           postinc0	equ	0xFEE
  3392                           wreg	equ	0xFE8
  3393                           indf1	equ	0xFE7
  3394                           postdec1	equ	0xFE5
  3395                           fsr1h	equ	0xFE2
  3396                           fsr1l	equ	0xFE1
  3397                           indf2	equ	0xFDF
  3398                           postinc2	equ	0xFDE
  3399                           postdec2	equ	0xFDD
  3400                           fsr2h	equ	0xFDA
  3401                           fsr2l	equ	0xFD9
  3402                           status	equ	0xFD8
  3403                           
  3404 ;; *************** function _PowerUpSHT11 *****************
  3405 ;; Defined at:
  3406 ;;		line 46 in file "sensor_proxy.c"
  3407 ;; Parameters:    Size  Location     Type
  3408 ;;		None
  3409 ;; Auto vars:     Size  Location     Type
  3410 ;;		None
  3411 ;; Return value:  Size  Location     Type
  3412 ;;		None               void
  3413 ;; Registers used:
  3414 ;;		None
  3415 ;; Tracked objects:
  3416 ;;		On entry : 0/0
  3417 ;;		On exit  : 0/0
  3418 ;;		Unchanged: 0/0
  3419 ;; Data sizes:     COMRAM   BANK0   BANK1   BANK2   BANK3   BANK4   BANK5   BANK6   BANK7   BANK8   BANK9  BANK10  BANK1
      +1  BANK12  BANK13  BANK14
  3420 ;;      Params:         0       0       0       0       0       0       0       0       0       0       0       0       
      +0       0       0       0
  3421 ;;      Locals:         0       0       0       0       0       0       0       0       0       0       0       0       
      +0       0       0       0
  3422 ;;      Temps:          0       0       0       0       0       0       0       0       0       0       0       0       
      +0       0       0       0
  3423 ;;      Totals:         0       0       0       0       0       0       0       0       0       0       0       0       
      +0       0       0       0
  3424 ;;Total ram usage:        0 bytes
  3425 ;; Hardware stack levels used:    1
  3426 ;; This function calls:
  3427 ;;		Nothing
  3428 ;; This function is called by:
  3429 ;;		_MeasureSensors
  3430 ;; This function uses a non-reentrant model
  3431 ;;
  3432                           
  3433                           	psect	text26
  3434  001BF4                     __ptext26:
  3435                           	opt stack 0
  3436  001BF4                     _PowerUpSHT11:
  3437                           	opt stack 28
  3438                           
  3439                           ;sensor_proxy.c: 47: TRISAbits.TRISA5 = 0;
  3440                           
  3441                           ;incstack = 0
  3442  001BF4  9A92               	bcf	3986,5,c	;volatile
  3443                           
  3444                           ;sensor_proxy.c: 48: PORTAbits.RA5 = 1;
  3445  001BF6  8A80               	bsf	3968,5,c	;volatile
  3446  001BF8  0012               	return		;funcret
  3447  001BFA                     __end_of_PowerUpSHT11:
  3448                           	opt stack 0
  3449                           tblptru	equ	0xFF8
  3450                           tblptrh	equ	0xFF7
  3451                           tblptrl	equ	0xFF6
  3452                           tablat	equ	0xFF5
  3453                           prodh	equ	0xFF4
  3454                           prodl	equ	0xFF3
  3455                           intcon	equ	0xFF2
  3456                           intcon2	equ	0xFF1
  3457                           postinc0	equ	0xFEE
  3458                           wreg	equ	0xFE8
  3459                           indf1	equ	0xFE7
  3460                           postdec1	equ	0xFE5
  3461                           fsr1h	equ	0xFE2
  3462                           fsr1l	equ	0xFE1
  3463                           indf2	equ	0xFDF
  3464                           postinc2	equ	0xFDE
  3465                           postdec2	equ	0xFDD
  3466                           fsr2h	equ	0xFDA
  3467                           fsr2l	equ	0xFD9
  3468                           status	equ	0xFD8
  3469                           
  3470 ;; *************** function _PowerUpCO2Sensor *****************
  3471 ;; Defined at:
  3472 ;;		line 37 in file "sensor_proxy.c"
  3473 ;; Parameters:    Size  Location     Type
  3474 ;;		None
  3475 ;; Auto vars:     Size  Location     Type
  3476 ;;		None
  3477 ;; Return value:  Size  Location     Type
  3478 ;;		None               void
  3479 ;; Registers used:
  3480 ;;		None
  3481 ;; Tracked objects:
  3482 ;;		On entry : 0/0
  3483 ;;		On exit  : 0/0
  3484 ;;		Unchanged: 0/0
  3485 ;; Data sizes:     COMRAM   BANK0   BANK1   BANK2   BANK3   BANK4   BANK5   BANK6   BANK7   BANK8   BANK9  BANK10  BANK1
      +1  BANK12  BANK13  BANK14
  3486 ;;      Params:         0       0       0       0       0       0       0       0       0       0       0       0       
      +0       0       0       0
  3487 ;;      Locals:         0       0       0       0       0       0       0       0       0       0       0       0       
      +0       0       0       0
  3488 ;;      Temps:          0       0       0       0       0       0       0       0       0       0       0       0       
      +0       0       0       0
  3489 ;;      Totals:         0       0       0       0       0       0       0       0       0       0       0       0       
      +0       0       0       0
  3490 ;;Total ram usage:        0 bytes
  3491 ;; Hardware stack levels used:    1
  3492 ;; This function calls:
  3493 ;;		Nothing
  3494 ;; This function is called by:
  3495 ;;		_SensorProxyInit
  3496 ;;		_MeasureSensors
  3497 ;; This function uses a non-reentrant model
  3498 ;;
  3499                           
  3500                           	psect	text27
  3501  001BFA                     __ptext27:
  3502                           	opt stack 0
  3503  001BFA                     _PowerUpCO2Sensor:
  3504                           	opt stack 29
  3505                           
  3506                           ;sensor_proxy.c: 38: TRISBbits.TRISB2 = 0;
  3507                           
  3508                           ;incstack = 0
  3509  001BFA  9493               	bcf	3987,2,c	;volatile
  3510                           
  3511                           ;sensor_proxy.c: 39: PORTBbits.RB2 = 1;
  3512  001BFC  8481               	bsf	3969,2,c	;volatile
  3513  001BFE  0012               	return		;funcret
  3514  001C00                     __end_of_PowerUpCO2Sensor:
  3515                           	opt stack 0
  3516                           tblptru	equ	0xFF8
  3517                           tblptrh	equ	0xFF7
  3518                           tblptrl	equ	0xFF6
  3519                           tablat	equ	0xFF5
  3520                           prodh	equ	0xFF4
  3521                           prodl	equ	0xFF3
  3522                           intcon	equ	0xFF2
  3523                           intcon2	equ	0xFF1
  3524                           postinc0	equ	0xFEE
  3525                           wreg	equ	0xFE8
  3526                           indf1	equ	0xFE7
  3527                           postdec1	equ	0xFE5
  3528                           fsr1h	equ	0xFE2
  3529                           fsr1l	equ	0xFE1
  3530                           indf2	equ	0xFDF
  3531                           postinc2	equ	0xFDE
  3532                           postdec2	equ	0xFDD
  3533                           fsr2h	equ	0xFDA
  3534                           fsr2l	equ	0xFD9
  3535                           status	equ	0xFD8
  3536                           
  3537 ;; *************** function _PowerDownSHT11 *****************
  3538 ;; Defined at:
  3539 ;;		line 51 in file "sensor_proxy.c"
  3540 ;; Parameters:    Size  Location     Type
  3541 ;;		None
  3542 ;; Auto vars:     Size  Location     Type
  3543 ;;		None
  3544 ;; Return value:  Size  Location     Type
  3545 ;;		None               void
  3546 ;; Registers used:
  3547 ;;		None
  3548 ;; Tracked objects:
  3549 ;;		On entry : 0/0
  3550 ;;		On exit  : 0/0
  3551 ;;		Unchanged: 0/0
  3552 ;; Data sizes:     COMRAM   BANK0   BANK1   BANK2   BANK3   BANK4   BANK5   BANK6   BANK7   BANK8   BANK9  BANK10  BANK1
      +1  BANK12  BANK13  BANK14
  3553 ;;      Params:         0       0       0       0       0       0       0       0       0       0       0       0       
      +0       0       0       0
  3554 ;;      Locals:         0       0       0       0       0       0       0       0       0       0       0       0       
      +0       0       0       0
  3555 ;;      Temps:          0       0       0       0       0       0       0       0       0       0       0       0       
      +0       0       0       0
  3556 ;;      Totals:         0       0       0       0       0       0       0       0       0       0       0       0       
      +0       0       0       0
  3557 ;;Total ram usage:        0 bytes
  3558 ;; Hardware stack levels used:    1
  3559 ;; This function calls:
  3560 ;;		Nothing
  3561 ;; This function is called by:
  3562 ;;		_MeasureSensors
  3563 ;; This function uses a non-reentrant model
  3564 ;;
  3565                           
  3566                           	psect	text28
  3567  001C0C                     __ptext28:
  3568                           	opt stack 0
  3569  001C0C                     _PowerDownSHT11:
  3570                           	opt stack 28
  3571                           
  3572                           ;sensor_proxy.c: 52: PORTAbits.RA5 = 0;
  3573                           
  3574                           ;incstack = 0
  3575  001C0C  9A80               	bcf	3968,5,c	;volatile
  3576  001C0E  0012               	return		;funcret
  3577  001C10                     __end_of_PowerDownSHT11:
  3578                           	opt stack 0
  3579                           tblptru	equ	0xFF8
  3580                           tblptrh	equ	0xFF7
  3581                           tblptrl	equ	0xFF6
  3582                           tablat	equ	0xFF5
  3583                           prodh	equ	0xFF4
  3584                           prodl	equ	0xFF3
  3585                           intcon	equ	0xFF2
  3586                           intcon2	equ	0xFF1
  3587                           postinc0	equ	0xFEE
  3588                           wreg	equ	0xFE8
  3589                           indf1	equ	0xFE7
  3590                           postdec1	equ	0xFE5
  3591                           fsr1h	equ	0xFE2
  3592                           fsr1l	equ	0xFE1
  3593                           indf2	equ	0xFDF
  3594                           postinc2	equ	0xFDE
  3595                           postdec2	equ	0xFDD
  3596                           fsr2h	equ	0xFDA
  3597                           fsr2l	equ	0xFD9
  3598                           status	equ	0xFD8
  3599                           
  3600 ;; *************** function _Co2D1Measure *****************
  3601 ;; Defined at:
  3602 ;;		line 11 in file "co2-d1/co2-d1.c"
  3603 ;; Parameters:    Size  Location     Type
  3604 ;;  data            2   13[COMRAM] PTR struct .
  3605 ;;		 -> co2d1Data(4), 
  3606 ;; Auto vars:     Size  Location     Type
  3607 ;;		None
  3608 ;; Return value:  Size  Location     Type
  3609 ;;		None               void
  3610 ;; Registers used:
  3611 ;;		wreg, fsr2l, fsr2h, status,2, status,0, cstack
  3612 ;; Tracked objects:
  3613 ;;		On entry : 0/0
  3614 ;;		On exit  : 0/0
  3615 ;;		Unchanged: 0/0
  3616 ;; Data sizes:     COMRAM   BANK0   BANK1   BANK2   BANK3   BANK4   BANK5   BANK6   BANK7   BANK8   BANK9  BANK10  BANK1
      +1  BANK12  BANK13  BANK14
  3617 ;;      Params:         2       0       0       0       0       0       0       0       0       0       0       0       
      +0       0       0       0
  3618 ;;      Locals:         0       0       0       0       0       0       0       0       0       0       0       0       
      +0       0       0       0
  3619 ;;      Temps:          0       0       0       0       0       0       0       0       0       0       0       0       
      +0       0       0       0
  3620 ;;      Totals:         2       0       0       0       0       0       0       0       0       0       0       0       
      +0       0       0       0
  3621 ;;Total ram usage:        2 bytes
  3622 ;; Hardware stack levels used:    1
  3623 ;; Hardware stack levels required when called:    2
  3624 ;; This function calls:
  3625 ;;		_AdcConvert
  3626 ;; This function is called by:
  3627 ;;		_MeasureSensors
  3628 ;; This function uses a non-reentrant model
  3629 ;;
  3630                           
  3631                           	psect	text29
  3632  001A2A                     __ptext29:
  3633                           	opt stack 0
  3634  001A2A                     _Co2D1Measure:
  3635                           	opt stack 26
  3636                           
  3637                           ;co2-d1.c: 12: AdcConvert(10, &data->co2sense);
  3638                           
  3639                           ;incstack = 0
  3640  001A2A  0E02               	movlw	2
  3641  001A2C  240E               	addwf	Co2D1Measure@data,w,c
  3642  001A2E  6E03               	movwf	AdcConvert@result,c
  3643  001A30  0E00               	movlw	0
  3644  001A32  200F               	addwfc	Co2D1Measure@data+1,w,c
  3645  001A34  6E04               	movwf	AdcConvert@result+1,c
  3646  001A36  0E0A               	movlw	10
  3647  001A38  EC70  F00A         	call	_AdcConvert
  3648                           
  3649                           ;co2-d1.c: 13: AdcConvert(9, &data->co2ref);
  3650  001A3C  C00E  F003         	movff	Co2D1Measure@data,AdcConvert@result
  3651  001A40  C00F  F004         	movff	Co2D1Measure@data+1,AdcConvert@result+1
  3652  001A44  0E09               	movlw	9
  3653  001A46  EC70  F00A         	call	_AdcConvert
  3654  001A4A  0012               	return		;funcret
  3655  001A4C                     __end_of_Co2D1Measure:
  3656                           	opt stack 0
  3657                           tblptru	equ	0xFF8
  3658                           tblptrh	equ	0xFF7
  3659                           tblptrl	equ	0xFF6
  3660                           tablat	equ	0xFF5
  3661                           prodh	equ	0xFF4
  3662                           prodl	equ	0xFF3
  3663                           intcon	equ	0xFF2
  3664                           intcon2	equ	0xFF1
  3665                           postinc0	equ	0xFEE
  3666                           wreg	equ	0xFE8
  3667                           indf1	equ	0xFE7
  3668                           postdec1	equ	0xFE5
  3669                           fsr1h	equ	0xFE2
  3670                           fsr1l	equ	0xFE1
  3671                           indf2	equ	0xFDF
  3672                           postinc2	equ	0xFDE
  3673                           postdec2	equ	0xFDD
  3674                           fsr2h	equ	0xFDA
  3675                           fsr2l	equ	0xFD9
  3676                           status	equ	0xFD8
  3677                           
  3678 ;; *************** function _AdcConvert *****************
  3679 ;; Defined at:
  3680 ;;		line 30 in file "adc/averaged_adc.c"
  3681 ;; Parameters:    Size  Location     Type
  3682 ;;  channel         1    wreg     unsigned char 
  3683 ;;  result          2    2[COMRAM] PTR unsigned int 
  3684 ;;		 -> co2d1Data(4), 
  3685 ;; Auto vars:     Size  Location     Type
  3686 ;;  channel         1    7[COMRAM] unsigned char 
  3687 ;;  tmp             4    8[COMRAM] unsigned long 
  3688 ;;  i               1   12[COMRAM] unsigned char 
  3689 ;; Return value:  Size  Location     Type
  3690 ;;		None               void
  3691 ;; Registers used:
  3692 ;;		wreg, fsr2l, fsr2h, status,2, status,0, cstack
  3693 ;; Tracked objects:
  3694 ;;		On entry : 0/0
  3695 ;;		On exit  : 0/0
  3696 ;;		Unchanged: 0/0
  3697 ;; Data sizes:     COMRAM   BANK0   BANK1   BANK2   BANK3   BANK4   BANK5   BANK6   BANK7   BANK8   BANK9  BANK10  BANK1
      +1  BANK12  BANK13  BANK14
  3698 ;;      Params:         2       0       0       0       0       0       0       0       0       0       0       0       
      +0       0       0       0
  3699 ;;      Locals:         6       0       0       0       0       0       0       0       0       0       0       0       
      +0       0       0       0
  3700 ;;      Temps:          3       0       0       0       0       0       0       0       0       0       0       0       
      +0       0       0       0
  3701 ;;      Totals:        11       0       0       0       0       0       0       0       0       0       0       0       
      +0       0       0       0
  3702 ;;Total ram usage:       11 bytes
  3703 ;; Hardware stack levels used:    1
  3704 ;; Hardware stack levels required when called:    1
  3705 ;; This function calls:
  3706 ;;		_AdcCalibrate
  3707 ;;		_AdcReadValue
  3708 ;; This function is called by:
  3709 ;;		_Co2D1Measure
  3710 ;; This function uses a non-reentrant model
  3711 ;;
  3712                           
  3713                           	psect	text30
  3714  0014E0                     __ptext30:
  3715                           	opt stack 0
  3716  0014E0                     _AdcConvert:
  3717                           	opt stack 26
  3718                           
  3719                           ;incstack = 0
  3720                           ;AdcConvert@channel stored from wreg
  3721  0014E0  6E08               	movwf	AdcConvert@channel,c
  3722                           
  3723                           ;averaged_adc.c: 31: uint32_t tmp = 0;
  3724  0014E2  0E00               	movlw	0
  3725  0014E4  6E09               	movwf	AdcConvert@tmp,c
  3726  0014E6  0E00               	movlw	0
  3727  0014E8  6E0A               	movwf	AdcConvert@tmp+1,c
  3728  0014EA  0E00               	movlw	0
  3729  0014EC  6E0B               	movwf	AdcConvert@tmp+2,c
  3730  0014EE  0E00               	movlw	0
  3731  0014F0  6E0C               	movwf	AdcConvert@tmp+3,c
  3732                           
  3733                           ;averaged_adc.c: 32: uint8_t i = 16;
  3734  0014F2  0E10               	movlw	16
  3735  0014F4  6E0D               	movwf	AdcConvert@i,c
  3736                           
  3737                           ;averaged_adc.c: 33: ADCON0bits.CHS = channel;
  3738  0014F6  C008  F005         	movff	AdcConvert@channel,??_AdcConvert
  3739  0014FA  4605               	rlncf	??_AdcConvert,f,c
  3740  0014FC  4605               	rlncf	??_AdcConvert,f,c
  3741  0014FE  50C2               	movf	4034,w,c	;volatile
  3742  001500  1805               	xorwf	??_AdcConvert,w,c
  3743  001502  0BC3               	andlw	-61
  3744  001504  1805               	xorwf	??_AdcConvert,w,c
  3745  001506  6EC2               	movwf	4034,c	;volatile
  3746                           
  3747                           ;averaged_adc.c: 34: ADCON0bits.ADON = 1;
  3748  001508  80C2               	bsf	4034,0,c	;volatile
  3749                           
  3750                           ;averaged_adc.c: 35: AdcCalibrate();
  3751  00150A  ECC0  F00D         	call	_AdcCalibrate	;wreg free
  3752                           
  3753                           ;averaged_adc.c: 36: while (i--) {
  3754  00150E  D010               	goto	l2033
  3755  001510                     l2027:
  3756                           
  3757                           ;averaged_adc.c: 37: ADRES = 0;
  3758  001510  0E00               	movlw	0
  3759  001512  6EC4               	movwf	4036,c	;volatile
  3760  001514  0E00               	movlw	0
  3761  001516  6EC3               	movwf	4035,c	;volatile
  3762                           
  3763                           ;averaged_adc.c: 38: ADCON0bits.GO = 1;
  3764  001518  82C2               	bsf	4034,1,c	;volatile
  3765                           
  3766                           ;averaged_adc.c: 39: tmp += AdcReadValue();
  3767  00151A  ECA2  F00D         	call	_AdcReadValue	;wreg free
  3768  00151E  5001               	movf	?_AdcReadValue,w,c
  3769  001520  2609               	addwf	AdcConvert@tmp,f,c
  3770  001522  5002               	movf	?_AdcReadValue+1,w,c
  3771  001524  220A               	addwfc	AdcConvert@tmp+1,f,c
  3772  001526  0E00               	movlw	0
  3773  001528  220B               	addwfc	AdcConvert@tmp+2,f,c
  3774  00152A  0E00               	movlw	0
  3775  00152C  220C               	addwfc	AdcConvert@tmp+3,f,c
  3776  00152E  D000               	goto	l2033
  3777  001530                     l2033:
  3778  001530  060D               	decf	AdcConvert@i,f,c
  3779  001532  280D               	incf	AdcConvert@i,w,c
  3780  001534  A4D8               	btfss	status,2,c
  3781  001536  D7EC               	goto	l2027
  3782                           
  3783                           ;averaged_adc.c: 40: }
  3784                           ;averaged_adc.c: 41: *result = (uint16_t) tmp >> 4;
  3785  001538  C009  F005         	movff	AdcConvert@tmp,??_AdcConvert
  3786  00153C  C00A  F006         	movff	AdcConvert@tmp+1,??_AdcConvert+1
  3787  001540  0E04               	movlw	4
  3788  001542  6E07               	movwf	(??_AdcConvert+2)& (0+255),c
  3789  001544                     u525:
  3790  001544  90D8               	bcf	status,0,c
  3791  001546  3206               	rrcf	??_AdcConvert+1,f,c
  3792  001548  3205               	rrcf	??_AdcConvert,f,c
  3793  00154A  2E07               	decfsz	(??_AdcConvert+2)& (0+255),f,c
  3794  00154C  D7FB               	goto	u525
  3795  00154E  C003  FFD9         	movff	AdcConvert@result,fsr2l
  3796  001552  C004  FFDA         	movff	AdcConvert@result+1,fsr2h
  3797  001556  C005  FFDE         	movff	??_AdcConvert,postinc2
  3798  00155A  C006  FFDD         	movff	??_AdcConvert+1,postdec2
  3799                           
  3800                           ;averaged_adc.c: 42: ADCON0bits.ADON = 0;
  3801  00155E  90C2               	bcf	4034,0,c	;volatile
  3802  001560  0012               	return		;funcret
  3803  001562                     __end_of_AdcConvert:
  3804                           	opt stack 0
  3805                           tblptru	equ	0xFF8
  3806                           tblptrh	equ	0xFF7
  3807                           tblptrl	equ	0xFF6
  3808                           tablat	equ	0xFF5
  3809                           prodh	equ	0xFF4
  3810                           prodl	equ	0xFF3
  3811                           intcon	equ	0xFF2
  3812                           intcon2	equ	0xFF1
  3813                           postinc0	equ	0xFEE
  3814                           wreg	equ	0xFE8
  3815                           indf1	equ	0xFE7
  3816                           postdec1	equ	0xFE5
  3817                           fsr1h	equ	0xFE2
  3818                           fsr1l	equ	0xFE1
  3819                           indf2	equ	0xFDF
  3820                           postinc2	equ	0xFDE
  3821                           postdec2	equ	0xFDD
  3822                           fsr2h	equ	0xFDA
  3823                           fsr2l	equ	0xFD9
  3824                           status	equ	0xFD8
  3825                           
  3826 ;; *************** function _AdcReadValue *****************
  3827 ;; Defined at:
  3828 ;;		line 58 in file "adc/averaged_adc.c"
  3829 ;; Parameters:    Size  Location     Type
  3830 ;;		None
  3831 ;; Auto vars:     Size  Location     Type
  3832 ;;		None
  3833 ;; Return value:  Size  Location     Type
  3834 ;;                  2    0[COMRAM] unsigned int 
  3835 ;; Registers used:
  3836 ;;		None
  3837 ;; Tracked objects:
  3838 ;;		On entry : 0/0
  3839 ;;		On exit  : 0/0
  3840 ;;		Unchanged: 0/0
  3841 ;; Data sizes:     COMRAM   BANK0   BANK1   BANK2   BANK3   BANK4   BANK5   BANK6   BANK7   BANK8   BANK9  BANK10  BANK1
      +1  BANK12  BANK13  BANK14
  3842 ;;      Params:         2       0       0       0       0       0       0       0       0       0       0       0       
      +0       0       0       0
  3843 ;;      Locals:         0       0       0       0       0       0       0       0       0       0       0       0       
      +0       0       0       0
  3844 ;;      Temps:          0       0       0       0       0       0       0       0       0       0       0       0       
      +0       0       0       0
  3845 ;;      Totals:         2       0       0       0       0       0       0       0       0       0       0       0       
      +0       0       0       0
  3846 ;;Total ram usage:        2 bytes
  3847 ;; Hardware stack levels used:    1
  3848 ;; This function calls:
  3849 ;;		Nothing
  3850 ;; This function is called by:
  3851 ;;		_AdcConvert
  3852 ;; This function uses a non-reentrant model
  3853 ;;
  3854                           
  3855                           	psect	text31
  3856  001B44                     __ptext31:
  3857                           	opt stack 0
  3858  001B44                     _AdcReadValue:
  3859                           	opt stack 26
  3860                           
  3861                           ;averaged_adc.c: 59: while (ADCON0bits.NOT_DONE);
  3862                           
  3863                           ;incstack = 0
  3864  001B44  D000               	goto	l30
  3865  001B46                     l30:
  3866  001B46  B2C2               	btfsc	4034,1,c	;volatile
  3867  001B48  D7FE               	goto	l30
  3868                           
  3869                           ;averaged_adc.c: 60: return ADRES;
  3870  001B4A  CFC3 F001          	movff	4035,?_AdcReadValue	;volatile
  3871  001B4E  CFC4 F002          	movff	4036,?_AdcReadValue+1	;volatile
  3872  001B52  0012               	return		;funcret
  3873  001B54                     __end_of_AdcReadValue:
  3874                           	opt stack 0
  3875                           tblptru	equ	0xFF8
  3876                           tblptrh	equ	0xFF7
  3877                           tblptrl	equ	0xFF6
  3878                           tablat	equ	0xFF5
  3879                           prodh	equ	0xFF4
  3880                           prodl	equ	0xFF3
  3881                           intcon	equ	0xFF2
  3882                           intcon2	equ	0xFF1
  3883                           postinc0	equ	0xFEE
  3884                           wreg	equ	0xFE8
  3885                           indf1	equ	0xFE7
  3886                           postdec1	equ	0xFE5
  3887                           fsr1h	equ	0xFE2
  3888                           fsr1l	equ	0xFE1
  3889                           indf2	equ	0xFDF
  3890                           postinc2	equ	0xFDE
  3891                           postdec2	equ	0xFDD
  3892                           fsr2h	equ	0xFDA
  3893                           fsr2l	equ	0xFD9
  3894                           status	equ	0xFD8
  3895                           
  3896 ;; *************** function _AdcCalibrate *****************
  3897 ;; Defined at:
  3898 ;;		line 48 in file "adc/averaged_adc.c"
  3899 ;; Parameters:    Size  Location     Type
  3900 ;;		None
  3901 ;; Auto vars:     Size  Location     Type
  3902 ;;		None
  3903 ;; Return value:  Size  Location     Type
  3904 ;;		None               void
  3905 ;; Registers used:
  3906 ;;		None
  3907 ;; Tracked objects:
  3908 ;;		On entry : 0/0
  3909 ;;		On exit  : 0/0
  3910 ;;		Unchanged: 0/0
  3911 ;; Data sizes:     COMRAM   BANK0   BANK1   BANK2   BANK3   BANK4   BANK5   BANK6   BANK7   BANK8   BANK9  BANK10  BANK1
      +1  BANK12  BANK13  BANK14
  3912 ;;      Params:         0       0       0       0       0       0       0       0       0       0       0       0       
      +0       0       0       0
  3913 ;;      Locals:         0       0       0       0       0       0       0       0       0       0       0       0       
      +0       0       0       0
  3914 ;;      Temps:          0       0       0       0       0       0       0       0       0       0       0       0       
      +0       0       0       0
  3915 ;;      Totals:         0       0       0       0       0       0       0       0       0       0       0       0       
      +0       0       0       0
  3916 ;;Total ram usage:        0 bytes
  3917 ;; Hardware stack levels used:    1
  3918 ;; This function calls:
  3919 ;;		Nothing
  3920 ;; This function is called by:
  3921 ;;		_AdcConvert
  3922 ;; This function uses a non-reentrant model
  3923 ;;
  3924                           
  3925                           	psect	text32
  3926  001B80                     __ptext32:
  3927                           	opt stack 0
  3928  001B80                     _AdcCalibrate:
  3929                           	opt stack 26
  3930                           
  3931                           ;averaged_adc.c: 49: ADCON1bits.ADCAL = 1;
  3932                           
  3933                           ;incstack = 0
  3934  001B80  8CC1               	bsf	4033,6,c	;volatile
  3935                           
  3936                           ;averaged_adc.c: 50: ADCON0bits.GO = 1;
  3937  001B82  82C2               	bsf	4034,1,c	;volatile
  3938                           
  3939                           ;averaged_adc.c: 51: while (ADCON0bits.NOT_DONE);
  3940  001B84  D000               	goto	l24
  3941  001B86                     l24:
  3942  001B86  B2C2               	btfsc	4034,1,c	;volatile
  3943  001B88  D7FE               	goto	l24
  3944                           
  3945                           ;averaged_adc.c: 52: ADCON1bits.ADCAL = 0;
  3946  001B8A  9CC1               	bcf	4033,6,c	;volatile
  3947  001B8C  0012               	return		;funcret
  3948  001B8E                     __end_of_AdcCalibrate:
  3949                           	opt stack 0
  3950                           tblptru	equ	0xFF8
  3951                           tblptrh	equ	0xFF7
  3952                           tblptrl	equ	0xFF6
  3953                           tablat	equ	0xFF5
  3954                           prodh	equ	0xFF4
  3955                           prodl	equ	0xFF3
  3956                           intcon	equ	0xFF2
  3957                           intcon2	equ	0xFF1
  3958                           postinc0	equ	0xFEE
  3959                           wreg	equ	0xFE8
  3960                           indf1	equ	0xFE7
  3961                           postdec1	equ	0xFE5
  3962                           fsr1h	equ	0xFE2
  3963                           fsr1l	equ	0xFE1
  3964                           indf2	equ	0xFDF
  3965                           postinc2	equ	0xFDE
  3966                           postdec2	equ	0xFDD
  3967                           fsr2h	equ	0xFDA
  3968                           fsr2l	equ	0xFD9
  3969                           status	equ	0xFD8
  3970                           
  3971 ;; *************** function _ClearNetworkInterrupt *****************
  3972 ;; Defined at:
  3973 ;;		line 20 in file "network_proxy.c"
  3974 ;; Parameters:    Size  Location     Type
  3975 ;;		None
  3976 ;; Auto vars:     Size  Location     Type
  3977 ;;		None
  3978 ;; Return value:  Size  Location     Type
  3979 ;;		None               void
  3980 ;; Registers used:
  3981 ;;		None
  3982 ;; Tracked objects:
  3983 ;;		On entry : 0/0
  3984 ;;		On exit  : 0/0
  3985 ;;		Unchanged: 0/0
  3986 ;; Data sizes:     COMRAM   BANK0   BANK1   BANK2   BANK3   BANK4   BANK5   BANK6   BANK7   BANK8   BANK9  BANK10  BANK1
      +1  BANK12  BANK13  BANK14
  3987 ;;      Params:         0       0       0       0       0       0       0       0       0       0       0       0       
      +0       0       0       0
  3988 ;;      Locals:         0       0       0       0       0       0       0       0       0       0       0       0       
      +0       0       0       0
  3989 ;;      Temps:          0       0       0       0       0       0       0       0       0       0       0       0       
      +0       0       0       0
  3990 ;;      Totals:         0       0       0       0       0       0       0       0       0       0       0       0       
      +0       0       0       0
  3991 ;;Total ram usage:        0 bytes
  3992 ;; Hardware stack levels used:    1
  3993 ;; This function calls:
  3994 ;;		Nothing
  3995 ;; This function is called by:
  3996 ;;		_OnWakeUp
  3997 ;; This function uses a non-reentrant model
  3998 ;;
  3999                           
  4000                           	psect	text33
  4001  001C10                     __ptext33:
  4002                           	opt stack 0
  4003  001C10                     _ClearNetworkInterrupt:
  4004                           	opt stack 29
  4005                           
  4006                           ;network_proxy.c: 21: INTCONbits.INT0IF = 0;
  4007                           
  4008                           ;incstack = 0
  4009  001C10  92F2               	bcf	intcon,1,c	;volatile
  4010  001C12  0012               	return		;funcret
  4011  001C14                     __end_of_ClearNetworkInterrupt:
  4012                           	opt stack 0
  4013                           tblptru	equ	0xFF8
  4014                           tblptrh	equ	0xFF7
  4015                           tblptrl	equ	0xFF6
  4016                           tablat	equ	0xFF5
  4017                           prodh	equ	0xFF4
  4018                           prodl	equ	0xFF3
  4019                           intcon	equ	0xFF2
  4020                           intcon2	equ	0xFF1
  4021                           postinc0	equ	0xFEE
  4022                           wreg	equ	0xFE8
  4023                           indf1	equ	0xFE7
  4024                           postdec1	equ	0xFE5
  4025                           fsr1h	equ	0xFE2
  4026                           fsr1l	equ	0xFE1
  4027                           indf2	equ	0xFDF
  4028                           postinc2	equ	0xFDE
  4029                           postdec2	equ	0xFDD
  4030                           fsr2h	equ	0xFDA
  4031                           fsr2l	equ	0xFD9
  4032                           status	equ	0xFD8
  4033                           
  4034 ;; *************** function _ClearDSWakeUpFlags *****************
  4035 ;; Defined at:
  4036 ;;		line 63 in file "opController.c"
  4037 ;; Parameters:    Size  Location     Type
  4038 ;;		None
  4039 ;; Auto vars:     Size  Location     Type
  4040 ;;		None
  4041 ;; Return value:  Size  Location     Type
  4042 ;;		None               void
  4043 ;; Registers used:
  4044 ;;		None
  4045 ;; Tracked objects:
  4046 ;;		On entry : 0/0
  4047 ;;		On exit  : 0/0
  4048 ;;		Unchanged: 0/0
  4049 ;; Data sizes:     COMRAM   BANK0   BANK1   BANK2   BANK3   BANK4   BANK5   BANK6   BANK7   BANK8   BANK9  BANK10  BANK1
      +1  BANK12  BANK13  BANK14
  4050 ;;      Params:         0       0       0       0       0       0       0       0       0       0       0       0       
      +0       0       0       0
  4051 ;;      Locals:         0       0       0       0       0       0       0       0       0       0       0       0       
      +0       0       0       0
  4052 ;;      Temps:          0       0       0       0       0       0       0       0       0       0       0       0       
      +0       0       0       0
  4053 ;;      Totals:         0       0       0       0       0       0       0       0       0       0       0       0       
      +0       0       0       0
  4054 ;;Total ram usage:        0 bytes
  4055 ;; Hardware stack levels used:    1
  4056 ;; This function calls:
  4057 ;;		Nothing
  4058 ;; This function is called by:
  4059 ;;		_OnWakeUp
  4060 ;; This function uses a non-reentrant model
  4061 ;;
  4062                           
  4063                           	psect	text34
  4064  001BA8                     __ptext34:
  4065                           	opt stack 0
  4066  001BA8                     _ClearDSWakeUpFlags:
  4067                           	opt stack 29
  4068                           
  4069                           ;opController.c: 64: WDTCONbits.DS = 0;
  4070                           
  4071                           ;incstack = 0
  4072  001BA8  96C0               	bcf	4032,3,c	;volatile
  4073                           
  4074                           ;opController.c: 65: DSWAKEHbits.DSINT0 = 0;
  4075  001BAA  010F               	movlb	15	; () banked
  4076  001BAC  914B               	bcf	75,0,b	;volatile
  4077                           
  4078                           ;opController.c: 66: DSCONLbits.RELEASE = 0;
  4079  001BAE  010F               	movlb	15	; () banked
  4080  001BB0  914C               	bcf	76,0,b	;volatile
  4081                           
  4082                           ; BSR set to: 15
  4083  001BB2  0012               	return		;funcret
  4084  001BB4                     __end_of_ClearDSWakeUpFlags:
  4085                           	opt stack 0
  4086                           tblptru	equ	0xFF8
  4087                           tblptrh	equ	0xFF7
  4088                           tblptrl	equ	0xFF6
  4089                           tablat	equ	0xFF5
  4090                           prodh	equ	0xFF4
  4091                           prodl	equ	0xFF3
  4092                           intcon	equ	0xFF2
  4093                           intcon2	equ	0xFF1
  4094                           postinc0	equ	0xFEE
  4095                           wreg	equ	0xFE8
  4096                           indf1	equ	0xFE7
  4097                           postdec1	equ	0xFE5
  4098                           fsr1h	equ	0xFE2
  4099                           fsr1l	equ	0xFE1
  4100                           indf2	equ	0xFDF
  4101                           postinc2	equ	0xFDE
  4102                           postdec2	equ	0xFDD
  4103                           fsr2h	equ	0xFDA
  4104                           fsr2l	equ	0xFD9
  4105                           status	equ	0xFD8
  4106                           
  4107 ;; *************** function _OnPowerUp *****************
  4108 ;; Defined at:
  4109 ;;		line 12 in file "opController.c"
  4110 ;; Parameters:    Size  Location     Type
  4111 ;;		None
  4112 ;; Auto vars:     Size  Location     Type
  4113 ;;		None
  4114 ;; Return value:  Size  Location     Type
  4115 ;;		None               void
  4116 ;; Registers used:
  4117 ;;		wreg, fsr1l, fsr1h, fsr2l, fsr2h, status,2, status,0, cstack
  4118 ;; Tracked objects:
  4119 ;;		On entry : 0/0
  4120 ;;		On exit  : 0/0
  4121 ;;		Unchanged: 0/0
  4122 ;; Data sizes:     COMRAM   BANK0   BANK1   BANK2   BANK3   BANK4   BANK5   BANK6   BANK7   BANK8   BANK9  BANK10  BANK1
      +1  BANK12  BANK13  BANK14
  4123 ;;      Params:         0       0       0       0       0       0       0       0       0       0       0       0       
      +0       0       0       0
  4124 ;;      Locals:         0       0       0       0       0       0       0       0       0       0       0       0       
      +0       0       0       0
  4125 ;;      Temps:          0       0       0       0       0       0       0       0       0       0       0       0       
      +0       0       0       0
  4126 ;;      Totals:         0       0       0       0       0       0       0       0       0       0       0       0       
      +0       0       0       0
  4127 ;;Total ram usage:        0 bytes
  4128 ;; Hardware stack levels used:    1
  4129 ;; Hardware stack levels required when called:    4
  4130 ;; This function calls:
  4131 ;;		_UnUsedPeriphericalDisable
  4132 ;;		_XBeeJoin
  4133 ;; This function is called by:
  4134 ;;		_main
  4135 ;; This function uses a non-reentrant model
  4136 ;;
  4137                           
  4138                           	psect	text35
  4139  001BEA                     __ptext35:
  4140                           	opt stack 0
  4141  001BEA                     _OnPowerUp:
  4142                           	opt stack 26
  4143                           
  4144                           ;opController.c: 13: XBeeJoin();
  4145                           
  4146                           ; BSR set to: 15
  4147                           ;incstack = 0
  4148  001BEA  EC35  F00D         	call	_XBeeJoin	;wreg free
  4149                           
  4150                           ;opController.c: 14: UnUsedPeriphericalDisable();
  4151  001BEE  ECDA  F00D         	call	_UnUsedPeriphericalDisable	;wreg free
  4152  001BF2  0012               	return		;funcret
  4153  001BF4                     __end_of_OnPowerUp:
  4154                           	opt stack 0
  4155                           tblptru	equ	0xFF8
  4156                           tblptrh	equ	0xFF7
  4157                           tblptrl	equ	0xFF6
  4158                           tablat	equ	0xFF5
  4159                           prodh	equ	0xFF4
  4160                           prodl	equ	0xFF3
  4161                           intcon	equ	0xFF2
  4162                           intcon2	equ	0xFF1
  4163                           postinc0	equ	0xFEE
  4164                           wreg	equ	0xFE8
  4165                           indf1	equ	0xFE7
  4166                           postdec1	equ	0xFE5
  4167                           fsr1h	equ	0xFE2
  4168                           fsr1l	equ	0xFE1
  4169                           indf2	equ	0xFDF
  4170                           postinc2	equ	0xFDE
  4171                           postdec2	equ	0xFDD
  4172                           fsr2h	equ	0xFDA
  4173                           fsr2l	equ	0xFD9
  4174                           status	equ	0xFD8
  4175                           
  4176 ;; *************** function _UnUsedPeriphericalDisable *****************
  4177 ;; Defined at:
  4178 ;;		line 36 in file "bsp.c"
  4179 ;; Parameters:    Size  Location     Type
  4180 ;;		None
  4181 ;; Auto vars:     Size  Location     Type
  4182 ;;		None
  4183 ;; Return value:  Size  Location     Type
  4184 ;;		None               void
  4185 ;; Registers used:
  4186 ;;		None
  4187 ;; Tracked objects:
  4188 ;;		On entry : 0/0
  4189 ;;		On exit  : 0/0
  4190 ;;		Unchanged: 0/0
  4191 ;; Data sizes:     COMRAM   BANK0   BANK1   BANK2   BANK3   BANK4   BANK5   BANK6   BANK7   BANK8   BANK9  BANK10  BANK1
      +1  BANK12  BANK13  BANK14
  4192 ;;      Params:         0       0       0       0       0       0       0       0       0       0       0       0       
      +0       0       0       0
  4193 ;;      Locals:         0       0       0       0       0       0       0       0       0       0       0       0       
      +0       0       0       0
  4194 ;;      Temps:          0       0       0       0       0       0       0       0       0       0       0       0       
      +0       0       0       0
  4195 ;;      Totals:         0       0       0       0       0       0       0       0       0       0       0       0       
      +0       0       0       0
  4196 ;;Total ram usage:        0 bytes
  4197 ;; Hardware stack levels used:    1
  4198 ;; This function calls:
  4199 ;;		Nothing
  4200 ;; This function is called by:
  4201 ;;		_OnPowerUp
  4202 ;; This function uses a non-reentrant model
  4203 ;;
  4204                           
  4205                           	psect	text36
  4206  001BB4                     __ptext36:
  4207                           	opt stack 0
  4208  001BB4                     _UnUsedPeriphericalDisable:
  4209                           	opt stack 29
  4210                           
  4211                           ;bsp.c: 37: UCONbits.USBEN = 0;
  4212                           
  4213                           ;incstack = 0
  4214  001BB4  9665               	bcf	3941,3,c	;volatile
  4215                           
  4216                           ;bsp.c: 38: RTCCFGbits.RTCOE = 0;
  4217  001BB6  010F               	movlb	15	; () banked
  4218  001BB8  953F               	bcf	63,2,b	;volatile
  4219                           
  4220                           ;bsp.c: 39: RTCCFGbits.RTCEN = 0;
  4221  001BBA  010F               	movlb	15	; () banked
  4222  001BBC  9F3F               	bcf	63,7,b	;volatile
  4223                           
  4224                           ; BSR set to: 15
  4225  001BBE  0012               	return		;funcret
  4226  001BC0                     __end_of_UnUsedPeriphericalDisable:
  4227                           	opt stack 0
  4228                           tblptru	equ	0xFF8
  4229                           tblptrh	equ	0xFF7
  4230                           tblptrl	equ	0xFF6
  4231                           tablat	equ	0xFF5
  4232                           prodh	equ	0xFF4
  4233                           prodl	equ	0xFF3
  4234                           intcon	equ	0xFF2
  4235                           intcon2	equ	0xFF1
  4236                           postinc0	equ	0xFEE
  4237                           wreg	equ	0xFE8
  4238                           indf1	equ	0xFE7
  4239                           postdec1	equ	0xFE5
  4240                           fsr1h	equ	0xFE2
  4241                           fsr1l	equ	0xFE1
  4242                           indf2	equ	0xFDF
  4243                           postinc2	equ	0xFDE
  4244                           postdec2	equ	0xFDD
  4245                           fsr2h	equ	0xFDA
  4246                           fsr2l	equ	0xFD9
  4247                           status	equ	0xFD8
  4248                           
  4249 ;; *************** function _OnMclr *****************
  4250 ;; Defined at:
  4251 ;;		line 20 in file "opController.c"
  4252 ;; Parameters:    Size  Location     Type
  4253 ;;		None
  4254 ;; Auto vars:     Size  Location     Type
  4255 ;;		None
  4256 ;; Return value:  Size  Location     Type
  4257 ;;		None               void
  4258 ;; Registers used:
  4259 ;;		wreg, fsr1l, fsr1h, fsr2l, fsr2h, status,2, status,0, cstack
  4260 ;; Tracked objects:
  4261 ;;		On entry : 0/0
  4262 ;;		On exit  : 0/0
  4263 ;;		Unchanged: 0/0
  4264 ;; Data sizes:     COMRAM   BANK0   BANK1   BANK2   BANK3   BANK4   BANK5   BANK6   BANK7   BANK8   BANK9  BANK10  BANK1
      +1  BANK12  BANK13  BANK14
  4265 ;;      Params:         0       0       0       0       0       0       0       0       0       0       0       0       
      +0       0       0       0
  4266 ;;      Locals:         0       0       0       0       0       0       0       0       0       0       0       0       
      +0       0       0       0
  4267 ;;      Temps:          0       0       0       0       0       0       0       0       0       0       0       0       
      +0       0       0       0
  4268 ;;      Totals:         0       0       0       0       0       0       0       0       0       0       0       0       
      +0       0       0       0
  4269 ;;Total ram usage:        0 bytes
  4270 ;; Hardware stack levels used:    1
  4271 ;; Hardware stack levels required when called:    4
  4272 ;; This function calls:
  4273 ;;		_ClearMclrFlags
  4274 ;;		_Delay10KTCYx
  4275 ;;		_XBeeJoin
  4276 ;; This function is called by:
  4277 ;;		_main
  4278 ;; This function uses a non-reentrant model
  4279 ;;
  4280                           
  4281                           	psect	text37
  4282  001B54                     __ptext37:
  4283                           	opt stack 0
  4284  001B54                     _OnMclr:
  4285                           	opt stack 26
  4286                           
  4287                           ;opController.c: 21: ClearMclrFlags();
  4288                           
  4289                           ; BSR set to: 15
  4290                           ;incstack = 0
  4291  001B54  ECE0  F00D         	call	_ClearMclrFlags	;wreg free
  4292                           
  4293                           ;opController.c: 22: Delay10KTCYx(10);
  4294  001B58  0E0A               	movlw	10
  4295  001B5A  EC5E  F00D         	call	_Delay10KTCYx
  4296                           
  4297                           ;opController.c: 23: XBeeJoin();
  4298  001B5E  EC35  F00D         	call	_XBeeJoin	;wreg free
  4299  001B62  0012               	return		;funcret
  4300  001B64                     __end_of_OnMclr:
  4301                           	opt stack 0
  4302                           tblptru	equ	0xFF8
  4303                           tblptrh	equ	0xFF7
  4304                           tblptrl	equ	0xFF6
  4305                           tablat	equ	0xFF5
  4306                           prodh	equ	0xFF4
  4307                           prodl	equ	0xFF3
  4308                           intcon	equ	0xFF2
  4309                           intcon2	equ	0xFF1
  4310                           postinc0	equ	0xFEE
  4311                           wreg	equ	0xFE8
  4312                           indf1	equ	0xFE7
  4313                           postdec1	equ	0xFE5
  4314                           fsr1h	equ	0xFE2
  4315                           fsr1l	equ	0xFE1
  4316                           indf2	equ	0xFDF
  4317                           postinc2	equ	0xFDE
  4318                           postdec2	equ	0xFDD
  4319                           fsr2h	equ	0xFDA
  4320                           fsr2l	equ	0xFD9
  4321                           status	equ	0xFD8
  4322                           
  4323 ;; *************** function _ClearMclrFlags *****************
  4324 ;; Defined at:
  4325 ;;		line 57 in file "opController.c"
  4326 ;; Parameters:    Size  Location     Type
  4327 ;;		None
  4328 ;; Auto vars:     Size  Location     Type
  4329 ;;		None
  4330 ;; Return value:  Size  Location     Type
  4331 ;;		None               void
  4332 ;; Registers used:
  4333 ;;		None
  4334 ;; Tracked objects:
  4335 ;;		On entry : 0/0
  4336 ;;		On exit  : 0/0
  4337 ;;		Unchanged: 0/0
  4338 ;; Data sizes:     COMRAM   BANK0   BANK1   BANK2   BANK3   BANK4   BANK5   BANK6   BANK7   BANK8   BANK9  BANK10  BANK1
      +1  BANK12  BANK13  BANK14
  4339 ;;      Params:         0       0       0       0       0       0       0       0       0       0       0       0       
      +0       0       0       0
  4340 ;;      Locals:         0       0       0       0       0       0       0       0       0       0       0       0       
      +0       0       0       0
  4341 ;;      Temps:          0       0       0       0       0       0       0       0       0       0       0       0       
      +0       0       0       0
  4342 ;;      Totals:         0       0       0       0       0       0       0       0       0       0       0       0       
      +0       0       0       0
  4343 ;;Total ram usage:        0 bytes
  4344 ;; Hardware stack levels used:    1
  4345 ;; This function calls:
  4346 ;;		Nothing
  4347 ;; This function is called by:
  4348 ;;		_OnMclr
  4349 ;; This function uses a non-reentrant model
  4350 ;;
  4351                           
  4352                           	psect	text38
  4353  001BC0                     __ptext38:
  4354                           	opt stack 0
  4355  001BC0                     _ClearMclrFlags:
  4356                           	opt stack 29
  4357                           
  4358                           ;opController.c: 58: WDTCONbits.DS = 0;
  4359                           
  4360                           ;incstack = 0
  4361  001BC0  96C0               	bcf	4032,3,c	;volatile
  4362                           
  4363                           ;opController.c: 59: DSWAKELbits.DSMCLR = 0;
  4364  001BC2  010F               	movlb	15	; () banked
  4365  001BC4  954A               	bcf	74,2,b	;volatile
  4366                           
  4367                           ;opController.c: 60: DSCONLbits.RELEASE = 0;
  4368  001BC6  010F               	movlb	15	; () banked
  4369  001BC8  914C               	bcf	76,0,b	;volatile
  4370                           
  4371                           ; BSR set to: 15
  4372  001BCA  0012               	return		;funcret
  4373  001BCC                     __end_of_ClearMclrFlags:
  4374                           	opt stack 0
  4375                           tblptru	equ	0xFF8
  4376                           tblptrh	equ	0xFF7
  4377                           tblptrl	equ	0xFF6
  4378                           tablat	equ	0xFF5
  4379                           prodh	equ	0xFF4
  4380                           prodl	equ	0xFF3
  4381                           intcon	equ	0xFF2
  4382                           intcon2	equ	0xFF1
  4383                           postinc0	equ	0xFEE
  4384                           wreg	equ	0xFE8
  4385                           indf1	equ	0xFE7
  4386                           postdec1	equ	0xFE5
  4387                           fsr1h	equ	0xFE2
  4388                           fsr1l	equ	0xFE1
  4389                           indf2	equ	0xFDF
  4390                           postinc2	equ	0xFDE
  4391                           postdec2	equ	0xFDD
  4392                           fsr2h	equ	0xFDA
  4393                           fsr2l	equ	0xFD9
  4394                           status	equ	0xFD8
  4395                           
  4396 ;; *************** function _OnDsWdtWakeUp *****************
  4397 ;; Defined at:
  4398 ;;		line 49 in file "opController.c"
  4399 ;; Parameters:    Size  Location     Type
  4400 ;;		None
  4401 ;; Auto vars:     Size  Location     Type
  4402 ;;		None
  4403 ;; Return value:  Size  Location     Type
  4404 ;;		None               void
  4405 ;; Registers used:
  4406 ;;		wreg, fsr1l, fsr1h, fsr2l, fsr2h, status,2, status,0, cstack
  4407 ;; Tracked objects:
  4408 ;;		On entry : 0/0
  4409 ;;		On exit  : 0/0
  4410 ;;		Unchanged: 0/0
  4411 ;; Data sizes:     COMRAM   BANK0   BANK1   BANK2   BANK3   BANK4   BANK5   BANK6   BANK7   BANK8   BANK9  BANK10  BANK1
      +1  BANK12  BANK13  BANK14
  4412 ;;      Params:         0       0       0       0       0       0       0       0       0       0       0       0       
      +0       0       0       0
  4413 ;;      Locals:         0       0       0       0       0       0       0       0       0       0       0       0       
      +0       0       0       0
  4414 ;;      Temps:          0       0       0       0       0       0       0       0       0       0       0       0       
      +0       0       0       0
  4415 ;;      Totals:         0       0       0       0       0       0       0       0       0       0       0       0       
      +0       0       0       0
  4416 ;;Total ram usage:        0 bytes
  4417 ;; Hardware stack levels used:    1
  4418 ;; Hardware stack levels required when called:    4
  4419 ;; This function calls:
  4420 ;;		_Delay100TCYx
  4421 ;;		_XBeeJoin
  4422 ;;		_XBeeReset
  4423 ;; This function is called by:
  4424 ;;		_main
  4425 ;; This function uses a non-reentrant model
  4426 ;;
  4427                           
  4428                           	psect	text39
  4429  001B20                     __ptext39:
  4430                           	opt stack 0
  4431  001B20                     _OnDsWdtWakeUp:
  4432                           	opt stack 26
  4433                           
  4434                           ;opController.c: 50: WDTCONbits.DS = 0;
  4435                           
  4436                           ; BSR set to: 15
  4437                           ;incstack = 0
  4438  001B20  96C0               	bcf	4032,3,c	;volatile
  4439                           
  4440                           ;opController.c: 51: XBeeReset();
  4441  001B22  ECBA  F00C         	call	_XBeeReset	;wreg free
  4442                           
  4443                           ;opController.c: 52: Delay100TCYx(100);
  4444  001B26  0E64               	movlw	100
  4445  001B28  EC99  F00D         	call	_Delay100TCYx
  4446                           
  4447                           ;opController.c: 53: XBeeJoin();
  4448  001B2C  EC35  F00D         	call	_XBeeJoin	;wreg free
  4449  001B30  0012               	return		;funcret
  4450  001B32                     __end_of_OnDsWdtWakeUp:
  4451                           	opt stack 0
  4452                           tblptru	equ	0xFF8
  4453                           tblptrh	equ	0xFF7
  4454                           tblptrl	equ	0xFF6
  4455                           tablat	equ	0xFF5
  4456                           prodh	equ	0xFF4
  4457                           prodl	equ	0xFF3
  4458                           intcon	equ	0xFF2
  4459                           intcon2	equ	0xFF1
  4460                           postinc0	equ	0xFEE
  4461                           wreg	equ	0xFE8
  4462                           indf1	equ	0xFE7
  4463                           postdec1	equ	0xFE5
  4464                           fsr1h	equ	0xFE2
  4465                           fsr1l	equ	0xFE1
  4466                           indf2	equ	0xFDF
  4467                           postinc2	equ	0xFDE
  4468                           postdec2	equ	0xFDD
  4469                           fsr2h	equ	0xFDA
  4470                           fsr2l	equ	0xFD9
  4471                           status	equ	0xFD8
  4472                           
  4473 ;; *************** function _XBeeJoin *****************
  4474 ;; Defined at:
  4475 ;;		line 28 in file "xbee/digi_join.c"
  4476 ;; Parameters:    Size  Location     Type
  4477 ;;		None
  4478 ;; Auto vars:     Size  Location     Type
  4479 ;;		None
  4480 ;; Return value:  Size  Location     Type
  4481 ;;		None               void
  4482 ;; Registers used:
  4483 ;;		wreg, fsr1l, fsr1h, fsr2l, fsr2h, status,2, status,0, cstack
  4484 ;; Tracked objects:
  4485 ;;		On entry : 0/0
  4486 ;;		On exit  : 0/0
  4487 ;;		Unchanged: 0/0
  4488 ;; Data sizes:     COMRAM   BANK0   BANK1   BANK2   BANK3   BANK4   BANK5   BANK6   BANK7   BANK8   BANK9  BANK10  BANK1
      +1  BANK12  BANK13  BANK14
  4489 ;;      Params:         0       0       0       0       0       0       0       0       0       0       0       0       
      +0       0       0       0
  4490 ;;      Locals:         0       0       0       0       0       0       0       0       0       0       0       0       
      +0       0       0       0
  4491 ;;      Temps:          0       0       0       0       0       0       0       0       0       0       0       0       
      +0       0       0       0
  4492 ;;      Totals:         0       0       0       0       0       0       0       0       0       0       0       0       
      +0       0       0       0
  4493 ;;Total ram usage:        0 bytes
  4494 ;; Hardware stack levels used:    1
  4495 ;; Hardware stack levels required when called:    3
  4496 ;; This function calls:
  4497 ;;		_Delay10KTCYx
  4498 ;;		_XBeeCommissioning
  4499 ;;		_XBeeReset
  4500 ;;		_XBeeSetSleepMode
  4501 ;; This function is called by:
  4502 ;;		_OnPowerUp
  4503 ;;		_OnMclr
  4504 ;;		_OnDsWdtWakeUp
  4505 ;; This function uses a non-reentrant model
  4506 ;;
  4507                           
  4508                           	psect	text40
  4509  001A6A                     __ptext40:
  4510                           	opt stack 0
  4511  001A6A                     _XBeeJoin:
  4512                           	opt stack 26
  4513                           
  4514                           ;digi_join.c: 29: XBeeReset();
  4515                           
  4516                           ;incstack = 0
  4517  001A6A  ECBA  F00C         	call	_XBeeReset	;wreg free
  4518                           
  4519                           ;digi_join.c: 30: Delay10KTCYx(100);
  4520  001A6E  0E64               	movlw	100
  4521  001A70  EC5E  F00D         	call	_Delay10KTCYx
  4522                           
  4523                           ;digi_join.c: 32: XBeeCommissioning(1);
  4524  001A74  0E01               	movlw	1
  4525  001A76  EC20  F00C         	call	_XBeeCommissioning
  4526                           
  4527                           ;digi_join.c: 33: Delay10KTCYx(100);
  4528  001A7A  0E64               	movlw	100
  4529  001A7C  EC5E  F00D         	call	_Delay10KTCYx
  4530                           
  4531                           ;digi_join.c: 35: XBeeSetSleepMode(8);
  4532  001A80  0E08               	movlw	8
  4533  001A82  ECFC  F00B         	call	_XBeeSetSleepMode
  4534  001A86  0012               	return		;funcret
  4535  001A88                     __end_of_XBeeJoin:
  4536                           	opt stack 0
  4537                           tblptru	equ	0xFF8
  4538                           tblptrh	equ	0xFF7
  4539                           tblptrl	equ	0xFF6
  4540                           tablat	equ	0xFF5
  4541                           prodh	equ	0xFF4
  4542                           prodl	equ	0xFF3
  4543                           intcon	equ	0xFF2
  4544                           intcon2	equ	0xFF1
  4545                           postinc0	equ	0xFEE
  4546                           wreg	equ	0xFE8
  4547                           indf1	equ	0xFE7
  4548                           postdec1	equ	0xFE5
  4549                           fsr1h	equ	0xFE2
  4550                           fsr1l	equ	0xFE1
  4551                           indf2	equ	0xFDF
  4552                           postinc2	equ	0xFDE
  4553                           postdec2	equ	0xFDD
  4554                           fsr2h	equ	0xFDA
  4555                           fsr2l	equ	0xFD9
  4556                           status	equ	0xFD8
  4557                           
  4558 ;; *************** function _XBeeSetSleepMode *****************
  4559 ;; Defined at:
  4560 ;;		line 58 in file "xbee/digi_join.c"
  4561 ;; Parameters:    Size  Location     Type
  4562 ;;  mode            1    wreg     unsigned char 
  4563 ;; Auto vars:     Size  Location     Type
  4564 ;;  mode            1   13[COMRAM] unsigned char 
  4565 ;;  params          2   14[COMRAM] unsigned char [2]
  4566 ;; Return value:  Size  Location     Type
  4567 ;;		None               void
  4568 ;; Registers used:
  4569 ;;		wreg, fsr1l, fsr1h, fsr2l, fsr2h, status,2, status,0, cstack
  4570 ;; Tracked objects:
  4571 ;;		On entry : 0/0
  4572 ;;		On exit  : 0/0
  4573 ;;		Unchanged: 0/0
  4574 ;; Data sizes:     COMRAM   BANK0   BANK1   BANK2   BANK3   BANK4   BANK5   BANK6   BANK7   BANK8   BANK9  BANK10  BANK1
      +1  BANK12  BANK13  BANK14
  4575 ;;      Params:         0       0       0       0       0       0       0       0       0       0       0       0       
      +0       0       0       0
  4576 ;;      Locals:         3       0       0       0       0       0       0       0       0       0       0       0       
      +0       0       0       0
  4577 ;;      Temps:          0       0       0       0       0       0       0       0       0       0       0       0       
      +0       0       0       0
  4578 ;;      Totals:         3       0       0       0       0       0       0       0       0       0       0       0       
      +0       0       0       0
  4579 ;;Total ram usage:        3 bytes
  4580 ;; Hardware stack levels used:    1
  4581 ;; Hardware stack levels required when called:    2
  4582 ;; This function calls:
  4583 ;;		_XBeeCreateCompleteATCommandPacket
  4584 ;;		_XBeeCreatePacket
  4585 ;;		_XBeeSendPacket
  4586 ;; This function is called by:
  4587 ;;		_XBeeJoin
  4588 ;; This function uses a non-reentrant model
  4589 ;;
  4590                           
  4591                           	psect	text41
  4592  0017F8                     __ptext41:
  4593                           	opt stack 0
  4594  0017F8                     _XBeeSetSleepMode:
  4595                           	opt stack 26
  4596                           
  4597                           ;incstack = 0
  4598                           ;XBeeSetSleepMode@mode stored from wreg
  4599  0017F8  6E0E               	movwf	XBeeSetSleepMode@mode,c
  4600                           
  4601                           ;digi_join.c: 59: static uint8_t command[3] = {'S', 'M', '\0'};
  4602                           ;digi_join.c: 60: uint8_t params[2];
  4603                           ;digi_join.c: 61: params[0] = mode;
  4604  0017FA  C00E  F00F         	movff	XBeeSetSleepMode@mode,XBeeSetSleepMode@params
  4605                           
  4606                           ;digi_join.c: 62: params[1] = '\0';
  4607  0017FE  0E00               	movlw	0
  4608  001800  6E10               	movwf	XBeeSetSleepMode@params+1,c
  4609                           
  4610                           ;digi_join.c: 63: XBeeCreatePacket(&joinPacket);
  4611  001802  0E60               	movlw	low _joinPacket
  4612  001804  6E09               	movwf	XBeeCreatePacket@packet,c
  4613  001806  0E00               	movlw	high _joinPacket
  4614  001808  6E0A               	movwf	XBeeCreatePacket@packet+1,c
  4615  00180A  ECEC  F009         	call	_XBeeCreatePacket	;wreg free
  4616                           
  4617                           ;digi_join.c: 64: XBeeCreateCompleteATCommandPacket(&joinPacket, 0x01, command, params, 
      +                          0x01);
  4618  00180E  0E60               	movlw	low _joinPacket
  4619  001810  6E01               	movwf	XBeeCreateCompleteATCommandPacket@packet,c
  4620  001812  0E00               	movlw	high _joinPacket
  4621  001814  6E02               	movwf	XBeeCreateCompleteATCommandPacket@packet+1,c
  4622  001816  0E01               	movlw	1
  4623  001818  6E03               	movwf	XBeeCreateCompleteATCommandPacket@frameId,c
  4624  00181A  0E23               	movlw	low XBeeSetSleepMode@command
  4625  00181C  6E04               	movwf	XBeeCreateCompleteATCommandPacket@command,c
  4626  00181E  0E00               	movlw	high XBeeSetSleepMode@command
  4627  001820  6E05               	movwf	XBeeCreateCompleteATCommandPacket@command+1,c
  4628  001822  0E0F               	movlw	low XBeeSetSleepMode@params
  4629  001824  6E06               	movwf	XBeeCreateCompleteATCommandPacket@params,c
  4630  001826  0E00               	movlw	high XBeeSetSleepMode@params
  4631  001828  6E07               	movwf	XBeeCreateCompleteATCommandPacket@params+1,c
  4632  00182A  0E01               	movlw	1
  4633  00182C  6E08               	movwf	XBeeCreateCompleteATCommandPacket@paramsLength,c
  4634  00182E  ECF6  F008         	call	_XBeeCreateCompleteATCommandPacket	;wreg free
  4635                           
  4636                           ;digi_join.c: 65: XBeeSendPacket(&joinPacket);
  4637  001832  0E60               	movlw	low _joinPacket
  4638  001834  6E02               	movwf	XBeeSendPacket@packet,c
  4639  001836  0E00               	movlw	high _joinPacket
  4640  001838  6E03               	movwf	XBeeSendPacket@packet+1,c
  4641  00183A  EC96  F008         	call	_XBeeSendPacket	;wreg free
  4642  00183E  0012               	return		;funcret
  4643  001840                     __end_of_XBeeSetSleepMode:
  4644                           	opt stack 0
  4645                           tblptru	equ	0xFF8
  4646                           tblptrh	equ	0xFF7
  4647                           tblptrl	equ	0xFF6
  4648                           tablat	equ	0xFF5
  4649                           prodh	equ	0xFF4
  4650                           prodl	equ	0xFF3
  4651                           intcon	equ	0xFF2
  4652                           intcon2	equ	0xFF1
  4653                           postinc0	equ	0xFEE
  4654                           wreg	equ	0xFE8
  4655                           indf1	equ	0xFE7
  4656                           postdec1	equ	0xFE5
  4657                           fsr1h	equ	0xFE2
  4658                           fsr1l	equ	0xFE1
  4659                           indf2	equ	0xFDF
  4660                           postinc2	equ	0xFDE
  4661                           postdec2	equ	0xFDD
  4662                           fsr2h	equ	0xFDA
  4663                           fsr2l	equ	0xFD9
  4664                           status	equ	0xFD8
  4665                           
  4666 ;; *************** function _XBeeReset *****************
  4667 ;; Defined at:
  4668 ;;		line 41 in file "xbee/digi_join.c"
  4669 ;; Parameters:    Size  Location     Type
  4670 ;;		None
  4671 ;; Auto vars:     Size  Location     Type
  4672 ;;		None
  4673 ;; Return value:  Size  Location     Type
  4674 ;;		None               void
  4675 ;; Registers used:
  4676 ;;		wreg, fsr1l, fsr1h, fsr2l, fsr2h, status,2, status,0, cstack
  4677 ;; Tracked objects:
  4678 ;;		On entry : 0/0
  4679 ;;		On exit  : 0/0
  4680 ;;		Unchanged: 0/0
  4681 ;; Data sizes:     COMRAM   BANK0   BANK1   BANK2   BANK3   BANK4   BANK5   BANK6   BANK7   BANK8   BANK9  BANK10  BANK1
      +1  BANK12  BANK13  BANK14
  4682 ;;      Params:         0       0       0       0       0       0       0       0       0       0       0       0       
      +0       0       0       0
  4683 ;;      Locals:         0       0       0       0       0       0       0       0       0       0       0       0       
      +0       0       0       0
  4684 ;;      Temps:          0       0       0       0       0       0       0       0       0       0       0       0       
      +0       0       0       0
  4685 ;;      Totals:         0       0       0       0       0       0       0       0       0       0       0       0       
      +0       0       0       0
  4686 ;;Total ram usage:        0 bytes
  4687 ;; Hardware stack levels used:    1
  4688 ;; Hardware stack levels required when called:    2
  4689 ;; This function calls:
  4690 ;;		_XBeeCreateATCommandPacket
  4691 ;;		_XBeeCreatePacket
  4692 ;;		_XBeeSendPacket
  4693 ;; This function is called by:
  4694 ;;		_XBeeJoin
  4695 ;;		_OnDsWdtWakeUp
  4696 ;; This function uses a non-reentrant model
  4697 ;;
  4698                           
  4699                           	psect	text42
  4700  001974                     __ptext42:
  4701                           	opt stack 0
  4702  001974                     _XBeeReset:
  4703                           	opt stack 26
  4704                           
  4705                           ;digi_join.c: 42: static uint8_t command[3] = {'F', 'R', '\0'};
  4706                           ;digi_join.c: 43: XBeeCreatePacket(&joinPacket);
  4707                           
  4708                           ;incstack = 0
  4709  001974  0E60               	movlw	low _joinPacket
  4710  001976  6E09               	movwf	XBeeCreatePacket@packet,c
  4711  001978  0E00               	movlw	high _joinPacket
  4712  00197A  6E0A               	movwf	XBeeCreatePacket@packet+1,c
  4713  00197C  ECEC  F009         	call	_XBeeCreatePacket	;wreg free
  4714                           
  4715                           ;digi_join.c: 44: XBeeCreateATCommandPacket(&joinPacket, 0x01, command);
  4716  001980  0E60               	movlw	low _joinPacket
  4717  001982  6E01               	movwf	XBeeCreateATCommandPacket@packet,c
  4718  001984  0E00               	movlw	high _joinPacket
  4719  001986  6E02               	movwf	XBeeCreateATCommandPacket@packet+1,c
  4720  001988  0E01               	movlw	1
  4721  00198A  6E03               	movwf	XBeeCreateATCommandPacket@frameId,c
  4722  00198C  0E20               	movlw	low XBeeReset@command
  4723  00198E  6E04               	movwf	XBeeCreateATCommandPacket@command,c
  4724  001990  0E00               	movlw	high XBeeReset@command
  4725  001992  6E05               	movwf	XBeeCreateATCommandPacket@command+1,c
  4726  001994  ECEF  F00A         	call	_XBeeCreateATCommandPacket	;wreg free
  4727                           
  4728                           ;digi_join.c: 45: XBeeSendPacket(&joinPacket);
  4729  001998  0E60               	movlw	low _joinPacket
  4730  00199A  6E02               	movwf	XBeeSendPacket@packet,c
  4731  00199C  0E00               	movlw	high _joinPacket
  4732  00199E  6E03               	movwf	XBeeSendPacket@packet+1,c
  4733  0019A0  EC96  F008         	call	_XBeeSendPacket	;wreg free
  4734  0019A4  0012               	return		;funcret
  4735  0019A6                     __end_of_XBeeReset:
  4736                           	opt stack 0
  4737                           tblptru	equ	0xFF8
  4738                           tblptrh	equ	0xFF7
  4739                           tblptrl	equ	0xFF6
  4740                           tablat	equ	0xFF5
  4741                           prodh	equ	0xFF4
  4742                           prodl	equ	0xFF3
  4743                           intcon	equ	0xFF2
  4744                           intcon2	equ	0xFF1
  4745                           postinc0	equ	0xFEE
  4746                           wreg	equ	0xFE8
  4747                           indf1	equ	0xFE7
  4748                           postdec1	equ	0xFE5
  4749                           fsr1h	equ	0xFE2
  4750                           fsr1l	equ	0xFE1
  4751                           indf2	equ	0xFDF
  4752                           postinc2	equ	0xFDE
  4753                           postdec2	equ	0xFDD
  4754                           fsr2h	equ	0xFDA
  4755                           fsr2l	equ	0xFD9
  4756                           status	equ	0xFD8
  4757                           
  4758 ;; *************** function _XBeeCreateATCommandPacket *****************
  4759 ;; Defined at:
  4760 ;;		line 37 in file "xbee/digi_at_request.c"
  4761 ;; Parameters:    Size  Location     Type
  4762 ;;  packet          2    0[COMRAM] PTR struct XBeePacket
  4763 ;;		 -> joinPacket(125), 
  4764 ;;  frameId         1    2[COMRAM] unsigned char 
  4765 ;;  command         2    3[COMRAM] PTR unsigned char 
  4766 ;;		 -> XBeeReset@command(3), 
  4767 ;; Auto vars:     Size  Location     Type
  4768 ;;  p               2    5[COMRAM] PTR unsigned char 
  4769 ;;		 -> joinPacket.frame.command(2), XBeeCreateATCommandPacket@packet.frame(116), 
  4770 ;; Return value:  Size  Location     Type
  4771 ;;		None               void
  4772 ;; Registers used:
  4773 ;;		wreg, fsr1l, fsr1h, fsr2l, fsr2h, status,2, status,0
  4774 ;; Tracked objects:
  4775 ;;		On entry : 0/0
  4776 ;;		On exit  : 0/0
  4777 ;;		Unchanged: 0/0
  4778 ;; Data sizes:     COMRAM   BANK0   BANK1   BANK2   BANK3   BANK4   BANK5   BANK6   BANK7   BANK8   BANK9  BANK10  BANK1
      +1  BANK12  BANK13  BANK14
  4779 ;;      Params:         5       0       0       0       0       0       0       0       0       0       0       0       
      +0       0       0       0
  4780 ;;      Locals:         2       0       0       0       0       0       0       0       0       0       0       0       
      +0       0       0       0
  4781 ;;      Temps:          0       0       0       0       0       0       0       0       0       0       0       0       
      +0       0       0       0
  4782 ;;      Totals:         7       0       0       0       0       0       0       0       0       0       0       0       
      +0       0       0       0
  4783 ;;Total ram usage:        7 bytes
  4784 ;; Hardware stack levels used:    1
  4785 ;; This function calls:
  4786 ;;		Nothing
  4787 ;; This function is called by:
  4788 ;;		_XBeeReset
  4789 ;; This function uses a non-reentrant model
  4790 ;;
  4791                           
  4792                           	psect	text43
  4793  0015DE                     __ptext43:
  4794                           	opt stack 0
  4795  0015DE                     _XBeeCreateATCommandPacket:
  4796                           	opt stack 27
  4797                           
  4798                           ;digi_at_request.c: 39: uint8_t* p = packet->frame.atCommand.command;
  4799                           
  4800                           ;incstack = 0
  4801  0015DE  0E02               	movlw	2
  4802  0015E0  2401               	addwf	XBeeCreateATCommandPacket@packet,w,c
  4803  0015E2  6E06               	movwf	XBeeCreateATCommandPacket@p,c
  4804  0015E4  0E00               	movlw	0
  4805  0015E6  2002               	addwfc	XBeeCreateATCommandPacket@packet+1,w,c
  4806  0015E8  6E07               	movwf	XBeeCreateATCommandPacket@p+1,c
  4807                           
  4808                           ;digi_at_request.c: 40: *p++ = *command++;
  4809  0015EA  C004  FFD9         	movff	XBeeCreateATCommandPacket@command,fsr2l
  4810  0015EE  C005  FFDA         	movff	XBeeCreateATCommandPacket@command+1,fsr2h
  4811  0015F2  C006  FFE1         	movff	XBeeCreateATCommandPacket@p,fsr1l
  4812  0015F6  C007  FFE2         	movff	XBeeCreateATCommandPacket@p+1,fsr1h
  4813  0015FA  CFDF FFE7          	movff	indf2,indf1
  4814  0015FE  4A04               	infsnz	XBeeCreateATCommandPacket@command,f,c
  4815  001600  2A05               	incf	XBeeCreateATCommandPacket@command+1,f,c
  4816  001602  4A06               	infsnz	XBeeCreateATCommandPacket@p,f,c
  4817  001604  2A07               	incf	XBeeCreateATCommandPacket@p+1,f,c
  4818                           
  4819                           ;digi_at_request.c: 41: *p++ = *command;
  4820  001606  C004  FFD9         	movff	XBeeCreateATCommandPacket@command,fsr2l
  4821  00160A  C005  FFDA         	movff	XBeeCreateATCommandPacket@command+1,fsr2h
  4822  00160E  C006  FFE1         	movff	XBeeCreateATCommandPacket@p,fsr1l
  4823  001612  C007  FFE2         	movff	XBeeCreateATCommandPacket@p+1,fsr1h
  4824  001616  CFDF FFE7          	movff	indf2,indf1
  4825  00161A  4A06               	infsnz	XBeeCreateATCommandPacket@p,f,c
  4826  00161C  2A07               	incf	XBeeCreateATCommandPacket@p+1,f,c
  4827                           
  4828                           ;digi_at_request.c: 42: packet->apiId = AT_COMMAND;
  4829  00161E  C001  FFD9         	movff	XBeeCreateATCommandPacket@packet,fsr2l
  4830  001622  C002  FFDA         	movff	XBeeCreateATCommandPacket@packet+1,fsr2h
  4831  001626  0E08               	movlw	8
  4832  001628  6EDF               	movwf	indf2,c
  4833                           
  4834                           ;digi_at_request.c: 43: packet->frame.atCommand.frameId = frameId;
  4835  00162A  EE20 F001          	lfsr	2,1
  4836  00162E  5001               	movf	XBeeCreateATCommandPacket@packet,w,c
  4837  001630  26D9               	addwf	fsr2l,f,c
  4838  001632  5002               	movf	XBeeCreateATCommandPacket@packet+1,w,c
  4839  001634  22DA               	addwfc	fsr2h,f,c
  4840  001636  C003  FFDF         	movff	XBeeCreateATCommandPacket@frameId,indf2
  4841                           
  4842                           ;digi_at_request.c: 44: packet->length = 0x04;
  4843  00163A  EE20 F075          	lfsr	2,117
  4844  00163E  5001               	movf	XBeeCreateATCommandPacket@packet,w,c
  4845  001640  26D9               	addwf	fsr2l,f,c
  4846  001642  5002               	movf	XBeeCreateATCommandPacket@packet+1,w,c
  4847  001644  22DA               	addwfc	fsr2h,f,c
  4848  001646  0E04               	movlw	4
  4849  001648  6EDE               	movwf	postinc2,c
  4850  00164A  0E00               	movlw	0
  4851  00164C  6EDD               	movwf	postdec2,c
  4852  00164E  0012               	return		;funcret
  4853  001650                     __end_of_XBeeCreateATCommandPacket:
  4854                           	opt stack 0
  4855                           tblptru	equ	0xFF8
  4856                           tblptrh	equ	0xFF7
  4857                           tblptrl	equ	0xFF6
  4858                           tablat	equ	0xFF5
  4859                           prodh	equ	0xFF4
  4860                           prodl	equ	0xFF3
  4861                           intcon	equ	0xFF2
  4862                           intcon2	equ	0xFF1
  4863                           postinc0	equ	0xFEE
  4864                           wreg	equ	0xFE8
  4865                           indf1	equ	0xFE7
  4866                           postdec1	equ	0xFE5
  4867                           fsr1h	equ	0xFE2
  4868                           fsr1l	equ	0xFE1
  4869                           indf2	equ	0xFDF
  4870                           postinc2	equ	0xFDE
  4871                           postdec2	equ	0xFDD
  4872                           fsr2h	equ	0xFDA
  4873                           fsr2l	equ	0xFD9
  4874                           status	equ	0xFD8
  4875                           
  4876 ;; *************** function _XBeeCommissioning *****************
  4877 ;; Defined at:
  4878 ;;		line 48 in file "xbee/digi_join.c"
  4879 ;; Parameters:    Size  Location     Type
  4880 ;;  timesButtonP    1    wreg     unsigned char 
  4881 ;; Auto vars:     Size  Location     Type
  4882 ;;  timesButtonP    1   13[COMRAM] unsigned char 
  4883 ;;  params          2   14[COMRAM] unsigned char [2]
  4884 ;; Return value:  Size  Location     Type
  4885 ;;		None               void
  4886 ;; Registers used:
  4887 ;;		wreg, fsr1l, fsr1h, fsr2l, fsr2h, status,2, status,0, cstack
  4888 ;; Tracked objects:
  4889 ;;		On entry : 0/0
  4890 ;;		On exit  : 0/0
  4891 ;;		Unchanged: 0/0
  4892 ;; Data sizes:     COMRAM   BANK0   BANK1   BANK2   BANK3   BANK4   BANK5   BANK6   BANK7   BANK8   BANK9  BANK10  BANK1
      +1  BANK12  BANK13  BANK14
  4893 ;;      Params:         0       0       0       0       0       0       0       0       0       0       0       0       
      +0       0       0       0
  4894 ;;      Locals:         3       0       0       0       0       0       0       0       0       0       0       0       
      +0       0       0       0
  4895 ;;      Temps:          0       0       0       0       0       0       0       0       0       0       0       0       
      +0       0       0       0
  4896 ;;      Totals:         3       0       0       0       0       0       0       0       0       0       0       0       
      +0       0       0       0
  4897 ;;Total ram usage:        3 bytes
  4898 ;; Hardware stack levels used:    1
  4899 ;; Hardware stack levels required when called:    2
  4900 ;; This function calls:
  4901 ;;		_XBeeCreateCompleteATCommandPacket
  4902 ;;		_XBeeCreatePacket
  4903 ;;		_XBeeSendPacket
  4904 ;; This function is called by:
  4905 ;;		_XBeeJoin
  4906 ;; This function uses a non-reentrant model
  4907 ;;
  4908                           
  4909                           	psect	text44
  4910  001840                     __ptext44:
  4911                           	opt stack 0
  4912  001840                     _XBeeCommissioning:
  4913                           	opt stack 26
  4914                           
  4915                           ;incstack = 0
  4916                           ;XBeeCommissioning@timesButtonPress stored from wreg
  4917  001840  6E0E               	movwf	XBeeCommissioning@timesButtonPress,c
  4918                           
  4919                           ;digi_join.c: 49: static uint8_t command[3] = {'C', 'B', '\0'};
  4920                           ;digi_join.c: 50: uint8_t params[2];
  4921                           ;digi_join.c: 51: params[0] = timesButtonPress;
  4922  001842  C00E  F00F         	movff	XBeeCommissioning@timesButtonPress,XBeeCommissioning@params
  4923                           
  4924                           ;digi_join.c: 52: params[1] = '\0';
  4925  001846  0E00               	movlw	0
  4926  001848  6E10               	movwf	XBeeCommissioning@params+1,c
  4927                           
  4928                           ;digi_join.c: 53: XBeeCreatePacket(&joinPacket);
  4929  00184A  0E60               	movlw	low _joinPacket
  4930  00184C  6E09               	movwf	XBeeCreatePacket@packet,c
  4931  00184E  0E00               	movlw	high _joinPacket
  4932  001850  6E0A               	movwf	XBeeCreatePacket@packet+1,c
  4933  001852  ECEC  F009         	call	_XBeeCreatePacket	;wreg free
  4934                           
  4935                           ;digi_join.c: 54: XBeeCreateCompleteATCommandPacket(&joinPacket, 0x01, command, params, 
      +                          0x01);
  4936  001856  0E60               	movlw	low _joinPacket
  4937  001858  6E01               	movwf	XBeeCreateCompleteATCommandPacket@packet,c
  4938  00185A  0E00               	movlw	high _joinPacket
  4939  00185C  6E02               	movwf	XBeeCreateCompleteATCommandPacket@packet+1,c
  4940  00185E  0E01               	movlw	1
  4941  001860  6E03               	movwf	XBeeCreateCompleteATCommandPacket@frameId,c
  4942  001862  0E1D               	movlw	low XBeeCommissioning@command
  4943  001864  6E04               	movwf	XBeeCreateCompleteATCommandPacket@command,c
  4944  001866  0E00               	movlw	high XBeeCommissioning@command
  4945  001868  6E05               	movwf	XBeeCreateCompleteATCommandPacket@command+1,c
  4946  00186A  0E0F               	movlw	low XBeeCommissioning@params
  4947  00186C  6E06               	movwf	XBeeCreateCompleteATCommandPacket@params,c
  4948  00186E  0E00               	movlw	high XBeeCommissioning@params
  4949  001870  6E07               	movwf	XBeeCreateCompleteATCommandPacket@params+1,c
  4950  001872  0E01               	movlw	1
  4951  001874  6E08               	movwf	XBeeCreateCompleteATCommandPacket@paramsLength,c
  4952  001876  ECF6  F008         	call	_XBeeCreateCompleteATCommandPacket	;wreg free
  4953                           
  4954                           ;digi_join.c: 55: XBeeSendPacket(&joinPacket);
  4955  00187A  0E60               	movlw	low _joinPacket
  4956  00187C  6E02               	movwf	XBeeSendPacket@packet,c
  4957  00187E  0E00               	movlw	high _joinPacket
  4958  001880  6E03               	movwf	XBeeSendPacket@packet+1,c
  4959  001882  EC96  F008         	call	_XBeeSendPacket	;wreg free
  4960  001886  0012               	return		;funcret
  4961  001888                     __end_of_XBeeCommissioning:
  4962                           	opt stack 0
  4963                           tblptru	equ	0xFF8
  4964                           tblptrh	equ	0xFF7
  4965                           tblptrl	equ	0xFF6
  4966                           tablat	equ	0xFF5
  4967                           prodh	equ	0xFF4
  4968                           prodl	equ	0xFF3
  4969                           intcon	equ	0xFF2
  4970                           intcon2	equ	0xFF1
  4971                           postinc0	equ	0xFEE
  4972                           wreg	equ	0xFE8
  4973                           indf1	equ	0xFE7
  4974                           postdec1	equ	0xFE5
  4975                           fsr1h	equ	0xFE2
  4976                           fsr1l	equ	0xFE1
  4977                           indf2	equ	0xFDF
  4978                           postinc2	equ	0xFDE
  4979                           postdec2	equ	0xFDD
  4980                           fsr2h	equ	0xFDA
  4981                           fsr2l	equ	0xFD9
  4982                           status	equ	0xFD8
  4983                           
  4984 ;; *************** function _XBeeSendPacket *****************
  4985 ;; Defined at:
  4986 ;;		line 22 in file "xbee/digi_send.c"
  4987 ;; Parameters:    Size  Location     Type
  4988 ;;  packet          2    1[COMRAM] const PTR struct XBeePac
  4989 ;;		 -> SendMeasures@packet(125), joinPacket(125), 
  4990 ;; Auto vars:     Size  Location     Type
  4991 ;;  p               2    5[COMRAM] PTR unsigned char 
  4992 ;;		 -> SendMeasures@packet(125), joinPacket(125), 
  4993 ;; Return value:  Size  Location     Type
  4994 ;;                  1    wreg      enum E7337
  4995 ;; Registers used:
  4996 ;;		wreg, fsr2l, fsr2h, status,2, status,0, cstack
  4997 ;; Tracked objects:
  4998 ;;		On entry : 0/0
  4999 ;;		On exit  : 0/0
  5000 ;;		Unchanged: 0/0
  5001 ;; Data sizes:     COMRAM   BANK0   BANK1   BANK2   BANK3   BANK4   BANK5   BANK6   BANK7   BANK8   BANK9  BANK10  BANK1
      +1  BANK12  BANK13  BANK14
  5002 ;;      Params:         2       0       0       0       0       0       0       0       0       0       0       0       
      +0       0       0       0
  5003 ;;      Locals:         2       0       0       0       0       0       0       0       0       0       0       0       
      +0       0       0       0
  5004 ;;      Temps:          2       0       0       0       0       0       0       0       0       0       0       0       
      +0       0       0       0
  5005 ;;      Totals:         6       0       0       0       0       0       0       0       0       0       0       0       
      +0       0       0       0
  5006 ;;Total ram usage:        6 bytes
  5007 ;; Hardware stack levels used:    1
  5008 ;; Hardware stack levels required when called:    1
  5009 ;; This function calls:
  5010 ;;		_XBeeSerialSend
  5011 ;; This function is called by:
  5012 ;;		_XBeeReset
  5013 ;;		_XBeeCommissioning
  5014 ;;		_XBeeSetSleepMode
  5015 ;;		_SendMeasures
  5016 ;; This function uses a non-reentrant model
  5017 ;;
  5018                           
  5019                           	psect	text45
  5020  00112C                     __ptext45:
  5021                           	opt stack 0
  5022  00112C                     _XBeeSendPacket:
  5023                           	opt stack 27
  5024                           
  5025                           ;digi_send.c: 23: uint8_t* p = (uint8_t*) packet;
  5026                           
  5027                           ;incstack = 0
  5028  00112C  C002  F006         	movff	XBeeSendPacket@packet,XBeeSendPacket@p
  5029  001130  C003  F007         	movff	XBeeSendPacket@packet+1,XBeeSendPacket@p+1
  5030                           
  5031                           ;digi_send.c: 24: XBeeSerialSend(0x7E);
  5032  001134  0E7E               	movlw	126
  5033  001136  ECC7  F00D         	call	_XBeeSerialSend
  5034                           
  5035                           ;digi_send.c: 26: XBeeSerialSend((packet->length >> 8) & 0xFF);
  5036  00113A  EE20 F075          	lfsr	2,117
  5037  00113E  5002               	movf	XBeeSendPacket@packet,w,c
  5038  001140  26D9               	addwf	fsr2l,f,c
  5039  001142  5003               	movf	XBeeSendPacket@packet+1,w,c
  5040  001144  22DA               	addwfc	fsr2h,f,c
  5041  001146  CFDE F004          	movff	postinc2,??_XBeeSendPacket
  5042  00114A  CFDD F005          	movff	postdec2,??_XBeeSendPacket+1
  5043  00114E  C005  F004         	movff	??_XBeeSendPacket+1,??_XBeeSendPacket
  5044  001152  6A05               	clrf	??_XBeeSendPacket+1,c
  5045  001154  5004               	movf	??_XBeeSendPacket,w,c
  5046  001156  ECC7  F00D         	call	_XBeeSerialSend
  5047                           
  5048                           ;digi_send.c: 28: XBeeSerialSend(packet->length & 0xFF);
  5049  00115A  EE20 F075          	lfsr	2,117
  5050  00115E  5002               	movf	XBeeSendPacket@packet,w,c
  5051  001160  26D9               	addwf	fsr2l,f,c
  5052  001162  5003               	movf	XBeeSendPacket@packet+1,w,c
  5053  001164  22DA               	addwfc	fsr2h,f,c
  5054  001166  50DF               	movf	indf2,w,c
  5055  001168  ECC7  F00D         	call	_XBeeSerialSend
  5056                           
  5057                           ;digi_send.c: 30: packet->checksum = 0;
  5058  00116C  EE20 F077          	lfsr	2,119
  5059  001170  5002               	movf	XBeeSendPacket@packet,w,c
  5060  001172  26D9               	addwf	fsr2l,f,c
  5061  001174  5003               	movf	XBeeSendPacket@packet+1,w,c
  5062  001176  22DA               	addwfc	fsr2h,f,c
  5063  001178  0E00               	movlw	0
  5064  00117A  6EDF               	movwf	indf2,c
  5065                           
  5066                           ;digi_send.c: 32: while (packet->length--) {
  5067  00117C  D018               	goto	l2093
  5068  00117E                     l2087:
  5069                           
  5070                           ;digi_send.c: 33: XBeeSerialSend(*p);
  5071  00117E  C006  FFD9         	movff	XBeeSendPacket@p,fsr2l
  5072  001182  C007  FFDA         	movff	XBeeSendPacket@p+1,fsr2h
  5073  001186  50DF               	movf	indf2,w,c
  5074  001188  ECC7  F00D         	call	_XBeeSerialSend
  5075                           
  5076                           ;digi_send.c: 34: packet->checksum += *p++;
  5077  00118C  C006  FFD9         	movff	XBeeSendPacket@p,fsr2l
  5078  001190  C007  FFDA         	movff	XBeeSendPacket@p+1,fsr2h
  5079  001194  50DF               	movf	indf2,w,c
  5080  001196  6E04               	movwf	??_XBeeSendPacket& (0+255),c
  5081  001198  EE20 F077          	lfsr	2,119
  5082  00119C  5002               	movf	XBeeSendPacket@packet,w,c
  5083  00119E  26D9               	addwf	fsr2l,f,c
  5084  0011A0  5003               	movf	XBeeSendPacket@packet+1,w,c
  5085  0011A2  22DA               	addwfc	fsr2h,f,c
  5086  0011A4  5004               	movf	??_XBeeSendPacket,w,c
  5087  0011A6  26DF               	addwf	indf2,f,c
  5088  0011A8  4A06               	infsnz	XBeeSendPacket@p,f,c
  5089  0011AA  2A07               	incf	XBeeSendPacket@p+1,f,c
  5090  0011AC  D000               	goto	l2093
  5091  0011AE                     l2093:
  5092  0011AE  EE20 F075          	lfsr	2,117
  5093  0011B2  5002               	movf	XBeeSendPacket@packet,w,c
  5094  0011B4  26D9               	addwf	fsr2l,f,c
  5095  0011B6  5003               	movf	XBeeSendPacket@packet+1,w,c
  5096  0011B8  22DA               	addwfc	fsr2h,f,c
  5097  0011BA  06DE               	decf	postinc2,f,c
  5098  0011BC  0E00               	movlw	0
  5099  0011BE  5ADD               	subwfb	postdec2,f,c
  5100  0011C0  28DE               	incf	postinc2,w,c
  5101  0011C2  E1DD               	bnz	l2087
  5102  0011C4  28DE               	incf	postinc2,w,c
  5103  0011C6  A4D8               	btfss	status,2,c
  5104  0011C8  D7DA               	goto	l2087
  5105                           
  5106                           ;digi_send.c: 35: }
  5107                           ;digi_send.c: 36: XBeeSerialSend((0xFF - packet->checksum));
  5108  0011CA  EE20 F077          	lfsr	2,119
  5109  0011CE  5002               	movf	XBeeSendPacket@packet,w,c
  5110  0011D0  26D9               	addwf	fsr2l,f,c
  5111  0011D2  5003               	movf	XBeeSendPacket@packet+1,w,c
  5112  0011D4  22DA               	addwfc	fsr2h,f,c
  5113  0011D6  50DF               	movf	indf2,w,c
  5114  0011D8  0800               	sublw	0
  5115  0011DA  6E04               	movwf	??_XBeeSendPacket& (0+255),c
  5116  0011DC  0404               	decf	??_XBeeSendPacket,w,c
  5117  0011DE  ECC7  F00D         	call	_XBeeSerialSend
  5118                           
  5119                           ;digi_send.c: 38: XBeeSerialSend((0));
  5120  0011E2  0E00               	movlw	0
  5121  0011E4  ECC7  F00D         	call	_XBeeSerialSend
  5122  0011E8  0012               	return	
  5123                           
  5124                           ;digi_send.c: 39: return TRUE;
  5125                           ;	Return value of _XBeeSendPacket is never used
  5126  0011EA  0012               	return		;funcret
  5127  0011EC                     __end_of_XBeeSendPacket:
  5128                           	opt stack 0
  5129                           tblptru	equ	0xFF8
  5130                           tblptrh	equ	0xFF7
  5131                           tblptrl	equ	0xFF6
  5132                           tablat	equ	0xFF5
  5133                           prodh	equ	0xFF4
  5134                           prodl	equ	0xFF3
  5135                           intcon	equ	0xFF2
  5136                           intcon2	equ	0xFF1
  5137                           postinc0	equ	0xFEE
  5138                           wreg	equ	0xFE8
  5139                           indf1	equ	0xFE7
  5140                           postdec1	equ	0xFE5
  5141                           fsr1h	equ	0xFE2
  5142                           fsr1l	equ	0xFE1
  5143                           indf2	equ	0xFDF
  5144                           postinc2	equ	0xFDE
  5145                           postdec2	equ	0xFDD
  5146                           fsr2h	equ	0xFDA
  5147                           fsr2l	equ	0xFD9
  5148                           status	equ	0xFD8
  5149                           
  5150 ;; *************** function _XBeeSerialSend *****************
  5151 ;; Defined at:
  5152 ;;		line 35 in file "xbee/digi_serial.c"
  5153 ;; Parameters:    Size  Location     Type
  5154 ;;  value           1    wreg     unsigned char 
  5155 ;; Auto vars:     Size  Location     Type
  5156 ;;  value           1    0[COMRAM] unsigned char 
  5157 ;; Return value:  Size  Location     Type
  5158 ;;		None               void
  5159 ;; Registers used:
  5160 ;;		wreg
  5161 ;; Tracked objects:
  5162 ;;		On entry : 0/0
  5163 ;;		On exit  : 0/0
  5164 ;;		Unchanged: 0/0
  5165 ;; Data sizes:     COMRAM   BANK0   BANK1   BANK2   BANK3   BANK4   BANK5   BANK6   BANK7   BANK8   BANK9  BANK10  BANK1
      +1  BANK12  BANK13  BANK14
  5166 ;;      Params:         0       0       0       0       0       0       0       0       0       0       0       0       
      +0       0       0       0
  5167 ;;      Locals:         1       0       0       0       0       0       0       0       0       0       0       0       
      +0       0       0       0
  5168 ;;      Temps:          0       0       0       0       0       0       0       0       0       0       0       0       
      +0       0       0       0
  5169 ;;      Totals:         1       0       0       0       0       0       0       0       0       0       0       0       
      +0       0       0       0
  5170 ;;Total ram usage:        1 bytes
  5171 ;; Hardware stack levels used:    1
  5172 ;; This function calls:
  5173 ;;		Nothing
  5174 ;; This function is called by:
  5175 ;;		_XBeeSendPacket
  5176 ;;		_XBeeSerialSendArray
  5177 ;; This function uses a non-reentrant model
  5178 ;;
  5179                           
  5180                           	psect	text46
  5181  001B8E                     __ptext46:
  5182                           	opt stack 0
  5183  001B8E                     _XBeeSerialSend:
  5184                           	opt stack 27
  5185                           
  5186                           ;incstack = 0
  5187                           ;XBeeSerialSend@value stored from wreg
  5188  001B8E  6E01               	movwf	XBeeSerialSend@value,c
  5189                           
  5190                           ;digi_serial.c: 36: while (!TXSTA1bits.TRMT);
  5191  001B90  D000               	goto	l173
  5192  001B92                     l173:
  5193  001B92  A2AD               	btfss	4013,1,c	;volatile
  5194  001B94  D7FE               	goto	l173
  5195                           
  5196                           ;digi_serial.c: 37: TXREG1 = value;
  5197  001B96  C001  FFAE         	movff	XBeeSerialSend@value,4014	;volatile
  5198  001B9A  0012               	return		;funcret
  5199  001B9C                     __end_of_XBeeSerialSend:
  5200                           	opt stack 0
  5201                           tblptru	equ	0xFF8
  5202                           tblptrh	equ	0xFF7
  5203                           tblptrl	equ	0xFF6
  5204                           tablat	equ	0xFF5
  5205                           prodh	equ	0xFF4
  5206                           prodl	equ	0xFF3
  5207                           intcon	equ	0xFF2
  5208                           intcon2	equ	0xFF1
  5209                           postinc0	equ	0xFEE
  5210                           wreg	equ	0xFE8
  5211                           indf1	equ	0xFE7
  5212                           postdec1	equ	0xFE5
  5213                           fsr1h	equ	0xFE2
  5214                           fsr1l	equ	0xFE1
  5215                           indf2	equ	0xFDF
  5216                           postinc2	equ	0xFDE
  5217                           postdec2	equ	0xFDD
  5218                           fsr2h	equ	0xFDA
  5219                           fsr2l	equ	0xFD9
  5220                           status	equ	0xFD8
  5221                           
  5222 ;; *************** function _XBeeCreatePacket *****************
  5223 ;; Defined at:
  5224 ;;		line 21 in file "xbee/digi_api.c"
  5225 ;; Parameters:    Size  Location     Type
  5226 ;;  packet          2    8[COMRAM] const PTR struct XBeePac
  5227 ;;		 -> SendMeasures@packet(125), joinPacket(125), 
  5228 ;; Auto vars:     Size  Location     Type
  5229 ;;		None
  5230 ;; Return value:  Size  Location     Type
  5231 ;;		None               void
  5232 ;; Registers used:
  5233 ;;		wreg, fsr2l, fsr2h, status,2, status,0, cstack
  5234 ;; Tracked objects:
  5235 ;;		On entry : 0/0
  5236 ;;		On exit  : 0/0
  5237 ;;		Unchanged: 0/0
  5238 ;; Data sizes:     COMRAM   BANK0   BANK1   BANK2   BANK3   BANK4   BANK5   BANK6   BANK7   BANK8   BANK9  BANK10  BANK1
      +1  BANK12  BANK13  BANK14
  5239 ;;      Params:         2       0       0       0       0       0       0       0       0       0       0       0       
      +0       0       0       0
  5240 ;;      Locals:         0       0       0       0       0       0       0       0       0       0       0       0       
      +0       0       0       0
  5241 ;;      Temps:          0       0       0       0       0       0       0       0       0       0       0       0       
      +0       0       0       0
  5242 ;;      Totals:         2       0       0       0       0       0       0       0       0       0       0       0       
      +0       0       0       0
  5243 ;;Total ram usage:        2 bytes
  5244 ;; Hardware stack levels used:    1
  5245 ;; Hardware stack levels required when called:    1
  5246 ;; This function calls:
  5247 ;;		_memset
  5248 ;; This function is called by:
  5249 ;;		_XBeeReset
  5250 ;;		_XBeeCommissioning
  5251 ;;		_XBeeSetSleepMode
  5252 ;;		_SendMeasures
  5253 ;; This function uses a non-reentrant model
  5254 ;;
  5255                           
  5256                           	psect	text47
  5257  0013D8                     __ptext47:
  5258                           	opt stack 0
  5259  0013D8                     _XBeeCreatePacket:
  5260                           	opt stack 27
  5261                           
  5262                           ;digi_api.c: 22: packet->dataPtr = (uint8_t*) packet;
  5263                           
  5264                           ;incstack = 0
  5265  0013D8  EE20 F079          	lfsr	2,121
  5266  0013DC  5009               	movf	XBeeCreatePacket@packet,w,c
  5267  0013DE  26D9               	addwf	fsr2l,f,c
  5268  0013E0  500A               	movf	XBeeCreatePacket@packet+1,w,c
  5269  0013E2  22DA               	addwfc	fsr2h,f,c
  5270  0013E4  C009  FFDE         	movff	XBeeCreatePacket@packet,postinc2
  5271  0013E8  C00A  FFDD         	movff	XBeeCreatePacket@packet+1,postdec2
  5272                           
  5273                           ;digi_api.c: 23: packet->checksum = 0;
  5274  0013EC  EE20 F077          	lfsr	2,119
  5275  0013F0  5009               	movf	XBeeCreatePacket@packet,w,c
  5276  0013F2  26D9               	addwf	fsr2l,f,c
  5277  0013F4  500A               	movf	XBeeCreatePacket@packet+1,w,c
  5278  0013F6  22DA               	addwfc	fsr2h,f,c
  5279  0013F8  0E00               	movlw	0
  5280  0013FA  6EDF               	movwf	indf2,c
  5281                           
  5282                           ;digi_api.c: 24: packet->rxState = XBEE_PACKET_RX_START;
  5283  0013FC  EE20 F078          	lfsr	2,120
  5284  001400  5009               	movf	XBeeCreatePacket@packet,w,c
  5285  001402  26D9               	addwf	fsr2l,f,c
  5286  001404  500A               	movf	XBeeCreatePacket@packet+1,w,c
  5287  001406  22DA               	addwfc	fsr2h,f,c
  5288  001408  0E00               	movlw	0
  5289  00140A  6EDF               	movwf	indf2,c
  5290                           
  5291                           ;digi_api.c: 25: packet->length = 0;
  5292  00140C  EE20 F075          	lfsr	2,117
  5293  001410  5009               	movf	XBeeCreatePacket@packet,w,c
  5294  001412  26D9               	addwf	fsr2l,f,c
  5295  001414  500A               	movf	XBeeCreatePacket@packet+1,w,c
  5296  001416  22DA               	addwfc	fsr2h,f,c
  5297  001418  0E00               	movlw	0
  5298  00141A  6EDE               	movwf	postinc2,c
  5299  00141C  0E00               	movlw	0
  5300  00141E  6EDD               	movwf	postdec2,c
  5301                           
  5302                           ;digi_api.c: 26: packet->index = 0;
  5303  001420  EE20 F07B          	lfsr	2,123
  5304  001424  5009               	movf	XBeeCreatePacket@packet,w,c
  5305  001426  26D9               	addwf	fsr2l,f,c
  5306  001428  500A               	movf	XBeeCreatePacket@packet+1,w,c
  5307  00142A  22DA               	addwfc	fsr2h,f,c
  5308  00142C  0E00               	movlw	0
  5309  00142E  6EDF               	movwf	indf2,c
  5310                           
  5311                           ;digi_api.c: 27: packet->apiId = 0;
  5312  001430  C009  FFD9         	movff	XBeeCreatePacket@packet,fsr2l
  5313  001434  C00A  FFDA         	movff	XBeeCreatePacket@packet+1,fsr2h
  5314  001438  0E00               	movlw	0
  5315  00143A  6EDF               	movwf	indf2,c
  5316                           
  5317                           ;digi_api.c: 28: memset(packet->frame.payload, 0, 100);
  5318  00143C  0E01               	movlw	1
  5319  00143E  2409               	addwf	XBeeCreatePacket@packet,w,c
  5320  001440  6E01               	movwf	memset@p1,c
  5321  001442  0E00               	movlw	0
  5322  001444  200A               	addwfc	XBeeCreatePacket@packet+1,w,c
  5323  001446  6E02               	movwf	memset@p1+1,c
  5324  001448  0E00               	movlw	0
  5325  00144A  6E04               	movwf	memset@c+1,c
  5326  00144C  0E00               	movlw	0
  5327  00144E  6E03               	movwf	memset@c,c
  5328  001450  0E00               	movlw	0
  5329  001452  6E06               	movwf	memset@n+1,c
  5330  001454  0E64               	movlw	100
  5331  001456  6E05               	movwf	memset@n,c
  5332  001458  ECEB  F00C         	call	_memset	;wreg free
  5333  00145C  0012               	return		;funcret
  5334  00145E                     __end_of_XBeeCreatePacket:
  5335                           	opt stack 0
  5336                           tblptru	equ	0xFF8
  5337                           tblptrh	equ	0xFF7
  5338                           tblptrl	equ	0xFF6
  5339                           tablat	equ	0xFF5
  5340                           prodh	equ	0xFF4
  5341                           prodl	equ	0xFF3
  5342                           intcon	equ	0xFF2
  5343                           intcon2	equ	0xFF1
  5344                           postinc0	equ	0xFEE
  5345                           wreg	equ	0xFE8
  5346                           indf1	equ	0xFE7
  5347                           postdec1	equ	0xFE5
  5348                           fsr1h	equ	0xFE2
  5349                           fsr1l	equ	0xFE1
  5350                           indf2	equ	0xFDF
  5351                           postinc2	equ	0xFDE
  5352                           postdec2	equ	0xFDD
  5353                           fsr2h	equ	0xFDA
  5354                           fsr2l	equ	0xFD9
  5355                           status	equ	0xFD8
  5356                           
  5357 ;; *************** function _memset *****************
  5358 ;; Defined at:
  5359 ;;		line 8 in file "C:\Program Files (x86)\Microchip\xc8\v1.34\sources\common\memset.c"
  5360 ;; Parameters:    Size  Location     Type
  5361 ;;  p1              2    0[COMRAM] PTR void 
  5362 ;;		 -> joinPacket.frame(116), packet.frame(116), SendMeasures@packet(125), joinPacket(125), 
  5363 ;;  c               2    2[COMRAM] int 
  5364 ;;  n               2    4[COMRAM] unsigned int 
  5365 ;; Auto vars:     Size  Location     Type
  5366 ;;  p               2    6[COMRAM] PTR unsigned char 
  5367 ;;		 -> joinPacket.frame(116), packet.frame(116), SendMeasures@packet(125), joinPacket(125), 
  5368 ;; Return value:  Size  Location     Type
  5369 ;;                  2    0[COMRAM] PTR void 
  5370 ;; Registers used:
  5371 ;;		wreg, fsr2l, fsr2h, status,2, status,0
  5372 ;; Tracked objects:
  5373 ;;		On entry : 0/0
  5374 ;;		On exit  : 0/0
  5375 ;;		Unchanged: 0/0
  5376 ;; Data sizes:     COMRAM   BANK0   BANK1   BANK2   BANK3   BANK4   BANK5   BANK6   BANK7   BANK8   BANK9  BANK10  BANK1
      +1  BANK12  BANK13  BANK14
  5377 ;;      Params:         6       0       0       0       0       0       0       0       0       0       0       0       
      +0       0       0       0
  5378 ;;      Locals:         2       0       0       0       0       0       0       0       0       0       0       0       
      +0       0       0       0
  5379 ;;      Temps:          0       0       0       0       0       0       0       0       0       0       0       0       
      +0       0       0       0
  5380 ;;      Totals:         8       0       0       0       0       0       0       0       0       0       0       0       
      +0       0       0       0
  5381 ;;Total ram usage:        8 bytes
  5382 ;; Hardware stack levels used:    1
  5383 ;; This function calls:
  5384 ;;		Nothing
  5385 ;; This function is called by:
  5386 ;;		_XBeeCreatePacket
  5387 ;; This function uses a non-reentrant model
  5388 ;;
  5389                           
  5390                           	psect	text48
  5391  0019D6                     __ptext48:
  5392                           	opt stack 0
  5393  0019D6                     _memset:
  5394                           	opt stack 27
  5395                           
  5396                           ;incstack = 0
  5397  0019D6  C001  F007         	movff	memset@p1,memset@p
  5398  0019DA  C002  F008         	movff	memset@p1+1,memset@p+1
  5399  0019DE  D009               	goto	l2013
  5400  0019E0                     l2009:
  5401  0019E0  C007  FFD9         	movff	memset@p,fsr2l
  5402  0019E4  C008  FFDA         	movff	memset@p+1,fsr2h
  5403  0019E8  C003  FFDF         	movff	memset@c,indf2
  5404  0019EC  4A07               	infsnz	memset@p,f,c
  5405  0019EE  2A08               	incf	memset@p+1,f,c
  5406  0019F0  D000               	goto	l2013
  5407  0019F2                     l2013:
  5408  0019F2  0605               	decf	memset@n,f,c
  5409  0019F4  A0D8               	btfss	status,0,c
  5410  0019F6  0606               	decf	memset@n+1,f,c
  5411  0019F8  2805               	incf	memset@n,w,c
  5412  0019FA  E1F2               	bnz	l2009
  5413  0019FC  2806               	incf	memset@n+1,w,c
  5414  0019FE  A4D8               	btfss	status,2,c
  5415  001A00  D7EF               	goto	l2009
  5416                           
  5417                           ;	Return value of _memset is never used
  5418  001A02  0012               	return		;funcret
  5419  001A04                     __end_of_memset:
  5420                           	opt stack 0
  5421                           tblptru	equ	0xFF8
  5422                           tblptrh	equ	0xFF7
  5423                           tblptrl	equ	0xFF6
  5424                           tablat	equ	0xFF5
  5425                           prodh	equ	0xFF4
  5426                           prodl	equ	0xFF3
  5427                           intcon	equ	0xFF2
  5428                           intcon2	equ	0xFF1
  5429                           postinc0	equ	0xFEE
  5430                           wreg	equ	0xFE8
  5431                           indf1	equ	0xFE7
  5432                           postdec1	equ	0xFE5
  5433                           fsr1h	equ	0xFE2
  5434                           fsr1l	equ	0xFE1
  5435                           indf2	equ	0xFDF
  5436                           postinc2	equ	0xFDE
  5437                           postdec2	equ	0xFDD
  5438                           fsr2h	equ	0xFDA
  5439                           fsr2l	equ	0xFD9
  5440                           status	equ	0xFD8
  5441                           
  5442 ;; *************** function _XBeeCreateCompleteATCommandPacket *****************
  5443 ;; Defined at:
  5444 ;;		line 20 in file "xbee/digi_at_request.c"
  5445 ;; Parameters:    Size  Location     Type
  5446 ;;  packet          2    0[COMRAM] PTR struct XBeePacket
  5447 ;;		 -> joinPacket(125), 
  5448 ;;  frameId         1    2[COMRAM] unsigned char 
  5449 ;;  command         2    3[COMRAM] PTR unsigned char 
  5450 ;;		 -> XBeeSetSleepMode@command(3), XBeeCommissioning@command(3), 
  5451 ;;  params          2    5[COMRAM] PTR unsigned char 
  5452 ;;		 -> XBeeSetSleepMode@params(2), XBeeCommissioning@params(2), 
  5453 ;;  paramsLength    1    7[COMRAM] unsigned char 
  5454 ;; Auto vars:     Size  Location     Type
  5455 ;;  p               2   11[COMRAM] PTR unsigned char 
  5456 ;;		 -> joinPacket.frame.value(97), joinPacket.frame.command(2), XBeeCreateCompleteATCommandPacket@packet.frame(116), 
  5457 ;;  i               1   10[COMRAM] unsigned char 
  5458 ;; Return value:  Size  Location     Type
  5459 ;;		None               void
  5460 ;; Registers used:
  5461 ;;		wreg, fsr1l, fsr1h, fsr2l, fsr2h, status,2, status,0
  5462 ;; Tracked objects:
  5463 ;;		On entry : 0/0
  5464 ;;		On exit  : 0/0
  5465 ;;		Unchanged: 0/0
  5466 ;; Data sizes:     COMRAM   BANK0   BANK1   BANK2   BANK3   BANK4   BANK5   BANK6   BANK7   BANK8   BANK9  BANK10  BANK1
      +1  BANK12  BANK13  BANK14
  5467 ;;      Params:         8       0       0       0       0       0       0       0       0       0       0       0       
      +0       0       0       0
  5468 ;;      Locals:         3       0       0       0       0       0       0       0       0       0       0       0       
      +0       0       0       0
  5469 ;;      Temps:          2       0       0       0       0       0       0       0       0       0       0       0       
      +0       0       0       0
  5470 ;;      Totals:        13       0       0       0       0       0       0       0       0       0       0       0       
      +0       0       0       0
  5471 ;;Total ram usage:       13 bytes
  5472 ;; Hardware stack levels used:    1
  5473 ;; This function calls:
  5474 ;;		Nothing
  5475 ;; This function is called by:
  5476 ;;		_XBeeCommissioning
  5477 ;;		_XBeeSetSleepMode
  5478 ;; This function uses a non-reentrant model
  5479 ;;
  5480                           
  5481                           	psect	text49
  5482  0011EC                     __ptext49:
  5483                           	opt stack 0
  5484  0011EC                     _XBeeCreateCompleteATCommandPacket:
  5485                           	opt stack 27
  5486                           
  5487                           ;digi_at_request.c: 22: uint8_t* p = packet->frame.atCommand.command;
  5488                           
  5489                           ;incstack = 0
  5490  0011EC  0E02               	movlw	2
  5491  0011EE  2401               	addwf	XBeeCreateCompleteATCommandPacket@packet,w,c
  5492  0011F0  6E0C               	movwf	XBeeCreateCompleteATCommandPacket@p,c
  5493  0011F2  0E00               	movlw	0
  5494  0011F4  2002               	addwfc	XBeeCreateCompleteATCommandPacket@packet+1,w,c
  5495  0011F6  6E0D               	movwf	XBeeCreateCompleteATCommandPacket@p+1,c
  5496                           
  5497                           ;digi_at_request.c: 23: uint8_t i = paramsLength;
  5498  0011F8  C008  F00B         	movff	XBeeCreateCompleteATCommandPacket@paramsLength,XBeeCreateCompleteATCommandPacket@
      +                          i
  5499                           
  5500                           ;digi_at_request.c: 24: *p++ = *command++;
  5501  0011FC  C004  FFD9         	movff	XBeeCreateCompleteATCommandPacket@command,fsr2l
  5502  001200  C005  FFDA         	movff	XBeeCreateCompleteATCommandPacket@command+1,fsr2h
  5503  001204  C00C  FFE1         	movff	XBeeCreateCompleteATCommandPacket@p,fsr1l
  5504  001208  C00D  FFE2         	movff	XBeeCreateCompleteATCommandPacket@p+1,fsr1h
  5505  00120C  CFDF FFE7          	movff	indf2,indf1
  5506  001210  4A04               	infsnz	XBeeCreateCompleteATCommandPacket@command,f,c
  5507  001212  2A05               	incf	XBeeCreateCompleteATCommandPacket@command+1,f,c
  5508  001214  4A0C               	infsnz	XBeeCreateCompleteATCommandPacket@p,f,c
  5509  001216  2A0D               	incf	XBeeCreateCompleteATCommandPacket@p+1,f,c
  5510                           
  5511                           ;digi_at_request.c: 25: *p++ = *command;
  5512  001218  C004  FFD9         	movff	XBeeCreateCompleteATCommandPacket@command,fsr2l
  5513  00121C  C005  FFDA         	movff	XBeeCreateCompleteATCommandPacket@command+1,fsr2h
  5514  001220  C00C  FFE1         	movff	XBeeCreateCompleteATCommandPacket@p,fsr1l
  5515  001224  C00D  FFE2         	movff	XBeeCreateCompleteATCommandPacket@p+1,fsr1h
  5516  001228  CFDF FFE7          	movff	indf2,indf1
  5517  00122C  4A0C               	infsnz	XBeeCreateCompleteATCommandPacket@p,f,c
  5518  00122E  2A0D               	incf	XBeeCreateCompleteATCommandPacket@p+1,f,c
  5519                           
  5520                           ;digi_at_request.c: 26: p = packet->frame.atCommand.value;
  5521  001230  0E04               	movlw	4
  5522  001232  2401               	addwf	XBeeCreateCompleteATCommandPacket@packet,w,c
  5523  001234  6E0C               	movwf	XBeeCreateCompleteATCommandPacket@p,c
  5524  001236  0E00               	movlw	0
  5525  001238  2002               	addwfc	XBeeCreateCompleteATCommandPacket@packet+1,w,c
  5526  00123A  6E0D               	movwf	XBeeCreateCompleteATCommandPacket@p+1,c
  5527                           
  5528                           ;digi_at_request.c: 27: while (i--) {
  5529  00123C  D00F               	goto	l2175
  5530  00123E                     l2169:
  5531                           
  5532                           ;digi_at_request.c: 28: *p++ = *params++;
  5533  00123E  C006  FFD9         	movff	XBeeCreateCompleteATCommandPacket@params,fsr2l
  5534  001242  C007  FFDA         	movff	XBeeCreateCompleteATCommandPacket@params+1,fsr2h
  5535  001246  C00C  FFE1         	movff	XBeeCreateCompleteATCommandPacket@p,fsr1l
  5536  00124A  C00D  FFE2         	movff	XBeeCreateCompleteATCommandPacket@p+1,fsr1h
  5537  00124E  CFDF FFE7          	movff	indf2,indf1
  5538  001252  4A06               	infsnz	XBeeCreateCompleteATCommandPacket@params,f,c
  5539  001254  2A07               	incf	XBeeCreateCompleteATCommandPacket@params+1,f,c
  5540  001256  4A0C               	infsnz	XBeeCreateCompleteATCommandPacket@p,f,c
  5541  001258  2A0D               	incf	XBeeCreateCompleteATCommandPacket@p+1,f,c
  5542  00125A  D000               	goto	l2175
  5543  00125C                     l2175:
  5544  00125C  060B               	decf	XBeeCreateCompleteATCommandPacket@i,f,c
  5545  00125E  280B               	incf	XBeeCreateCompleteATCommandPacket@i,w,c
  5546  001260  A4D8               	btfss	status,2,c
  5547  001262  D7ED               	goto	l2169
  5548                           
  5549                           ;digi_at_request.c: 29: }
  5550                           ;digi_at_request.c: 30: packet->apiId = AT_COMMAND;
  5551  001264  C001  FFD9         	movff	XBeeCreateCompleteATCommandPacket@packet,fsr2l
  5552  001268  C002  FFDA         	movff	XBeeCreateCompleteATCommandPacket@packet+1,fsr2h
  5553  00126C  0E08               	movlw	8
  5554  00126E  6EDF               	movwf	indf2,c
  5555                           
  5556                           ;digi_at_request.c: 31: packet->frame.atCommand.frameId = frameId;
  5557  001270  EE20 F001          	lfsr	2,1
  5558  001274  5001               	movf	XBeeCreateCompleteATCommandPacket@packet,w,c
  5559  001276  26D9               	addwf	fsr2l,f,c
  5560  001278  5002               	movf	XBeeCreateCompleteATCommandPacket@packet+1,w,c
  5561  00127A  22DA               	addwfc	fsr2h,f,c
  5562  00127C  C003  FFDF         	movff	XBeeCreateCompleteATCommandPacket@frameId,indf2
  5563                           
  5564                           ;digi_at_request.c: 32: packet->length = 0x04 + paramsLength;
  5565  001280  5008               	movf	XBeeCreateCompleteATCommandPacket@paramsLength,w,c
  5566  001282  6E09               	movwf	??_XBeeCreateCompleteATCommandPacket& (0+255),c
  5567  001284  6A0A               	clrf	(??_XBeeCreateCompleteATCommandPacket+1)& (0+255),c
  5568  001286  0E04               	movlw	4
  5569  001288  2609               	addwf	??_XBeeCreateCompleteATCommandPacket,f,c
  5570  00128A  0E00               	movlw	0
  5571  00128C  220A               	addwfc	??_XBeeCreateCompleteATCommandPacket+1,f,c
  5572  00128E  EE20 F075          	lfsr	2,117
  5573  001292  5001               	movf	XBeeCreateCompleteATCommandPacket@packet,w,c
  5574  001294  26D9               	addwf	fsr2l,f,c
  5575  001296  5002               	movf	XBeeCreateCompleteATCommandPacket@packet+1,w,c
  5576  001298  22DA               	addwfc	fsr2h,f,c
  5577  00129A  C009  FFDE         	movff	??_XBeeCreateCompleteATCommandPacket,postinc2
  5578  00129E  C00A  FFDD         	movff	??_XBeeCreateCompleteATCommandPacket+1,postdec2
  5579  0012A2  0012               	return		;funcret
  5580  0012A4                     __end_of_XBeeCreateCompleteATCommandPacket:
  5581                           	opt stack 0
  5582                           tblptru	equ	0xFF8
  5583                           tblptrh	equ	0xFF7
  5584                           tblptrl	equ	0xFF6
  5585                           tablat	equ	0xFF5
  5586                           prodh	equ	0xFF4
  5587                           prodl	equ	0xFF3
  5588                           intcon	equ	0xFF2
  5589                           intcon2	equ	0xFF1
  5590                           postinc0	equ	0xFEE
  5591                           wreg	equ	0xFE8
  5592                           indf1	equ	0xFE7
  5593                           postdec1	equ	0xFE5
  5594                           fsr1h	equ	0xFE2
  5595                           fsr1l	equ	0xFE1
  5596                           indf2	equ	0xFDF
  5597                           postinc2	equ	0xFDE
  5598                           postdec2	equ	0xFDD
  5599                           fsr2h	equ	0xFDA
  5600                           fsr2l	equ	0xFD9
  5601                           status	equ	0xFD8
  5602                           
  5603 ;; *************** function _Delay10KTCYx *****************
  5604 ;; Defined at:
  5605 ;;		line 8 in file "C:\Program Files (x86)\Microchip\xc8\v1.34\sources\pic18\d10ktcyx.c"
  5606 ;; Parameters:    Size  Location     Type
  5607 ;;  unit            1    wreg     unsigned char 
  5608 ;; Auto vars:     Size  Location     Type
  5609 ;;  unit            1    1[COMRAM] unsigned char 
  5610 ;; Return value:  Size  Location     Type
  5611 ;;		None               void
  5612 ;; Registers used:
  5613 ;;		wreg
  5614 ;; Tracked objects:
  5615 ;;		On entry : 0/0
  5616 ;;		On exit  : 0/0
  5617 ;;		Unchanged: 0/0
  5618 ;; Data sizes:     COMRAM   BANK0   BANK1   BANK2   BANK3   BANK4   BANK5   BANK6   BANK7   BANK8   BANK9  BANK10  BANK1
      +1  BANK12  BANK13  BANK14
  5619 ;;      Params:         0       0       0       0       0       0       0       0       0       0       0       0       
      +0       0       0       0
  5620 ;;      Locals:         1       0       0       0       0       0       0       0       0       0       0       0       
      +0       0       0       0
  5621 ;;      Temps:          1       0       0       0       0       0       0       0       0       0       0       0       
      +0       0       0       0
  5622 ;;      Totals:         2       0       0       0       0       0       0       0       0       0       0       0       
      +0       0       0       0
  5623 ;;Total ram usage:        2 bytes
  5624 ;; Hardware stack levels used:    1
  5625 ;; This function calls:
  5626 ;;		Nothing
  5627 ;; This function is called by:
  5628 ;;		_XBeeJoin
  5629 ;;		_OnMclr
  5630 ;; This function uses a non-reentrant model
  5631 ;;
  5632                           
  5633                           	psect	text50
  5634  001ABC                     __ptext50:
  5635                           	opt stack 0
  5636  001ABC                     _Delay10KTCYx:
  5637                           	opt stack 28
  5638                           
  5639                           ;incstack = 0
  5640                           ;Delay10KTCYx@unit stored from wreg
  5641  001ABC  6E02               	movwf	Delay10KTCYx@unit,c
  5642  001ABE  0E0D               	movlw	13
  5643  001AC0  6E01               	movwf	??_Delay10KTCYx& (0+255),c
  5644  001AC2  0EFC               	movlw	252
  5645  001AC4                     u807:
  5646  001AC4  2EE8               	decfsz	wreg,f,c
  5647  001AC6  D7FE               	goto	u807
  5648  001AC8  2E01               	decfsz	??_Delay10KTCYx& (0+255),f,c
  5649  001ACA  D7FC               	goto	u807
  5650  001ACC  2E02               	decfsz	Delay10KTCYx@unit,f,c
  5651  001ACE  D7F7               	goto	l1635
  5652  001AD0  0012               	return	
  5653  001AD2  0012               	return		;funcret
  5654  001AD4                     __end_of_Delay10KTCYx:
  5655                           	opt stack 0
  5656                           tblptru	equ	0xFF8
  5657                           tblptrh	equ	0xFF7
  5658                           tblptrl	equ	0xFF6
  5659                           tablat	equ	0xFF5
  5660                           prodh	equ	0xFF4
  5661                           prodl	equ	0xFF3
  5662                           intcon	equ	0xFF2
  5663                           intcon2	equ	0xFF1
  5664                           postinc0	equ	0xFEE
  5665                           wreg	equ	0xFE8
  5666                           indf1	equ	0xFE7
  5667                           postdec1	equ	0xFE5
  5668                           fsr1h	equ	0xFE2
  5669                           fsr1l	equ	0xFE1
  5670                           indf2	equ	0xFDF
  5671                           postinc2	equ	0xFDE
  5672                           postdec2	equ	0xFDD
  5673                           fsr2h	equ	0xFDA
  5674                           fsr2l	equ	0xFD9
  5675                           status	equ	0xFD8
  5676                           
  5677 ;; *************** function _Delay100TCYx *****************
  5678 ;; Defined at:
  5679 ;;		line 8 in file "C:\Program Files (x86)\Microchip\xc8\v1.34\sources\pic18\d100tcyx.c"
  5680 ;; Parameters:    Size  Location     Type
  5681 ;;  unit            1    wreg     unsigned char 
  5682 ;; Auto vars:     Size  Location     Type
  5683 ;;  unit            1    0[COMRAM] unsigned char 
  5684 ;; Return value:  Size  Location     Type
  5685 ;;		None               void
  5686 ;; Registers used:
  5687 ;;		wreg
  5688 ;; Tracked objects:
  5689 ;;		On entry : 0/0
  5690 ;;		On exit  : 0/0
  5691 ;;		Unchanged: 0/0
  5692 ;; Data sizes:     COMRAM   BANK0   BANK1   BANK2   BANK3   BANK4   BANK5   BANK6   BANK7   BANK8   BANK9  BANK10  BANK1
      +1  BANK12  BANK13  BANK14
  5693 ;;      Params:         0       0       0       0       0       0       0       0       0       0       0       0       
      +0       0       0       0
  5694 ;;      Locals:         1       0       0       0       0       0       0       0       0       0       0       0       
      +0       0       0       0
  5695 ;;      Temps:          0       0       0       0       0       0       0       0       0       0       0       0       
      +0       0       0       0
  5696 ;;      Totals:         1       0       0       0       0       0       0       0       0       0       0       0       
      +0       0       0       0
  5697 ;;Total ram usage:        1 bytes
  5698 ;; Hardware stack levels used:    1
  5699 ;; This function calls:
  5700 ;;		Nothing
  5701 ;; This function is called by:
  5702 ;;		_OnDsWdtWakeUp
  5703 ;; This function uses a non-reentrant model
  5704 ;;
  5705                           
  5706                           	psect	text51
  5707  001B32                     __ptext51:
  5708                           	opt stack 0
  5709  001B32                     _Delay100TCYx:
  5710                           	opt stack 29
  5711                           
  5712                           ;incstack = 0
  5713                           ;Delay100TCYx@unit stored from wreg
  5714  001B32  6E01               	movwf	Delay100TCYx@unit,c
  5715  001B34  0E21               	movlw	33
  5716  001B36                     u817:
  5717  001B36  2EE8               	decfsz	wreg,f,c
  5718  001B38  D7FE               	goto	u817
  5719  001B3A  F000               	nop	
  5720  001B3C  2E01               	decfsz	Delay100TCYx@unit,f,c
  5721  001B3E  D7FA               	goto	l1731
  5722  001B40  0012               	return	
  5723  001B42  0012               	return		;funcret
  5724  001B44                     __end_of_Delay100TCYx:
  5725                           	opt stack 0
  5726                           tblptru	equ	0xFF8
  5727                           tblptrh	equ	0xFF7
  5728                           tblptrl	equ	0xFF6
  5729                           tablat	equ	0xFF5
  5730                           prodh	equ	0xFF4
  5731                           prodl	equ	0xFF3
  5732                           intcon	equ	0xFF2
  5733                           intcon2	equ	0xFF1
  5734                           postinc0	equ	0xFEE
  5735                           wreg	equ	0xFE8
  5736                           indf1	equ	0xFE7
  5737                           postdec1	equ	0xFE5
  5738                           fsr1h	equ	0xFE2
  5739                           fsr1l	equ	0xFE1
  5740                           indf2	equ	0xFDF
  5741                           postinc2	equ	0xFDE
  5742                           postdec2	equ	0xFDD
  5743                           fsr2h	equ	0xFDA
  5744                           fsr2l	equ	0xFD9
  5745                           status	equ	0xFD8
  5746                           
  5747 ;; *************** function _EnableDeepSleepInterrupt *****************
  5748 ;; Defined at:
  5749 ;;		line 37 in file "interrupts.c"
  5750 ;; Parameters:    Size  Location     Type
  5751 ;;		None
  5752 ;; Auto vars:     Size  Location     Type
  5753 ;;		None
  5754 ;; Return value:  Size  Location     Type
  5755 ;;                  2  298[None  ] int 
  5756 ;; Registers used:
  5757 ;;		None
  5758 ;; Tracked objects:
  5759 ;;		On entry : 0/0
  5760 ;;		On exit  : 0/0
  5761 ;;		Unchanged: 0/0
  5762 ;; Data sizes:     COMRAM   BANK0   BANK1   BANK2   BANK3   BANK4   BANK5   BANK6   BANK7   BANK8   BANK9  BANK10  BANK1
      +1  BANK12  BANK13  BANK14
  5763 ;;      Params:         0       0       0       0       0       0       0       0       0       0       0       0       
      +0       0       0       0
  5764 ;;      Locals:         0       0       0       0       0       0       0       0       0       0       0       0       
      +0       0       0       0
  5765 ;;      Temps:          0       0       0       0       0       0       0       0       0       0       0       0       
      +0       0       0       0
  5766 ;;      Totals:         0       0       0       0       0       0       0       0       0       0       0       0       
      +0       0       0       0
  5767 ;;Total ram usage:        0 bytes
  5768 ;; Hardware stack levels used:    1
  5769 ;; This function calls:
  5770 ;;		Nothing
  5771 ;; This function is called by:
  5772 ;;		_main
  5773 ;; This function uses a non-reentrant model
  5774 ;;
  5775                           
  5776                           	psect	text52
  5777  001C00                     __ptext52:
  5778                           	opt stack 0
  5779  001C00                     _EnableDeepSleepInterrupt:
  5780                           	opt stack 30
  5781                           
  5782                           ;interrupts.c: 38: RCONbits.IPEN = 1;
  5783                           
  5784                           ;incstack = 0
  5785  001C00  8ED0               	bsf	4048,7,c	;volatile
  5786                           
  5787                           ;interrupts.c: 39: INTCONbits.PEIE = 1;
  5788  001C02  8CF2               	bsf	intcon,6,c	;volatile
  5789  001C04  0012               	return		;funcret
  5790  001C06                     __end_of_EnableDeepSleepInterrupt:
  5791                           	opt stack 0
  5792                           tblptru	equ	0xFF8
  5793                           tblptrh	equ	0xFF7
  5794                           tblptrl	equ	0xFF6
  5795                           tablat	equ	0xFF5
  5796                           prodh	equ	0xFF4
  5797                           prodl	equ	0xFF3
  5798                           intcon	equ	0xFF2
  5799                           intcon2	equ	0xFF1
  5800                           postinc0	equ	0xFEE
  5801                           wreg	equ	0xFE8
  5802                           indf1	equ	0xFE7
  5803                           postdec1	equ	0xFE5
  5804                           fsr1h	equ	0xFE2
  5805                           fsr1l	equ	0xFE1
  5806                           indf2	equ	0xFDF
  5807                           postinc2	equ	0xFDE
  5808                           postdec2	equ	0xFDD
  5809                           fsr2h	equ	0xFDA
  5810                           fsr2l	equ	0xFD9
  5811                           status	equ	0xFD8
  5812                           
  5813 ;; *************** function _DisableInterrupts *****************
  5814 ;; Defined at:
  5815 ;;		line 42 in file "interrupts.c"
  5816 ;; Parameters:    Size  Location     Type
  5817 ;;		None
  5818 ;; Auto vars:     Size  Location     Type
  5819 ;;		None
  5820 ;; Return value:  Size  Location     Type
  5821 ;;		None               void
  5822 ;; Registers used:
  5823 ;;		wreg, status,2
  5824 ;; Tracked objects:
  5825 ;;		On entry : 0/0
  5826 ;;		On exit  : 0/0
  5827 ;;		Unchanged: 0/0
  5828 ;; Data sizes:     COMRAM   BANK0   BANK1   BANK2   BANK3   BANK4   BANK5   BANK6   BANK7   BANK8   BANK9  BANK10  BANK1
      +1  BANK12  BANK13  BANK14
  5829 ;;      Params:         0       0       0       0       0       0       0       0       0       0       0       0       
      +0       0       0       0
  5830 ;;      Locals:         0       0       0       0       0       0       0       0       0       0       0       0       
      +0       0       0       0
  5831 ;;      Temps:          0       0       0       0       0       0       0       0       0       0       0       0       
      +0       0       0       0
  5832 ;;      Totals:         0       0       0       0       0       0       0       0       0       0       0       0       
      +0       0       0       0
  5833 ;;Total ram usage:        0 bytes
  5834 ;; Hardware stack levels used:    1
  5835 ;; This function calls:
  5836 ;;		Nothing
  5837 ;; This function is called by:
  5838 ;;		_main
  5839 ;; This function uses a non-reentrant model
  5840 ;;
  5841                           
  5842                           	psect	text53
  5843  001C06                     __ptext53:
  5844                           	opt stack 0
  5845  001C06                     _DisableInterrupts:
  5846                           	opt stack 30
  5847                           
  5848                           ;interrupts.c: 43: INTCON = 0x00;
  5849                           
  5850                           ;incstack = 0
  5851  001C06  0E00               	movlw	0
  5852  001C08  6EF2               	movwf	intcon,c	;volatile
  5853  001C0A  0012               	return		;funcret
  5854  001C0C                     __end_of_DisableInterrupts:
  5855                           	opt stack 0
  5856                           tblptru	equ	0xFF8
  5857                           tblptrh	equ	0xFF7
  5858                           tblptrl	equ	0xFF6
  5859                           tablat	equ	0xFF5
  5860                           prodh	equ	0xFF4
  5861                           prodl	equ	0xFF3
  5862                           intcon	equ	0xFF2
  5863                           intcon2	equ	0xFF1
  5864                           postinc0	equ	0xFEE
  5865                           wreg	equ	0xFE8
  5866                           indf1	equ	0xFE7
  5867                           postdec1	equ	0xFE5
  5868                           fsr1h	equ	0xFE2
  5869                           fsr1l	equ	0xFE1
  5870                           indf2	equ	0xFDF
  5871                           postinc2	equ	0xFDE
  5872                           postdec2	equ	0xFDD
  5873                           fsr2h	equ	0xFDA
  5874                           fsr2l	equ	0xFD9
  5875                           status	equ	0xFD8
  5876                           
  5877 ;; *************** function _ClearInterrupts *****************
  5878 ;; Defined at:
  5879 ;;		line 25 in file "interrupts.c"
  5880 ;; Parameters:    Size  Location     Type
  5881 ;;		None
  5882 ;; Auto vars:     Size  Location     Type
  5883 ;;		None
  5884 ;; Return value:  Size  Location     Type
  5885 ;;		None               void
  5886 ;; Registers used:
  5887 ;;		wreg, status,2
  5888 ;; Tracked objects:
  5889 ;;		On entry : 0/0
  5890 ;;		On exit  : 0/0
  5891 ;;		Unchanged: 0/0
  5892 ;; Data sizes:     COMRAM   BANK0   BANK1   BANK2   BANK3   BANK4   BANK5   BANK6   BANK7   BANK8   BANK9  BANK10  BANK1
      +1  BANK12  BANK13  BANK14
  5893 ;;      Params:         0       0       0       0       0       0       0       0       0       0       0       0       
      +0       0       0       0
  5894 ;;      Locals:         0       0       0       0       0       0       0       0       0       0       0       0       
      +0       0       0       0
  5895 ;;      Temps:          0       0       0       0       0       0       0       0       0       0       0       0       
      +0       0       0       0
  5896 ;;      Totals:         0       0       0       0       0       0       0       0       0       0       0       0       
      +0       0       0       0
  5897 ;;Total ram usage:        0 bytes
  5898 ;; Hardware stack levels used:    1
  5899 ;; This function calls:
  5900 ;;		Nothing
  5901 ;; This function is called by:
  5902 ;;		_main
  5903 ;; This function uses a non-reentrant model
  5904 ;;
  5905                           
  5906                           	psect	text54
  5907  001A88                     __ptext54:
  5908                           	opt stack 0
  5909  001A88                     _ClearInterrupts:
  5910                           	opt stack 30
  5911                           
  5912                           ;interrupts.c: 27: IPR1 = 0x00;
  5913                           
  5914                           ;incstack = 0
  5915  001A88  0E00               	movlw	0
  5916  001A8A  6E9F               	movwf	3999,c	;volatile
  5917                           
  5918                           ;interrupts.c: 28: IPR2 = 0x00;
  5919  001A8C  0E00               	movlw	0
  5920  001A8E  6EA2               	movwf	4002,c	;volatile
  5921                           
  5922                           ;interrupts.c: 29: IPR3 = 0x00;
  5923  001A90  0E00               	movlw	0
  5924  001A92  6EA5               	movwf	4005,c	;volatile
  5925                           
  5926                           ;interrupts.c: 31: PIR1 = 0x00;
  5927  001A94  0E00               	movlw	0
  5928  001A96  6E9E               	movwf	3998,c	;volatile
  5929                           
  5930                           ;interrupts.c: 32: PIR2 = 0x00;
  5931  001A98  0E00               	movlw	0
  5932  001A9A  6EA1               	movwf	4001,c	;volatile
  5933                           
  5934                           ;interrupts.c: 33: PIR3 = 0x00;
  5935  001A9C  0E00               	movlw	0
  5936  001A9E  6EA4               	movwf	4004,c	;volatile
  5937  001AA0  0012               	return		;funcret
  5938  001AA2                     __end_of_ClearInterrupts:
  5939                           	opt stack 0
  5940                           tblptru	equ	0xFF8
  5941                           tblptrh	equ	0xFF7
  5942                           tblptrl	equ	0xFF6
  5943                           tablat	equ	0xFF5
  5944                           prodh	equ	0xFF4
  5945                           prodl	equ	0xFF3
  5946                           intcon	equ	0xFF2
  5947                           intcon2	equ	0xFF1
  5948                           postinc0	equ	0xFEE
  5949                           wreg	equ	0xFE8
  5950                           indf1	equ	0xFE7
  5951                           postdec1	equ	0xFE5
  5952                           fsr1h	equ	0xFE2
  5953                           fsr1l	equ	0xFE1
  5954                           indf2	equ	0xFDF
  5955                           postinc2	equ	0xFDE
  5956                           postdec2	equ	0xFDD
  5957                           fsr2h	equ	0xFDA
  5958                           fsr2l	equ	0xFD9
  5959                           status	equ	0xFD8
  5960                           
  5961 ;; *************** function _BspInit *****************
  5962 ;; Defined at:
  5963 ;;		line 3 in file "bsp.c"
  5964 ;; Parameters:    Size  Location     Type
  5965 ;;		None
  5966 ;; Auto vars:     Size  Location     Type
  5967 ;;		None
  5968 ;; Return value:  Size  Location     Type
  5969 ;;		None               void
  5970 ;; Registers used:
  5971 ;;		None
  5972 ;; Tracked objects:
  5973 ;;		On entry : 0/0
  5974 ;;		On exit  : 0/0
  5975 ;;		Unchanged: 0/0
  5976 ;; Data sizes:     COMRAM   BANK0   BANK1   BANK2   BANK3   BANK4   BANK5   BANK6   BANK7   BANK8   BANK9  BANK10  BANK1
      +1  BANK12  BANK13  BANK14
  5977 ;;      Params:         0       0       0       0       0       0       0       0       0       0       0       0       
      +0       0       0       0
  5978 ;;      Locals:         0       0       0       0       0       0       0       0       0       0       0       0       
      +0       0       0       0
  5979 ;;      Temps:          0       0       0       0       0       0       0       0       0       0       0       0       
      +0       0       0       0
  5980 ;;      Totals:         0       0       0       0       0       0       0       0       0       0       0       0       
      +0       0       0       0
  5981 ;;Total ram usage:        0 bytes
  5982 ;; Hardware stack levels used:    1
  5983 ;; This function calls:
  5984 ;;		Nothing
  5985 ;; This function is called by:
  5986 ;;		_main
  5987 ;; This function uses a non-reentrant model
  5988 ;;
  5989                           
  5990                           	psect	text55
  5991  001AA2                     __ptext55:
  5992                           	opt stack 0
  5993  001AA2                     _BspInit:
  5994                           	opt stack 30
  5995                           
  5996                           ;bsp.c: 4: if (DSCONLbits.RELEASE) {
  5997                           
  5998                           ;incstack = 0
  5999  001AA2  010F               	movlb	15	; () banked
  6000  001AA4  A14C               	btfss	76,0,b	;volatile
  6001  001AA6  D002               	goto	l487
  6002                           
  6003                           ; BSR set to: 15
  6004                           ;bsp.c: 5: DSCONLbits.RELEASE = 0;
  6005  001AA8  010F               	movlb	15	; () banked
  6006  001AAA  914C               	bcf	76,0,b	;volatile
  6007  001AAC                     l487:
  6008                           
  6009                           ; BSR set to: 15
  6010                           ;bsp.c: 6: }
  6011                           ;bsp.c: 8: ANCON0 = 0xFF;
  6012  001AAC  010F               	movlb	15	; () banked
  6013  001AAE  6948               	setf	72,b	;volatile
  6014                           
  6015                           ;bsp.c: 9: ANCON1 = 0xFF;
  6016  001AB0  010F               	movlb	15	; () banked
  6017  001AB2  6949               	setf	73,b	;volatile
  6018                           
  6019                           ;bsp.c: 11: OSCCONbits.IRCF = 7;
  6020  001AB4  88D3               	bsf	4051,4,c	;volatile
  6021  001AB6  8AD3               	bsf	4051,5,c	;volatile
  6022  001AB8  8CD3               	bsf	4051,6,c	;volatile
  6023                           
  6024                           ; BSR set to: 15
  6025  001ABA  0012               	return		;funcret
  6026  001ABC                     __end_of_BspInit:
  6027                           	opt stack 0
  6028                           tblptru	equ	0xFF8
  6029                           tblptrh	equ	0xFF7
  6030                           tblptrl	equ	0xFF6
  6031                           tablat	equ	0xFF5
  6032                           prodh	equ	0xFF4
  6033                           prodl	equ	0xFF3
  6034                           intcon	equ	0xFF2
  6035                           intcon2	equ	0xFF1
  6036                           postinc0	equ	0xFEE
  6037                           wreg	equ	0xFE8
  6038                           indf1	equ	0xFE7
  6039                           postdec1	equ	0xFE5
  6040                           fsr1h	equ	0xFE2
  6041                           fsr1l	equ	0xFE1
  6042                           indf2	equ	0xFDF
  6043                           postinc2	equ	0xFDE
  6044                           postdec2	equ	0xFDD
  6045                           fsr2h	equ	0xFDA
  6046                           fsr2l	equ	0xFD9
  6047                           status	equ	0xFD8
  6048                           tblptru	equ	0xFF8
  6049                           tblptrh	equ	0xFF7
  6050                           tblptrl	equ	0xFF6
  6051                           tablat	equ	0xFF5
  6052                           prodh	equ	0xFF4
  6053                           prodl	equ	0xFF3
  6054                           intcon	equ	0xFF2
  6055                           intcon2	equ	0xFF1
  6056                           postinc0	equ	0xFEE
  6057                           wreg	equ	0xFE8
  6058                           indf1	equ	0xFE7
  6059                           postdec1	equ	0xFE5
  6060                           fsr1h	equ	0xFE2
  6061                           fsr1l	equ	0xFE1
  6062                           indf2	equ	0xFDF
  6063                           postinc2	equ	0xFDE
  6064                           postdec2	equ	0xFDD
  6065                           fsr2h	equ	0xFDA
  6066                           fsr2l	equ	0xFD9
  6067                           status	equ	0xFD8
  6068                           
  6069                           	psect	rparam
  6070  0000                     tblptru	equ	0xFF8
  6071                           tblptrh	equ	0xFF7
  6072                           tblptrl	equ	0xFF6
  6073                           tablat	equ	0xFF5
  6074                           prodh	equ	0xFF4
  6075                           prodl	equ	0xFF3
  6076                           intcon	equ	0xFF2
  6077                           intcon2	equ	0xFF1
  6078                           postinc0	equ	0xFEE
  6079                           wreg	equ	0xFE8
  6080                           indf1	equ	0xFE7
  6081                           postdec1	equ	0xFE5
  6082                           fsr1h	equ	0xFE2
  6083                           fsr1l	equ	0xFE1
  6084                           indf2	equ	0xFDF
  6085                           postinc2	equ	0xFDE
  6086                           postdec2	equ	0xFDD
  6087                           fsr2h	equ	0xFDA
  6088                           fsr2l	equ	0xFD9
  6089                           status	equ	0xFD8


Data Sizes:
    Strings     0
    Constant    14
    Data        10
    BSS         136
    Persistent  0
    Stack       0

Auto Spaces:
    Space          Size  Autos    Used
    COMRAM           95     16      37
    BANK0           160      0     125
    BANK1           256    226     226
    BANK2           256      0       0
    BANK3           256      0       0
    BANK4           256      0       0
    BANK5           256      0       0
    BANK6           256      0       0
    BANK7           256      0       0
    BANK8           256      0       0
    BANK9           256      0       0
    BANK10          256      0       0
    BANK11          256      0       0
    BANK12          256      0       0
    BANK13          256      0       0
    BANK14          192      0       0

Pointer List with Targets:

    joinPacket.dataPtr.dataPtr	PTR unsigned char  size(2) Largest target is 0
		 -> SendMeasures@packet(BANK1[125]), joinPacket(BANK0[125]), 

    packet.dataPtr.dataPtr	PTR unsigned char  size(2) Largest target is 0
		 -> SendMeasures@packet(BANK1[125]), joinPacket(BANK0[125]), 

    strlen@s	PTR const unsigned char  size(2) Largest target is 2
		 -> SENSORS(CODE[2]), 

    strlen@cp	PTR const unsigned char  size(2) Largest target is 2
		 -> SENSORS(CODE[2]), 

    memset@p1	PTR void  size(2) Largest target is 126
		 -> joinPacket.frame(BANK0[116]), packet.frame(BANK0[116]), SendMeasures@packet(BANK1[125]), joinPacket(BANK0[125]), 

    memset@p	PTR unsigned char  size(2) Largest target is 126
		 -> joinPacket.frame(BANK0[116]), packet.frame(BANK0[116]), SendMeasures@packet(BANK1[125]), joinPacket(BANK0[125]), 

    sprintf@f	PTR const unsigned char  size(2) Largest target is 2
		 -> SENSORS(CODE[2]), 

    sprintf@sp	PTR unsigned char  size(2) Largest target is 101
		 -> payload.data(BANK0[100]), SendMeasures@payload(BANK1[101]), 

    sprintf@ap	PTR void [1] size(2) Largest target is 2
		 -> ?_sprintf(COMRAM[2]), 

    packet.dataPtr	PTR unsigned char  size(2) Largest target is 126
		 -> SendMeasures@packet(BANK1[125]), joinPacket(BANK0[125]), 

    XBeeCreateRemoteAtCommandPacket@packet.dataPtr	PTR unsigned char  size(2) Largest target is 126
		 -> SendMeasures@packet(BANK1[125]), joinPacket(BANK0[125]), 

    XBeeCreateATCommandPacket@command	PTR unsigned char  size(2) Largest target is 3
		 -> XBeeReset@command(COMRAM[3]), 

    XBeeCreateATCommandPacket@packet.dataPtr	PTR unsigned char  size(2) Largest target is 126
		 -> SendMeasures@packet(BANK1[125]), joinPacket(BANK0[125]), 

    XBeeCreateATCommandPacket@packet	PTR struct XBeePacket size(2) Largest target is 126
		 -> joinPacket(BANK0[125]), 

    XBeeCreateATCommandPacket@p	PTR unsigned char  size(2) Largest target is 116
		 -> joinPacket.frame.command(BANK0[2]), XBeeCreateATCommandPacket@packet.frame(COMRAM[116]), 

    XBeeCreateCompleteATCommandPacket@params	PTR unsigned char  size(2) Largest target is 2
		 -> XBeeSetSleepMode@params(COMRAM[2]), XBeeCommissioning@params(COMRAM[2]), 

    XBeeCreateCompleteATCommandPacket@command	PTR unsigned char  size(2) Largest target is 3
		 -> XBeeSetSleepMode@command(COMRAM[3]), XBeeCommissioning@command(COMRAM[3]), 

    XBeeCreateCompleteATCommandPacket@packet.dataPtr	PTR unsigned char  size(2) Largest target is 126
		 -> SendMeasures@packet(BANK1[125]), joinPacket(BANK0[125]), 

    XBeeCreateCompleteATCommandPacket@packet	PTR struct XBeePacket size(2) Largest target is 126
		 -> joinPacket(BANK0[125]), 

    XBeeCreateCompleteATCommandPacket@p	PTR unsigned char  size(2) Largest target is 116
		 -> joinPacket.frame.value(BANK0[97]), joinPacket.frame.command(BANK0[2]), XBeeCreateCompleteATCommandPacket@packet.frame(COMRAM[116]), 

    joinPacket.dataPtr	PTR unsigned char  size(2) Largest target is 126
		 -> SendMeasures@packet(BANK1[125]), joinPacket(BANK0[125]), 

    sp__strcpy	PTR unsigned char  size(2) Largest target is 0

    PayloadPutString@string	PTR const unsigned char  size(2) Largest target is 2
		 -> SENSORS(CODE[2]), 

    PayloadPutString@payload	PTR struct Payload size(2) Largest target is 101
		 -> SendMeasures@payload(BANK1[101]), 

    PayloadPutString@buffer	PTR unsigned char  size(2) Largest target is 101
		 -> payload.data(BANK0[100]), SendMeasures@payload(BANK1[101]), 

    PayloadPutWord@payload	PTR struct Payload size(2) Largest target is 101
		 -> SendMeasures@payload(BANK1[101]), 

    PayloadPutByte@payload	PTR struct Payload size(2) Largest target is 101
		 -> SendMeasures@payload(BANK1[101]), 

    PayloadInit@payload	PTR struct Payload size(2) Largest target is 101
		 -> SendMeasures@payload(BANK1[101]), 

    XBeeCreateTransmitRequestPacket@payload	PTR unsigned char  size(2) Largest target is 101
		 -> SendMeasures@payload(BANK1[101]), 

    XBeeCreateTransmitRequestPacket@destinationAddress	PTR unsigned char  size(2) Largest target is 8
		 -> COORDINATOR_ADDRESS(CODE[8]), 

    XBeeCreateTransmitRequestPacket@packet.dataPtr	PTR unsigned char  size(2) Largest target is 126
		 -> SendMeasures@packet(BANK1[125]), joinPacket(BANK0[125]), 

    XBeeCreateTransmitRequestPacket@packet	PTR struct XBeePacket size(2) Largest target is 126
		 -> SendMeasures@packet(BANK1[125]), 

    XBeeCreateTransmitRequestPacket@p	PTR unsigned char  size(2) Largest target is 116
		 -> packet.frame.reserved(BANK0[2]), packet.frame.payload(BANK0[97]), packet.frame.destinationAddress(BANK0[8]), XBeeCreateTransmitRequestPacket@packet.frame(COMRAM[116]), 

    XBeeSendPacket@packet.dataPtr	PTR unsigned char  size(2) Largest target is 126
		 -> SendMeasures@packet(BANK1[125]), joinPacket(BANK0[125]), 

    XBeeSendPacket@p.dataPtr	PTR unsigned char  size(2) Largest target is 126
		 -> SendMeasures@packet(BANK1[125]), joinPacket(BANK0[125]), 

    XBeeSendPacket@packet	const PTR struct XBeePacket size(2) Largest target is 126
		 -> SendMeasures@packet(BANK1[125]), joinPacket(BANK0[125]), 

    XBeeSendPacket@p	PTR unsigned char  size(2) Largest target is 126
		 -> SendMeasures@packet(BANK1[125]), joinPacket(BANK0[125]), 

    sp__memset	PTR void  size(2) Largest target is 126
		 -> joinPacket.frame(BANK0[116]), packet.frame(BANK0[116]), SendMeasures@packet(BANK1[125]), joinPacket(BANK0[125]), 

    XBeeCreatePacket@packet.dataPtr.dataPtr	PTR unsigned char  size(2) Largest target is 126
		 -> SendMeasures@packet(BANK1[125]), joinPacket(BANK0[125]), 

    S754XBeePacket$dataPtr	PTR unsigned char  size(2) Largest target is 126
		 -> SendMeasures@packet(BANK1[125]), joinPacket(BANK0[125]), 

    XBeeCreatePacket@packet.dataPtr	PTR unsigned char  size(2) Largest target is 126
		 -> SendMeasures@packet(BANK1[125]), joinPacket(BANK0[125]), 

    XBeeCreatePacket@packet	const PTR struct XBeePacket size(2) Largest target is 126
		 -> SendMeasures@packet(BANK1[125]), joinPacket(BANK0[125]), 

    Sht11MeasureParam@p_checksum	PTR unsigned char  size(2) Largest target is 6
		 -> shtData(COMRAM[6]), 

    Sht11MeasureParam@p_value	PTR unsigned int  size(2) Largest target is 6
		 -> shtData.humidity(COMRAM[2]), shtData.temperature(COMRAM[2]), shtData(COMRAM[6]), 

    Sht11Measure@data	PTR struct . size(2) Largest target is 6
		 -> shtData(COMRAM[6]), 

    Co2D1Measure@data	PTR struct . size(2) Largest target is 4
		 -> co2d1Data(COMRAM[4]), 

    AdcConvert@result	PTR unsigned int  size(2) Largest target is 4
		 -> co2d1Data(COMRAM[4]), 


Critical Paths under _main in COMRAM

    _XBeeInit->_XBeeSerialInit
    _SendMeasures->_PayloadPutString
    _SendMeasures->_XBeeCreateTransmitRequestPacket
    _PayloadPutString->_sprintf
    _MeasureSensors->_Co2D1Measure
    _MeasureSensors->_Sht11Measure
    _Sht11Measure->_Sht11MeasureParam
    _Sht11MeasureParam->_Sht11Read
    _Sht11MeasureParam->_Sht11Write
    _Sht11Write->_Delay10TCYx
    _Sht11Start->_Delay10TCYx
    _Sht11Read->_Delay10TCYx
    _Co2D1Measure->_AdcConvert
    _AdcConvert->_AdcReadValue
    _XBeeJoin->_XBeeCommissioning
    _XBeeJoin->_XBeeSetSleepMode
    _XBeeSetSleepMode->_XBeeCreateCompleteATCommandPacket
    _XBeeReset->_XBeeCreatePacket
    _XBeeCommissioning->_XBeeCreateCompleteATCommandPacket
    _XBeeSendPacket->_XBeeSerialSend
    _XBeeCreatePacket->_memset

Critical Paths under _main in BANK0

    None.

Critical Paths under _main in BANK1

    _OnWakeUp->_SendMeasures

Critical Paths under _main in BANK2

    None.

Critical Paths under _main in BANK3

    None.

Critical Paths under _main in BANK4

    None.

Critical Paths under _main in BANK5

    None.

Critical Paths under _main in BANK6

    None.

Critical Paths under _main in BANK7

    None.

Critical Paths under _main in BANK8

    None.

Critical Paths under _main in BANK9

    None.

Critical Paths under _main in BANK10

    None.

Critical Paths under _main in BANK11

    None.

Critical Paths under _main in BANK12

    None.

Critical Paths under _main in BANK13

    None.

Critical Paths under _main in BANK14

    None.

Call Graph Tables:

 ---------------------------------------------------------------------------------
 (Depth) Function   	        Calls       Base Space   Used Autos Params    Refs
 ---------------------------------------------------------------------------------
 (0) _main                                                 0     0      0   28953
                            _BspInit
                    _ClearInterrupts
                  _DisableInterrupts
           _EnableDeepSleepInterrupt
                      _OnDsWdtWakeUp
                             _OnMclr
                          _OnPowerUp
                           _OnWakeUp
                     _PowerDeepSleep
                    _SensorProxyInit
                           _XBeeInit
 ---------------------------------------------------------------------------------
 (1) _XBeeInit                                             0     0      0      15
                  _XBeeInterruptInit
                     _XBeeSerialInit
 ---------------------------------------------------------------------------------
 (2) _XBeeSerialInit                                       1     1      0      15
                                              0 COMRAM     1     1      0
 ---------------------------------------------------------------------------------
 (2) _XBeeInterruptInit                                    0     0      0       0
 ---------------------------------------------------------------------------------
 (1) _SensorProxyInit                                      0     0      0       0
                          _Co2D1Init
                   _PowerUpCO2Sensor
                          _Sht11Init
 ---------------------------------------------------------------------------------
 (2) _Sht11Init                                            0     0      0       0
 ---------------------------------------------------------------------------------
 (2) _Co2D1Init                                            0     0      0       0
                            _AdcInit
                        _Co2D1InitIO
 ---------------------------------------------------------------------------------
 (3) _Co2D1InitIO                                          0     0      0       0
 ---------------------------------------------------------------------------------
 (3) _AdcInit                                              0     0      0       0
 ---------------------------------------------------------------------------------
 (1) _PowerDeepSleep                                       0     0      0       0
 ---------------------------------------------------------------------------------
 (1) _OnWakeUp                                             0     0      0    6835
                 _ClearDSWakeUpFlags
              _ClearNetworkInterrupt
                     _MeasureSensors
                       _SendMeasures
 ---------------------------------------------------------------------------------
 (2) _SendMeasures                                       226   226      0    5476
                                              0 BANK1    226   226      0
                        _PayloadInit
                     _PayloadPutByte
                   _PayloadPutString
                     _PayloadPutWord
                   _XBeeCreatePacket
    _XBeeCreateTransmitRequestPacket
                     _XBeeSendPacket
 ---------------------------------------------------------------------------------
 (3) _XBeeCreateTransmitRequestPacket                     15     5     10    1005
                                              0 COMRAM    15     5     10
 ---------------------------------------------------------------------------------
 (3) _PayloadPutWord                                       7     3      4    1156
                                              0 COMRAM     7     3      4
 ---------------------------------------------------------------------------------
 (3) _PayloadPutString                                     7     3      4     861
                                              8 COMRAM     7     3      4
                            _sprintf
                             _strlen
 ---------------------------------------------------------------------------------
 (4) _strlen                                               6     4      2     242
                                              0 COMRAM     6     4      2
 ---------------------------------------------------------------------------------
 (4) _sprintf                                             20    16      4     334
                                              0 COMRAM     8     4      4
 ---------------------------------------------------------------------------------
 (3) _PayloadPutByte                                       4     1      3     566
                                              0 COMRAM     4     1      3
 ---------------------------------------------------------------------------------
 (3) _PayloadInit                                          3     1      2     165
                                              0 COMRAM     3     1      2
 ---------------------------------------------------------------------------------
 (2) _MeasureSensors                                       0     0      0    1359
                       _Co2D1Measure
                     _PowerDownSHT11
                   _PowerUpCO2Sensor
                       _PowerUpSHT11
                       _Sht11Measure
 ---------------------------------------------------------------------------------
 (3) _Sht11Measure                                         3     1      2     996
                                             12 COMRAM     3     1      2
                  _Sht11MeasureParam
 ---------------------------------------------------------------------------------
 (4) _Sht11MeasureParam                                    8     3      5     823
                                              4 COMRAM     8     3      5
                          _Sht11Read
                         _Sht11Start
                         _Sht11Write
 ---------------------------------------------------------------------------------
 (5) _Sht11Write                                           3     3      0      90
                                              1 COMRAM     3     3      0
                        _Delay10TCYx
 ---------------------------------------------------------------------------------
 (5) _Sht11Start                                           0     0      0      15
                        _Delay10TCYx
 ---------------------------------------------------------------------------------
 (5) _Sht11Read                                            3     3      0     105
                                              1 COMRAM     3     3      0
                        _Delay10TCYx
 ---------------------------------------------------------------------------------
 (6) _Delay10TCYx                                          1     1      0      15
                                              0 COMRAM     1     1      0
 ---------------------------------------------------------------------------------
 (3) _PowerUpSHT11                                         0     0      0       0
 ---------------------------------------------------------------------------------
 (2) _PowerUpCO2Sensor                                     0     0      0       0
 ---------------------------------------------------------------------------------
 (3) _PowerDownSHT11                                       0     0      0       0
 ---------------------------------------------------------------------------------
 (3) _Co2D1Measure                                         2     0      2     363
                                             13 COMRAM     2     0      2
                         _AdcConvert
 ---------------------------------------------------------------------------------
 (4) _AdcConvert                                          11     9      2     243
                                              2 COMRAM    11     9      2
                       _AdcCalibrate
                       _AdcReadValue
 ---------------------------------------------------------------------------------
 (5) _AdcReadValue                                         2     0      2       0
                                              0 COMRAM     2     0      2
 ---------------------------------------------------------------------------------
 (5) _AdcCalibrate                                         0     0      0       0
 ---------------------------------------------------------------------------------
 (2) _ClearNetworkInterrupt                                0     0      0       0
 ---------------------------------------------------------------------------------
 (2) _ClearDSWakeUpFlags                                   0     0      0       0
 ---------------------------------------------------------------------------------
 (1) _OnPowerUp                                            0     0      0    6771
          _UnUsedPeriphericalDisable
                           _XBeeJoin
 ---------------------------------------------------------------------------------
 (2) _UnUsedPeriphericalDisable                            0     0      0       0
 ---------------------------------------------------------------------------------
 (1) _OnMclr                                               0     0      0    6786
                     _ClearMclrFlags
                       _Delay10KTCYx
                           _XBeeJoin
 ---------------------------------------------------------------------------------
 (2) _ClearMclrFlags                                       0     0      0       0
 ---------------------------------------------------------------------------------
 (1) _OnDsWdtWakeUp                                        0     0      0    8546
                       _Delay100TCYx
                           _XBeeJoin
                          _XBeeReset
 ---------------------------------------------------------------------------------
 (2) _XBeeJoin                                             0     0      0    6771
                       _Delay10KTCYx
                  _XBeeCommissioning
                          _XBeeReset
                   _XBeeSetSleepMode
 ---------------------------------------------------------------------------------
 (3) _XBeeSetSleepMode                                     3     3      0    2498
                                             13 COMRAM     3     3      0
  _XBeeCreateCompleteATCommandPacket
                   _XBeeCreatePacket
                     _XBeeSendPacket
 ---------------------------------------------------------------------------------
 (3) _XBeeReset                                            0     0      0    1760
          _XBeeCreateATCommandPacket
                   _XBeeCreatePacket
                     _XBeeSendPacket
 ---------------------------------------------------------------------------------
 (4) _XBeeCreateATCommandPacket                            7     2      5     430
                                              0 COMRAM     7     2      5
 ---------------------------------------------------------------------------------
 (3) _XBeeCommissioning                                    3     3      0    2498
                                             13 COMRAM     3     3      0
  _XBeeCreateCompleteATCommandPacket
                   _XBeeCreatePacket
                     _XBeeSendPacket
 ---------------------------------------------------------------------------------
 (3) _XBeeSendPacket                                       6     4      2     526
                                              1 COMRAM     6     4      2
                     _XBeeSerialSend
 ---------------------------------------------------------------------------------
 (4) _XBeeSerialSend                                       1     1      0      22
                                              0 COMRAM     1     1      0
 ---------------------------------------------------------------------------------
 (3) _XBeeCreatePacket                                     2     0      2     804
                                              8 COMRAM     2     0      2
                             _memset
 ---------------------------------------------------------------------------------
 (4) _memset                                               8     2      6     324
                                              0 COMRAM     8     2      6
 ---------------------------------------------------------------------------------
 (4) _XBeeCreateCompleteATCommandPacket                   13     5      8    1098
                                              0 COMRAM    13     5      8
 ---------------------------------------------------------------------------------
 (3) _Delay10KTCYx                                         2     2      0      15
                                              0 COMRAM     2     2      0
 ---------------------------------------------------------------------------------
 (2) _Delay100TCYx                                         1     1      0      15
                                              0 COMRAM     1     1      0
 ---------------------------------------------------------------------------------
 (1) _EnableDeepSleepInterrupt                             0     0      0       0
 ---------------------------------------------------------------------------------
 (1) _DisableInterrupts                                    0     0      0       0
 ---------------------------------------------------------------------------------
 (1) _ClearInterrupts                                      0     0      0       0
 ---------------------------------------------------------------------------------
 (1) _BspInit                                              0     0      0       0
 ---------------------------------------------------------------------------------
 Estimated maximum stack depth 6
 ---------------------------------------------------------------------------------

 Call Graph Graphs:

 _main (ROOT)
   _BspInit
   _ClearInterrupts
   _DisableInterrupts
   _EnableDeepSleepInterrupt
   _OnDsWdtWakeUp
     _Delay100TCYx
     _XBeeJoin
       _Delay10KTCYx
       _XBeeCommissioning
         _XBeeCreateCompleteATCommandPacket
         _XBeeCreatePacket
           _memset
         _XBeeSendPacket
           _XBeeSerialSend
       _XBeeReset
         _XBeeCreateATCommandPacket
         _XBeeCreatePacket
           _memset
         _XBeeSendPacket
           _XBeeSerialSend
       _XBeeSetSleepMode
         _XBeeCreateCompleteATCommandPacket
         _XBeeCreatePacket
           _memset
         _XBeeSendPacket
           _XBeeSerialSend
     _XBeeReset
       _XBeeCreateATCommandPacket
       _XBeeCreatePacket
         _memset
       _XBeeSendPacket
         _XBeeSerialSend
   _OnMclr
     _ClearMclrFlags
     _Delay10KTCYx
     _XBeeJoin
       _Delay10KTCYx
       _XBeeCommissioning
         _XBeeCreateCompleteATCommandPacket
         _XBeeCreatePacket
           _memset
         _XBeeSendPacket
           _XBeeSerialSend
       _XBeeReset
         _XBeeCreateATCommandPacket
         _XBeeCreatePacket
           _memset
         _XBeeSendPacket
           _XBeeSerialSend
       _XBeeSetSleepMode
         _XBeeCreateCompleteATCommandPacket
         _XBeeCreatePacket
           _memset
         _XBeeSendPacket
           _XBeeSerialSend
   _OnPowerUp
     _UnUsedPeriphericalDisable
     _XBeeJoin
       _Delay10KTCYx
       _XBeeCommissioning
         _XBeeCreateCompleteATCommandPacket
         _XBeeCreatePacket
           _memset
         _XBeeSendPacket
           _XBeeSerialSend
       _XBeeReset
         _XBeeCreateATCommandPacket
         _XBeeCreatePacket
           _memset
         _XBeeSendPacket
           _XBeeSerialSend
       _XBeeSetSleepMode
         _XBeeCreateCompleteATCommandPacket
         _XBeeCreatePacket
           _memset
         _XBeeSendPacket
           _XBeeSerialSend
   _OnWakeUp
     _ClearDSWakeUpFlags
     _ClearNetworkInterrupt
     _MeasureSensors
       _Co2D1Measure
         _AdcConvert
           _AdcCalibrate
           _AdcReadValue
       _PowerDownSHT11
       _PowerUpCO2Sensor
       _PowerUpSHT11
       _Sht11Measure
         _Sht11MeasureParam
           _Sht11Read
             _Delay10TCYx
           _Sht11Start
             _Delay10TCYx
           _Sht11Write
             _Delay10TCYx
     _SendMeasures
       _PayloadInit
       _PayloadPutByte
       _PayloadPutString
         _sprintf
         _strlen
       _PayloadPutWord
       _XBeeCreatePacket
         _memset
       _XBeeCreateTransmitRequestPacket
       _XBeeSendPacket
         _XBeeSerialSend
   _PowerDeepSleep
   _SensorProxyInit
     _Co2D1Init
       _AdcInit
       _Co2D1InitIO
     _PowerUpCO2Sensor
     _Sht11Init
   _XBeeInit
     _XBeeInterruptInit
     _XBeeSerialInit

 Address spaces:
Name               Size   Autos  Total    Cost      Usage
BIGRAM             EBF      0       0      35        0.0%
BITBANK13          100      0       0      31        0.0%
BANK13             100      0       0      32        0.0%
BITBANK12          100      0       0      29        0.0%
BANK12             100      0       0      30        0.0%
BITBANK11          100      0       0      27        0.0%
BANK11             100      0       0      28        0.0%
BITBANK10          100      0       0      25        0.0%
BANK10             100      0       0      26        0.0%
BITBANK9           100      0       0      23        0.0%
BANK9              100      0       0      24        0.0%
BITBANK8           100      0       0      21        0.0%
BANK8              100      0       0      22        0.0%
BITBANK7           100      0       0      19        0.0%
BANK7              100      0       0      20        0.0%
BITBANK6           100      0       0      17        0.0%
BANK6              100      0       0      18        0.0%
BITBANK5           100      0       0      15        0.0%
BANK5              100      0       0      16        0.0%
BITBANK4           100      0       0      13        0.0%
BANK4              100      0       0      14        0.0%
BITBANK3           100      0       0      11        0.0%
BANK3              100      0       0      12        0.0%
BITBANK2           100      0       0       9        0.0%
BANK2              100      0       0      10        0.0%
BITBANK1           100      0       0       7        0.0%
BANK1              100     E2      E2       8       88.3%
BITBANK14           C0      0       0      33        0.0%
BANK14              C0      0       0      34        0.0%
BITBANK0            A0      0       0       4        0.0%
BANK0               A0      0      7D       5       78.1%
BITCOMRAM           5F      0       0       0        0.0%
COMRAM              5F     10      25       1       38.9%
BITSFR_2             0      0       0      40        0.0%
SFR_2                0      0       0      40        0.0%
BITSFR_1             0      0       0      40        0.0%
SFR_1                0      0       0      40        0.0%
BITSFR               0      0       0      40        0.0%
SFR                  0      0       0      40        0.0%
STACK                0      0       0       2        0.0%
NULL                 0      0       0       0        0.0%
ABS                  0      0     184       6        0.0%
DATA                 0      0     184       3        0.0%
CODE                 0      0       0       0        0.0%


Microchip Technology PIC18 Macro Assembler V1.34 build -361300703 
Symbol Table                                                                                   Wed Nov 25 12:51:32 2015

                        __end_of_XBeeCommissioning 1888                           _EnableDeepSleepInterrupt 1C00  
                          PayloadPutString@payload 0009                              Sht11MeasureParam@mode 0009  
                                               l30 1B46                                                 l24 1B86  
                                               l86 1692                                                 l87 1672  
                             XBeeSendPacket@packet 0002                             Sht11MeasureParam@error 000C  
                                     __CFG_CP0$OFF 000000                                      ?_Sht11Measure 000D  
                                              l107 12E0                                                l330 139C  
                                              l340 13CA                                                l332 13A6  
                                              l173 1B92                                                l334 13B4  
                                              l326 137C                                                l336 13BE  
                                              l328 138C                                                l487 1AAC  
                                              u525 1544                                                u807 1AC4  
                                              u817 1B36                                                u787 12D6  
                                              u797 1B12                                    ?_ClearMclrFlags 0001  
                                       Sht11Read@i 0004                                                wreg 000FE8  
                                       _TXSTA1bits 000FAD                                               l2013 19F2  
                                             l1301 16C2                                               l2111 1584  
                                             l2103 156C                                               l2009 19E0  
                                             l2033 1530                                               l1313 16E0  
                                             l1321 16EE                                               l1305 16CC  
                                             l2121 15CE                                               l2027 1510  
                                             l2107 1576                                               l2203 1060  
                                             l1253 1B10                                               l1325 16FA  
                                             l2053 12C4                                               l2117 1594  
                                             l2109 157C                                               l1271 1676  
                                             l1263 165A                                               l2055 12D4  
                                             l2047 12B2                                               l2119 15B2  
                                             l2127 18D4                                               l2215 1098  
                                             l2049 12BA                                               l2241 1954  
                                             l2129 18DA                                               l2209 107A  
                                             l1267 1664                                               l2243 196A  
                                             l2093 11AE                                               l2175 125C  
                                             l2087 117E                                               l2423 13CE  
                                             l2169 123E                                               l2417 13B0  
                                             l1731 1B34                                               l1635 1ABE  
                                             l2197 1040                                               l2397 136C  
                                             _IPR1 000F9F                                               _IPR2 000FA2  
                                             _PIE1 000F9D                                               _IPR3 000FA5  
                                             _PIR1 000F9E                                               _PIR2 000FA1  
                                             _PIR3 000FA4                                    __end_of_SENSORS 0F0F  
                       ?_UnUsedPeriphericalDisable 0001                             ?_ClearNetworkInterrupt 0001  
                                  ??_OnDsWdtWakeUp 0011                                               _main 1352  
                                  __end_of_AdcInit 1A6A                                               fsr1h 000FE2  
                                             fsr2h 000FDA                                               indf1 000FE7  
                                             fsr1l 000FE1                                               indf2 000FDF  
                                             fsr2l 000FD9                                       ?_Co2D1InitIO 0001  
                                             prodh 000FF4                                               prodl 000FF3  
                                             start 0000                                      __CFG_IESO$OFF 000000  
                                  __end_of_BspInit 1ABC                                 __size_of_Co2D1Init 000A  
                                     ___param_bank 000010                           Sht11MeasureParam@p_value 0005  
                                      Sht11Write@i 0004                                        _Delay10TCYx 1B0E  
                        __size_of_XBeeSetSleepMode 0048                                     ??_Sht11Measure 000F  
                                     _BAUDCON1bits 000F7E                          __size_of_PayloadPutString 0052  
                  XBeeCreateATCommandPacket@packet 0001                                              ?_main 0001  
                                            _ADRES 000FC3                              __size_of_Delay100TCYx 0012  
                                 ?_ClearInterrupts 0001                              __size_of_Delay10KTCYx 0018  
                                   __CFG_FCMEN$OFF 000000                                              _count 0011  
                                     Sht11Read@ack 0002                                       Sht11Read@val 0003  
                                __end_of_CO2OFFSET 0F03                                        ?_AdcConvert 0003  
                                   _MeasureSensors 1A04                                              tablat 000FF5  
                                    ?_Co2D1Measure 000E                                              status 000FD8  
                                  __end_of_sprintf 15DE                                   _PowerUpCO2Sensor 1BFA  
                __end_of_UnUsedPeriphericalDisable 1BC0                                   __end_of_XBeeInit 1BA8  
                                 __end_of_XBeeJoin 1A88                           __end_of_XBeeCreatePacket 145E  
                                       _Sht11Start 190C                                         _Sht11Write 1650  
                 XBeeCreateTransmitRequestPacket@i 000D                   XBeeCreateTransmitRequestPacket@p 000E  
                          __CFG_DSWDTOSC$INTOSCREF 000000                                    __initialization 1888  
                       __size_of_XBeeCommissioning 0048                                       _Delay100TCYx 1B32  
                                  Sht11Write@error 0003                                       __end_of_main 13D8  
                                  Sht11Write@value 0002                                       _Delay10KTCYx 1ABC  
                                 __end_of_OnWakeUp 1B0E                                 __size_of_XBeeReset 0032  
                                    ??_PayloadInit 0003                                             ??_main 0011  
                                    __activetblptr 000002                                  __end_of_Co2D1Init 1BEA  
                                 _TRANSMIT_OPTIONS 0F04                             __end_of_MeasureSensors 1A2A  
                                        ??_AdcInit 0001                                             _ANCON0 000F48  
                                           _ANCON1 000F49                                     ??_Co2D1Measure 0010  
                               __size_of_Sht11Init 0012                                 __size_of_Sht11Read 0062  
                                   __CFG_WDTEN$OFF 000000                                             _INTCON 000FF2  
                                           _RCREG1 000FAF                                             _RCSTA1 000FAC  
                                           _SPBRG1 000FB0                                          ??_BspInit 0001  
                                 ??_XBeeSendPacket 0004                                     __CFG_WPCFG$OFF 000000  
                                           _TXREG1 000FAE                                 __size_of_OnPowerUp 000A  
                                   __CFG_WPDIS$OFF 000000                                             _OnMclr 1B54  
                                 ??_PayloadPutByte 0004                             XBeeCreatePacket@packet 0009  
                                   __CFG_XINST$OFF 000000                                   ??_PayloadPutWord 0005  
                            PayloadPutWord@element 0003                                     __CFG_STVREN$ON 000000  
                                 ??_XBeeSerialInit 0001                                   ??_XBeeSerialSend 0001  
                            PayloadPutWord@payload 0001                                             _memset 19D6  
                                           clear_0 188E                                             clear_1 189A  
                              __size_of_AdcConvert 0082                                      ?_SendMeasures 0001  
                                           _strlen 18CA                           __size_of_SensorProxyInit 000E  
                                _DisableInterrupts 1C06                        __size_of_ClearDSWakeUpFlags 000C  
                                     __pdataCOMRAM 001C                                       __mediumconst 0000  
                                           tblptrh 000FF7                                             tblptrl 000FF6  
                                           tblptru 000FF8                                 ?_DisableInterrupts 0001  
                              __end_of_PayloadInit 1974                         ?_XBeeCreateATCommandPacket 0001  
                                  ?_MeasureSensors 0001                                          ??_sprintf 0005  
                                __end_of_XBeeReset 19A6                                ??_DisableInterrupts 0001  
                       ??_EnableDeepSleepInterrupt 0001                                         __accesstop 0060  
                          __end_of__initialization 18C0                               __end_of_Sht11Measure 17F8  
                                      ?_Sht11Start 0001                                      ___rparam_used 000001  
                                      ?_Sht11Write 0001             XBeeCreateTransmitRequestPacket@frameId 0003  
                             __size_of_Co2D1InitIO 000E                                     __pcstackCOMRAM 0001  
           XBeeCreateTransmitRequestPacket@payload 0008                                   _XBeeSetSleepMode 17F8  
                                 ??_ClearMclrFlags 0001             XBeeCreateTransmitRequestPacket@options 0007  
                                  __CFG_DSWDTPS$M2 000000                                  __end_of_Sht11Init 1AFC  
                                __end_of_Sht11Read 1716                                     ??_SendMeasures 0010  
                                 _PayloadPutString 1716                          __end_of_DisableInterrupts 1C0C  
                                __end_of_OnPowerUp 1BF4                                SendMeasures@payload 017D  
                                  __CFG_OSC$INTOSC 000000                                          ?_XBeeInit 0001  
                                        ?_XBeeJoin 0001                            __size_of_PowerDeepSleep 0030  
                __end_of_XBeeCreateATCommandPacket 1650                            ??_ClearNetworkInterrupt 0001  
                                       __pbssBANK0 0060                                    XBeeSendPacket@p 0006  
    XBeeCreateCompleteATCommandPacket@paramsLength 0008                                          ?_OnWakeUp 0001  
                      ??_UnUsedPeriphericalDisable 0001  XBeeCreateTransmitRequestPacket@destinationAddress 0004  
                                          ?_OnMclr 0001            XBeeCreateCompleteATCommandPacket@packet 0001  
                          __size_of_PowerDownSHT11 0004            XBeeCreateCompleteATCommandPacket@params 0006  
                                     ?_Delay10TCYx 0001                                            ?_memset 0001  
                          XBeeCommissioning@params 000F                               __end_of_Co2D1Measure 1A4C  
                                      _PayloadInit 1942                                            ?_strlen 0001  
                         __end_of_PowerUpCO2Sensor 1C00                               XBeeSetSleepMode@mode 000E  
                                          _DSWAKEH 000F4B                                            _DSWAKEL 000F4A  
                                       ??_XBeeInit 0002                                         ??_XBeeJoin 0011  
                              __size_of_Sht11Start 0036                                __size_of_Sht11Write 0064  
                                          _SENSORS 0F0D                                    __CFG_WDTPS$1024 000000  
                                          _AdcInit 1A4C                                  ??_SensorProxyInit 0001  
                                     ??_AdcConvert 0005                                         ??_OnWakeUp 0010  
                                          _BspInit 1AA2                                          _CO2OFFSET 0F01  
                            __end_of_OnDsWdtWakeUp 1B32                                  ?_XBeeCreatePacket 0009  
                                          __Hparam 0000                                    __size_of_OnMclr 0010  
                                          __Lparam 0000                                 ??_XBeeCreatePacket 000B  
                         __end_of_TRANSMIT_OPTIONS 0F05                                  _XBeeInterruptInit 1BD6  
                                    ?_AdcCalibrate 0001                                         _joinPacket 0060  
                                     __psmallconst 0F00                              __CFG_RTCOSC$INTOSCREF 000000  
                               ?_XBeeInterruptInit 0001                                            __pcinit 1888  
                                  __size_of_memset 002E                                    Delay10TCYx@unit 0001  
                                          __ramtop 0F00                         __size_of_DisableInterrupts 0006  
                        _UnUsedPeriphericalDisable 1BB4                                      ?_PowerUpSHT11 0001  
                                          __ptext0 1352                                            __ptext1 1B9C  
                                          __ptext2 1AD4                                            __ptext3 1BD6  
                                          __ptext4 1B64                                            __ptext5 1AEA  
                                          __ptext6 1BE0                                            __ptext7 1B72  
                                          __ptext8 1A4C                                            __ptext9 19A6  
                               __end_of_AdcConvert 1562                             XBeeSetSleepMode@params 000F  
                                  __size_of_strlen 0042                                ??_XBeeInterruptInit 0001  
                                          _shtData 0012                                  Sht11Measure@error 000F  
                            __size_of_Sht11Measure 0048                                            _sprintf 1562  
                              _COORDINATOR_ADDRESS 0F05                               end_of_initialization 18C0  
                         __size_of_ClearInterrupts 001A                                          _Co2D1Init 1BE0  
                                PayloadPutWord@lsb 0006                                  PayloadPutWord@msb 0007  
                                          memset@c 0003                                            memset@n 0005  
                                          memset@p 0007                               __end_of_SendMeasures 102E  
                                    __Lmediumconst 0000                                      ?_AdcReadValue 0001  
                        __end_of_XBeeInterruptInit 1BE0                        Sht11MeasureParam@p_checksum 0007  
                                   ??_AdcCalibrate 0001                                            postdec1 000FE5  
                                          postdec2 000FDD                                            postinc0 000FEE  
                                          postinc2 000FDE                                   AdcConvert@result 0003  
                                   ??_PowerUpSHT11 0001                                            strlen@s 0001  
                                      AdcConvert@i 000D                                          _PORTAbits 000F80  
                                        _PORTBbits 000F81                                       _Sht11Measure 17B0  
                               PayloadInit@payload 0001                                   __CFG_DSBOREN$OFF 000000  
                                 ??_MeasureSensors 0010                                XBeeSerialSend@value 0001  
                                 __CFG_CPUDIV$OSC1 000000                             PayloadPutString@buffer 000E  
                                        _TRISAbits 000F92                                          _TRISBbits 000F93  
                                        _TRISCbits 000F94                                     _PowerDeepSleep 19A6  
                      ??_XBeeCreateATCommandPacket 0006                             PayloadPutString@string 000B  
                         __end_of_XBeeSetSleepMode 1840                                         ?_Co2D1Init 0001  
                         __end_of_PayloadPutString 1768                                       ??_Sht11Start 0002  
                                 __CFG_IOL1WAY$OFF 000000                                     ??_AdcReadValue 0003  
                                     ??_Sht11Write 0002                                          _XBeeReset 1974  
                                   _PowerDownSHT11 1C0C                                  __CFG_WPEND$PAGE_0 000000  
                              __CFG_MSSP7B_EN$MSK7 000000                                     __end_of_OnMclr 1B64  
                            __size_of_Co2D1Measure 0022                                   Delay100TCYx@unit 0001  
                                     PayloadInit@i 0003                               __size_of_Delay10TCYx 0012  
                                    __pidataCOMRAM 1BCC                         __end_of_ClearDSWakeUpFlags 1BB4  
                                   __end_of_memset 1A04                                   __CFG_DSWDTEN$OFF 000000  
                           __end_of_PowerDeepSleep 19D6                                  _Sht11MeasureParam 12A4  
                                        _Sht11Init 1AEA                                          _Sht11Read 16B4  
                                   __end_of_strlen 190C                                start_initialization 1888  
                               __end_of_Sht11Start 1942                                 ?_Sht11MeasureParam 0005  
                               __end_of_Sht11Write 16B4                                  __size_of_XBeeInit 000C  
                                __size_of_XBeeJoin 001E                                          _OnPowerUp 1BEA  
                           XBeeSerialInit@baudrate 0001                     __size_of_ClearNetworkInterrupt 0004  
                    __end_of_ClearNetworkInterrupt 1C14                                ??_Sht11MeasureParam 000A  
                                     _Co2D1Measure 1A2A                                      ??_Co2D1InitIO 0001  
                           __end_of_PowerDownSHT11 1C10                                         ?_XBeeReset 0001  
                                __size_of_OnWakeUp 0012                                           ??_OnMclr 0011  
                                ??_ClearInterrupts 0001                         __size_of_XBeeInterruptInit 000A  
                                        _co2d1Data 0018                          _XBeeCreateATCommandPacket 15DE  
                          __size_of_XBeeSendPacket 00C0                                           ??_memset 0007  
                __size_of_EnableDeepSleepInterrupt 0006                          ?_EnableDeepSleepInterrupt 0001  
                                     ?_PayloadInit 0001                          __end_of_Sht11MeasureParam 1352  
                                  _SensorProxyInit 1B64                                           ??_strlen 0003  
                          __size_of_PayloadPutByte 0048                            __size_of_PayloadPutWord 0082  
                                ?_PowerUpCO2Sensor 0001                                    ?_PowerDeepSleep 0001  
                                       ?_Sht11Init 0001                                         ?_Sht11Read 0001  
                                      __pbssCOMRAM 0011                                      __pcstackBANK1 0100  
                               ??_PowerUpCO2Sensor 0001                            __size_of_XBeeSerialInit 0016  
                          __size_of_XBeeSerialSend 000E          XBeeCreateTransmitRequestPacket@dataLength 000A  
                            __size_of_SendMeasures 011E                 __size_of_UnUsedPeriphericalDisable 000C  
                                         ?_AdcInit 0001                                         ?_OnPowerUp 0001  
                             __end_of_AdcCalibrate 1B8E                                 SendMeasures@packet 0100  
                                      ??_Co2D1Init 0001                               __end_of_PowerUpSHT11 1BFA  
                                         ?_BspInit 0001                                        sprintf@flag 0007  
               XBeeCreateCompleteATCommandPacket@i 000B                 XBeeCreateCompleteATCommandPacket@p 000C  
                                  ?_PowerDownSHT11 0001           XBeeCreateCompleteATCommandPacket@command 0004  
         XBeeCreateCompleteATCommandPacket@frameId 0003                                      ?_Delay100TCYx 0001  
                              __end_of_Co2D1InitIO 1B80                                   _BROADCAST_RADIUS 0F03  
                                    ?_Delay10KTCYx 0001                              PayloadPutByte@element 0003  
                                     _SendMeasures 0F10                           XBeeCommissioning@command 001D  
                        __size_of_XBeeCreatePacket 0086                                        __smallconst 0F00  
                            PayloadPutByte@payload 0001                               __end_of_AdcReadValue 1B54  
                          __size_of_ClearMclrFlags 000C                                           ?_sprintf 0001  
                                 Sht11Measure@data 000D                                           _LATAbits 000F89  
        __end_of_XBeeCreateCompleteATCommandPacket 12A4         __size_of_XBeeCreateCompleteATCommandPacket 00B8  
              ??_XBeeCreateCompleteATCommandPacket 0009                 ?_XBeeCreateCompleteATCommandPacket 0001  
                _XBeeCreateCompleteATCommandPacket 11EC                                        ??_XBeeReset 000B  
                       XBeeCreateATCommandPacket@p 0006                                     ??_Delay100TCYx 0001  
                                         _PIR1bits 000F9E                                           _RCONbits 000FD0  
                          __end_of_SensorProxyInit 1B72                                        _DSWAKEHbits 000F4B  
                                   ??_Delay10KTCYx 0001                                        _DSWAKELbits 000F4A  
                                 XBeeReset@command 0020                                           _UCONbits 000F65  
                       __size_of_Sht11MeasureParam 00AE                                         _ADCON0bits 000FC2  
                                       _ADCON1bits 000FC1                   XBeeCreateATCommandPacket@command 0004  
                 XBeeCreateATCommandPacket@frameId 0003                                        ??_Sht11Init 0001  
                                      ??_Sht11Read 0002                                   __CFG_WPFP$PAGE_1 000000  
                                         _XBeeInit 1B9C                                           _XBeeJoin 1A6A  
                                      _EUSART_9600 001C                             __size_of_OnDsWdtWakeUp 0012  
                                 Delay10KTCYx@unit 0002                                        ??_OnPowerUp 0011  
                                      _INTCON2bits 000FF1                                          copy_data0 18B4  
                                 __size_of_AdcInit 001E                                  ?_XBeeSetSleepMode 0001  
                                         _OnWakeUp 1AFC                                 ??_XBeeSetSleepMode 000E  
                                ?_PayloadPutString 0009                                   __size_of_BspInit 001A  
                                      _Co2D1InitIO 1B72                                         _ANCON0bits 000F48  
                               ??_PayloadPutString 000D                                         _ANCON1bits 000F49  
                                         __Hrparam 0000                                           __Lrparam 0000  
                                   _XBeeSendPacket 112C                  XBeeCommissioning@timesButtonPress 000E  
                                   _PayloadPutByte 1768                                     _PayloadPutWord 145E  
               __size_of_XBeeCreateATCommandPacket 0072                               __size_of_PayloadInit 0032  
                            __size_of_AdcCalibrate 000E                                     _XBeeSerialInit 1AD4  
                                   _XBeeSerialSend 1B8E                              __size_of_PowerUpSHT11 0006  
                                         __ptext10 1AFC                                           __ptext11 0F10  
                                         __ptext20 17B0                                           __ptext12 102E  
                                         __ptext21 12A4                                           __ptext13 145E  
                                         __ptext30 14E0                                           __ptext22 1650  
                                         __ptext14 1716                                           __ptext31 1B44  
                                         __ptext23 190C                                           __ptext15 18CA  
                                         __ptext40 1A6A                                           __ptext32 1B80  
                                         __ptext24 16B4                                           __ptext16 1562  
                                         __ptext41 17F8                                           __ptext33 1C10  
                                         __ptext25 1B0E                                           __ptext17 1768  
                                         __ptext50 1ABC                                           __ptext42 1974  
                                         __ptext34 1BA8                                           __ptext26 1BF4  
                                         __ptext18 1942                                           __ptext51 1B32  
                                         __ptext43 15DE                                           __ptext35 1BEA  
                                         __ptext27 1BFA                                           __ptext19 1A04  
                                         __ptext52 1C00                                           __ptext44 1840  
                                         __ptext36 1BB4                                           __ptext28 1C0C  
                                         __ptext53 1C06                                           __ptext45 112C  
                                         __ptext37 1B54                                           __ptext29 1A2A  
                                         __ptext54 1A88                                           __ptext46 1B8E  
                                         __ptext38 1BC0                                           __ptext55 1AA2  
                                         __ptext47 13D8                                           __ptext39 1B20  
                                         __ptext48 19D6                                           __ptext49 11EC  
                          XBeeSetSleepMode@command 0023              XBeeCreateTransmitRequestPacket@packet 0001  
          __end_of_XBeeCreateTransmitRequestPacket 112C           __size_of_XBeeCreateTransmitRequestPacket 00FE  
                ??_XBeeCreateTransmitRequestPacket 000B                   ?_XBeeCreateTransmitRequestPacket 0001  
                  _XBeeCreateTransmitRequestPacket 102E              XBeeCreateTransmitRequestPacket@radius 0006  
                                  _ClearInterrupts 1A88                                 _ClearDSWakeUpFlags 1BA8  
                                 __size_of_sprintf 007C                                         _DSCONHbits 000F4D  
                                       _DSCONLbits 000F4C                                      __size_of_main 0086  
                      __end_of_COORDINATOR_ADDRESS 0F0D                   __end_of_EnableDeepSleepInterrupt 1C06  
                              ?_ClearDSWakeUpFlags 0001                                      _OnDsWdtWakeUp 1B20  
                           __end_of_XBeeSendPacket 11EC                                   Co2D1Measure@data 000E  
                                    ??_Delay10TCYx 0001                                   ?_SensorProxyInit 0001  
                                     _AdcCalibrate 1B80                             __end_of_PayloadPutByte 17B0  
                                 ??_PowerDeepSleep 0001                             __end_of_PayloadPutWord 14E0  
                            __size_of_AdcReadValue 0010                                       _PowerUpSHT11 1BF4  
                           __end_of_XBeeSerialInit 1AEA                             __end_of_XBeeSerialSend 1B9C  
                                 _XBeeCreatePacket 13D8                               ??_ClearDSWakeUpFlags 0001  
                                      _OSCTUNEbits 000F9B                                         _INTCONbits 000FF2  
                                   _ClearMclrFlags 1BC0                               __end_of_Delay100TCYx 1B44  
                                         memset@p1 0001                                   ??_PowerDownSHT11 0001  
                             __end_of_Delay10KTCYx 1AD4                           __end_of_BROADCAST_RADIUS 0F04  
                                        sprintf@ap 0005                                          sprintf@sp 0001  
                          __size_of_MeasureSensors 0026                          __size_of_PowerUpCO2Sensor 0006  
                            _ClearNetworkInterrupt 1C10                                         _RCSTA1bits 000FAC  
                                   ?_OnDsWdtWakeUp 0001                                       _AdcReadValue 1B44  
                                       _OSCCONbits 000FD3                                    ?_XBeeSendPacket 0002  
                                    AdcConvert@tmp 0009                                  AdcConvert@channel 0008  
                                _XBeeCommissioning 1840                                    ?_PayloadPutByte 0001  
                                  ?_PayloadPutWord 0001                                 ?_XBeeCommissioning 0001  
                                       _RTCCFGbits 000F3F                                __end_of_Delay10TCYx 1B20  
                                         sprintf@c 0008                                           sprintf@f 0003  
                           __end_of_ClearMclrFlags 1BCC                                    ?_XBeeSerialInit 0001  
                          __end_of_ClearInterrupts 1AA2                                    ?_XBeeSerialSend 0001  
                                         strlen@cp 0005                                ??_XBeeCommissioning 000E  
                                       _WDTCONbits 000FC0                                         _AdcConvert 14E0  
